---
triple:          'arm64-apple-darwin'
binary-path:     '/Users/runner/work/react-native/react-native/packages/react-native/sdks/hermes/build_iphoneos/API/hermes/hermes.framework/hermes'
relocations:
  - { offsetInCU: 0x1C325, offset: 0x1C325, size: 0x8, addend: 0x0, symName: __ZN6hermes2vmplERKNS0_11TwineChar16ES3_, symObjAddr: 0xD5D4, symBinAddr: 0x13FAC, symSize: 0xAC }
  - { offsetInCU: 0x1C3B8, offset: 0x1C3B8, size: 0x8, addend: 0x0, symName: __ZN6hermes2vmplERKNS0_11TwineChar16ES3_, symObjAddr: 0xD5D4, symBinAddr: 0x13FAC, symSize: 0xAC }
  - { offsetInCU: 0x27C8A, offset: 0x27C8A, size: 0x8, addend: 0x0, symName: __ZN8facebook6hermes6detailL16sApiFatalHandlerE, symObjAddr: 0x4C85C0, symBinAddr: 0x20CD08, symSize: 0x0 }
  - { offsetInCU: 0x27C98, offset: 0x27C98, size: 0x8, addend: 0x0, symName: __ZN8facebook6hermes6detail23hermesFatalErrorHandlerEPvRKNSt3__112basic_stringIcNS3_11char_traitsIcEENS3_9allocatorIcEEEEb, symObjAddr: 0x0, symBinAddr: 0x69F4, symSize: 0x24 }
  - { offsetInCU: 0x28640, offset: 0x28640, size: 0x8, addend: 0x0, symName: __ZN8facebook6hermes12_GLOBAL__N_120ensureZeroTerminatedERKNSt3__110shared_ptrIKNS_3jsi6BufferEEE, symObjAddr: 0x1A84, symBinAddr: 0x8464, symSize: 0x218 }
  - { offsetInCU: 0x2AE48, offset: 0x2AE48, size: 0x8, addend: 0x0, symName: __ZN8facebook6hermesL12deleteSharedERN6hermes2vm7HadesGCEPNS2_11NativeStateE, symObjAddr: 0x3E48, symBinAddr: 0xA828, symSize: 0x24 }
  - { offsetInCU: 0x2AED8, offset: 0x2AED8, size: 0x8, addend: 0x0, symName: __ZN8facebook6hermes27hardenedHermesRuntimeConfigEv, symObjAddr: 0x67FC, symBinAddr: 0xD1DC, symSize: 0x1A8 }
  - { offsetInCU: 0x2B52D, offset: 0x2B52D, size: 0x8, addend: 0x0, symName: __ZN8facebook6hermes17makeHermesRuntimeERKN6hermes2vm13RuntimeConfigE, symObjAddr: 0x6A6C, symBinAddr: 0xD44C, symSize: 0x80 }
  - { offsetInCU: 0x2B834, offset: 0x2B834, size: 0x8, addend: 0x0, symName: __ZN8facebook6hermes27makeThreadSafeHermesRuntimeERKN6hermes2vm13RuntimeConfigE, symObjAddr: 0x6AEC, symBinAddr: 0xD4CC, symSize: 0xE0 }
  - { offsetInCU: 0x7ADC5, offset: 0x7ADC5, size: 0x8, addend: 0x0, symName: __ZNSt3__1L19piecewise_constructE, symObjAddr: 0x13484, symBinAddr: 0x1B8BF4, symSize: 0x0 }
  - { offsetInCU: 0x997B3, offset: 0x997B3, size: 0x8, addend: 0x0, symName: __ZNSt3__124__put_character_sequenceB7v160006IcNS_11char_traitsIcEEEERNS_13basic_ostreamIT_T0_EES7_PKS4_m, symObjAddr: 0xB758, symBinAddr: 0x12130, symSize: 0x164 }
  - { offsetInCU: 0xA53E9, offset: 0xA53E9, size: 0x8, addend: 0x0, symName: __ZNSt3__119__allocate_at_leastB7v160006INS_9allocatorIPPN6hermes2vm8CallableEEEEENS_19__allocation_resultINS_16allocator_traitsIT_E7pointerEEERSA_m, symObjAddr: 0x93E8, symBinAddr: 0xFDC0, symSize: 0x34 }
  - { offsetInCU: 0xA5495, offset: 0xA5495, size: 0x8, addend: 0x0, symName: __ZNSt3__112basic_stringIcNS_11char_traitsIcEENS_9allocatorIcEEEC2B7v160006IPKcvEET_S9_, symObjAddr: 0x941C, symBinAddr: 0xFDF4, symSize: 0x98 }
  - { offsetInCU: 0xA57FA, offset: 0xA57FA, size: 0x8, addend: 0x0, symName: __ZNSt3__120__throw_length_errorB7v160006EPKc, symObjAddr: 0x94C8, symBinAddr: 0xFEA0, symSize: 0x50 }
  - { offsetInCU: 0xA6D31, offset: 0xA6D31, size: 0x8, addend: 0x0, symName: __ZNSt3__119__allocate_at_leastB7v160006INS_9allocatorIDsEEEENS_19__allocation_resultINS_16allocator_traitsIT_E7pointerEEERS5_m, symObjAddr: 0xAE40, symBinAddr: 0x11818, symSize: 0x30 }
  - { offsetInCU: 0xA6DDD, offset: 0xA6DDD, size: 0x8, addend: 0x0, symName: __ZNSt3__112basic_stringIcNS_11char_traitsIcEENS_9allocatorIcEEEC2B7v160006IDnEEPKc, symObjAddr: 0xAE70, symBinAddr: 0x11848, symSize: 0x9C }
  - { offsetInCU: 0xA6ECE, offset: 0xA6ECE, size: 0x8, addend: 0x0, symName: __ZNSt3__119__allocate_at_leastB7v160006INS_9allocatorINS_12basic_stringIcNS_11char_traitsIcEENS1_IcEEEEEEEENS_19__allocation_resultINS_16allocator_traitsIT_E7pointerEEERSA_m, symObjAddr: 0xBB18, symBinAddr: 0x124F0, symSize: 0x44 }
  - { offsetInCU: 0xA6F7A, offset: 0xA6F7A, size: 0x8, addend: 0x0, symName: __ZNSt3__142__uninitialized_allocator_move_if_noexceptB7v160006INS_9allocatorINS_12basic_stringIcNS_11char_traitsIcEENS1_IcEEEEEENS_16reverse_iteratorIPS6_EESA_SA_EET2_RT_T0_T1_SB_, symObjAddr: 0xBB5C, symBinAddr: 0x12534, symSize: 0x9C }
  - { offsetInCU: 0xA7450, offset: 0xA7450, size: 0x8, addend: 0x0, symName: __ZNSt3__116__pad_and_outputB7v160006IcNS_11char_traitsIcEEEENS_19ostreambuf_iteratorIT_T0_EES6_PKS4_S8_S8_RNS_8ios_baseES4_, symObjAddr: 0xB8BC, symBinAddr: 0x12294, symSize: 0x13C }
  - { offsetInCU: 0xA7AB7, offset: 0xA7AB7, size: 0x8, addend: 0x0, symName: __ZNSt3__142__uninitialized_allocator_move_if_noexceptB7v160006INS_9allocatorINS_12basic_stringIcNS_11char_traitsIcEENS1_IcEEEEEENS_16reverse_iteratorIPS6_EESA_SA_EET2_RT_T0_T1_SB_, symObjAddr: 0xBB5C, symBinAddr: 0x12534, symSize: 0x9C }
  - { offsetInCU: 0xA7E3B, offset: 0xA7E3B, size: 0x8, addend: 0x0, symName: __ZNSt3__130__uninitialized_allocator_copyB7v160006INS_9allocatorINS_12basic_stringIcNS_11char_traitsIcEENS1_IcEEEEEEPS6_S8_S8_EET2_RT_T0_T1_S9_, symObjAddr: 0xC15C, symBinAddr: 0x12B34, symSize: 0xA0 }
  - { offsetInCU: 0xA84ED, offset: 0xA84ED, size: 0x8, addend: 0x0, symName: __ZNSt3__125__throw_bad_function_callB7v160006Ev, symObjAddr: 0xDE24, symBinAddr: 0x147FC, symSize: 0x34 }
  - { offsetInCU: 0xA8B02, offset: 0xA8B02, size: 0x8, addend: 0x0, symName: __ZNSt3__119__allocate_at_leastB7v160006INS_9allocatorINS_8functionIFvPN6hermes2vm7HadesGCERNS4_12RootAcceptorEEEEEEEENS_19__allocation_resultINS_16allocator_traitsIT_E7pointerEEERSE_m, symObjAddr: 0xE70C, symBinAddr: 0x150DC, symSize: 0x34 }
  - { offsetInCU: 0xA8BAE, offset: 0xA8BAE, size: 0x8, addend: 0x0, symName: __ZNSt3__142__uninitialized_allocator_move_if_noexceptB7v160006INS_9allocatorINS_8functionIFvPN6hermes2vm7HadesGCERNS4_12RootAcceptorEEEEEENS_16reverse_iteratorIPSA_EESE_SE_EET2_RT_T0_T1_SF_, symObjAddr: 0xE740, symBinAddr: 0x15110, symSize: 0xA0 }
  - { offsetInCU: 0xA8C11, offset: 0xA8C11, size: 0x8, addend: 0x0, symName: __ZNSt3__142__uninitialized_allocator_move_if_noexceptB7v160006INS_9allocatorINS_8functionIFvPN6hermes2vm7HadesGCERNS4_12RootAcceptorEEEEEENS_16reverse_iteratorIPSA_EESE_SE_EET2_RT_T0_T1_SF_, symObjAddr: 0xE740, symBinAddr: 0x15110, symSize: 0xA0 }
  - { offsetInCU: 0xA90AC, offset: 0xA90AC, size: 0x8, addend: 0x0, symName: __ZNSt3__119__allocate_at_leastB7v160006INS_9allocatorINS_8functionIFvPN6hermes2vm7HadesGCERNS4_16WeakRootAcceptorEEEEEEEENS_19__allocation_resultINS_16allocator_traitsIT_E7pointerEEERSE_m, symObjAddr: 0xEC04, symBinAddr: 0x155D4, symSize: 0x34 }
  - { offsetInCU: 0xA9158, offset: 0xA9158, size: 0x8, addend: 0x0, symName: __ZNSt3__142__uninitialized_allocator_move_if_noexceptB7v160006INS_9allocatorINS_8functionIFvPN6hermes2vm7HadesGCERNS4_16WeakRootAcceptorEEEEEENS_16reverse_iteratorIPSA_EESE_SE_EET2_RT_T0_T1_SF_, symObjAddr: 0xEC38, symBinAddr: 0x15608, symSize: 0xA0 }
  - { offsetInCU: 0xA91BB, offset: 0xA91BB, size: 0x8, addend: 0x0, symName: __ZNSt3__142__uninitialized_allocator_move_if_noexceptB7v160006INS_9allocatorINS_8functionIFvPN6hermes2vm7HadesGCERNS4_16WeakRootAcceptorEEEEEENS_16reverse_iteratorIPSA_EESE_SE_EET2_RT_T0_T1_SF_, symObjAddr: 0xEC38, symBinAddr: 0x15608, symSize: 0xA0 }
  - { offsetInCU: 0xA980D, offset: 0xA980D, size: 0x8, addend: 0x0, symName: __ZNSt3__115allocate_sharedB7v160006IN8facebook3jsi19DecoratedHostObjectENS_9allocatorIS3_EEJRNS2_16RuntimeDecoratorINS1_6hermes17HermesRuntimeImplENS2_17ThreadSafeRuntimeEEENS_10shared_ptrINS2_10HostObjectEEEEvEENSC_IT_EERKT0_DpOT1_, symObjAddr: 0x11738, symBinAddr: 0x18108, symSize: 0x60 }
  - { offsetInCU: 0xAC4F2, offset: 0xAC4F2, size: 0x8, addend: 0x0, symName: __ZSt28__throw_bad_array_new_lengthB7v160006v, symObjAddr: 0x7D7C, symBinAddr: 0xE754, symSize: 0x28 }
  - { offsetInCU: 0xEAED9, offset: 0xEAED9, size: 0x8, addend: 0x0, symName: __ZNSt3__16vectorINS_12basic_stringIcNS_11char_traitsIcEENS_9allocatorIcEEEENS4_IS6_EEE26__swap_out_circular_bufferERNS_14__split_bufferIS6_RS7_EE, symObjAddr: 0xBA90, symBinAddr: 0x12468, symSize: 0x74 }
  - { offsetInCU: 0xEB47D, offset: 0xEB47D, size: 0x8, addend: 0x0, symName: __ZNSt3__16vectorINS_8functionIFvPN6hermes2vm7HadesGCERNS3_12RootAcceptorEEEENS_9allocatorIS9_EEE26__swap_out_circular_bufferERNS_14__split_bufferIS9_RSB_EE, symObjAddr: 0xE684, symBinAddr: 0x15054, symSize: 0x74 }
  - { offsetInCU: 0xEB5E3, offset: 0xEB5E3, size: 0x8, addend: 0x0, symName: __ZN8facebook6hermes17HermesRuntimeImplC2ERKN6hermes2vm13RuntimeConfigE, symObjAddr: 0xDED0, symBinAddr: 0x148A8, symSize: 0x648 }
  - { offsetInCU: 0xED39D, offset: 0xED39D, size: 0x8, addend: 0x0, symName: __ZNSt3__16vectorINS_8functionIFvPN6hermes2vm7HadesGCERNS3_16WeakRootAcceptorEEEENS_9allocatorIS9_EEE26__swap_out_circular_bufferERNS_14__split_bufferIS9_RSB_EE, symObjAddr: 0xEB7C, symBinAddr: 0x1554C, symSize: 0x74 }
  - { offsetInCU: 0xEFEA9, offset: 0xEFEA9, size: 0x8, addend: 0x0, symName: __ZN8facebook6hermes13HermesRuntime16isHermesBytecodeEPKhm, symObjAddr: 0x24, symBinAddr: 0x6A18, symSize: 0x30 }
  - { offsetInCU: 0xEFED3, offset: 0xEFED3, size: 0x8, addend: 0x0, symName: __ZN8facebook6hermes13HermesRuntime16isHermesBytecodeEPKhm, symObjAddr: 0x24, symBinAddr: 0x6A18, symSize: 0x30 }
  - { offsetInCU: 0xEFEFB, offset: 0xEFEFB, size: 0x8, addend: 0x0, symName: __ZN8facebook6hermes13HermesRuntime18getBytecodeVersionEv, symObjAddr: 0x54, symBinAddr: 0x6A48, symSize: 0x8 }
  - { offsetInCU: 0xEFF12, offset: 0xEFF12, size: 0x8, addend: 0x0, symName: __ZN8facebook6hermes13HermesRuntime22prefetchHermesBytecodeEPKhm, symObjAddr: 0x5C, symBinAddr: 0x6A50, symSize: 0x4 }
  - { offsetInCU: 0xEFF48, offset: 0xEFF48, size: 0x8, addend: 0x0, symName: __ZN8facebook6hermes13HermesRuntime25hermesBytecodeSanityCheckEPKhmPNSt3__112basic_stringIcNS4_11char_traitsIcEENS4_9allocatorIcEEEE, symObjAddr: 0x60, symBinAddr: 0x6A54, symSize: 0x4 }
  - { offsetInCU: 0xEFF8D, offset: 0xEFF8D, size: 0x8, addend: 0x0, symName: __ZN8facebook6hermes13HermesRuntime19getBytecodeEpilogueEPKhm, symObjAddr: 0x64, symBinAddr: 0x6A58, symSize: 0x4 }
  - { offsetInCU: 0xEFFD0, offset: 0xEFFD0, size: 0x8, addend: 0x0, symName: __ZN8facebook6hermes13HermesRuntime22enableSamplingProfilerEd, symObjAddr: 0x68, symBinAddr: 0x6A5C, symSize: 0x4 }
  - { offsetInCU: 0xEFFF8, offset: 0xEFFF8, size: 0x8, addend: 0x0, symName: __ZN8facebook6hermes13HermesRuntime23disableSamplingProfilerEv, symObjAddr: 0x6C, symBinAddr: 0x6A60, symSize: 0x4 }
  - { offsetInCU: 0xF0113, offset: 0xF0113, size: 0x8, addend: 0x0, symName: __ZN8facebook6hermes13HermesRuntime22dumpSampledTraceToFileERKNSt3__112basic_stringIcNS2_11char_traitsIcEENS2_9allocatorIcEEEE, symObjAddr: 0x70, symBinAddr: 0x6A64, symSize: 0xD4 }
  - { offsetInCU: 0xF033B, offset: 0xF033B, size: 0x8, addend: 0x0, symName: __ZN8facebook6hermes13HermesRuntime24dumpSampledTraceToStreamERNSt3__113basic_ostreamIcNS2_11char_traitsIcEEEE, symObjAddr: 0x144, symBinAddr: 0x6B38, symSize: 0x64 }
  - { offsetInCU: 0xF05CC, offset: 0xF05CC, size: 0x8, addend: 0x0, symName: __ZN8facebook6hermes13HermesRuntime36sampledTraceToStreamInDevToolsFormatERNSt3__113basic_ostreamIcNS2_11char_traitsIcEEEE, symObjAddr: 0x1A8, symBinAddr: 0x6B9C, symSize: 0x13C }
  - { offsetInCU: 0xF0951, offset: 0xF0951, size: 0x8, addend: 0x0, symName: __ZNSt3__112basic_stringIcNS_11char_traitsIcEENS_9allocatorIcEEEC2B7v160006IDnEEPKc, symObjAddr: 0xAE70, symBinAddr: 0x11848, symSize: 0x9C }
  - { offsetInCU: 0xF0CF9, offset: 0xF0CF9, size: 0x8, addend: 0x0, symName: __ZNSt3__16vectorINS_12basic_stringIcNS_11char_traitsIcEENS_9allocatorIcEEEENS4_IS6_EEED2B7v160006Ev, symObjAddr: 0xAF0C, symBinAddr: 0x118E4, symSize: 0x38 }
  - { offsetInCU: 0xF0F8D, offset: 0xF0F8D, size: 0x8, addend: 0x0, symName: __ZN8facebook6hermes13HermesRuntime20getExecutedFunctionsEv, symObjAddr: 0x2E4, symBinAddr: 0x6CD8, symSize: 0x214 }
  - { offsetInCU: 0xF1ECA, offset: 0xF1ECA, size: 0x8, addend: 0x0, symName: __ZNSt3__118basic_stringstreamIcNS_11char_traitsIcEENS_9allocatorIcEEEC1B7v160006Ev, symObjAddr: 0xB5A4, symBinAddr: 0x11F7C, symSize: 0x12C }
  - { offsetInCU: 0xF1FED, offset: 0xF1FED, size: 0x8, addend: 0x0, symName: __ZNSt3__120back_insert_iteratorINS_6vectorINS_12basic_stringIcNS_11char_traitsIcEENS_9allocatorIcEEEENS5_IS7_EEEEEaSB7v160006EOS7_, symObjAddr: 0xB468, symBinAddr: 0x11E40, symSize: 0x13C }
  - { offsetInCU: 0xF2482, offset: 0xF2482, size: 0x8, addend: 0x0, symName: __ZNSt3__112__hash_tableINS_17__hash_value_typeINS_12basic_stringIcNS_11char_traitsIcEENS_9allocatorIcEEEENS_6vectorIS7_NS5_IS7_EEEEEENS_22__unordered_map_hasherIS7_SB_NS_4hashIS7_EENS_8equal_toIS7_EELb1EEENS_21__unordered_map_equalIS7_SB_SG_SE_Lb1EEENS5_ISB_EEE25__emplace_unique_key_argsIS7_JRKS7_RSA_EEENS_4pairINS_15__hash_iteratorIPNS_11__hash_nodeISB_PvEEEEbEERKT_DpOT0_, symObjAddr: 0xBCF8, symBinAddr: 0x126D0, symSize: 0x278 }
  - { offsetInCU: 0xF2A38, offset: 0xF2A38, size: 0x8, addend: 0x0, symName: __ZNSt3__16vectorINS_12basic_stringIcNS_11char_traitsIcEENS_9allocatorIcEEEENS4_IS6_EEED2B7v160006Ev, symObjAddr: 0xAF0C, symBinAddr: 0x118E4, symSize: 0x38 }
  - { offsetInCU: 0xF2ACB, offset: 0xF2ACB, size: 0x8, addend: 0x0, symName: __ZNSt3__112__hash_tableINS_17__hash_value_typeINS_12basic_stringIcNS_11char_traitsIcEENS_9allocatorIcEEEENS_6vectorIN6hermes2vm20CodeCoverageProfiler8FuncInfoENS5_ISC_EEEEEENS_22__unordered_map_hasherIS7_SF_NS_4hashIS7_EENS_8equal_toIS7_EELb1EEENS_21__unordered_map_equalIS7_SF_SK_SI_Lb1EEENS5_ISF_EEED2Ev, symObjAddr: 0xB21C, symBinAddr: 0x11BF4, symSize: 0x38 }
  - { offsetInCU: 0xF2C69, offset: 0xF2C69, size: 0x8, addend: 0x0, symName: __ZNSt3__118basic_stringstreamIcNS_11char_traitsIcEENS_9allocatorIcEEED1Ev, symObjAddr: 0xB6D0, symBinAddr: 0x120A8, symSize: 0x88 }
  - { offsetInCU: 0xF2E36, offset: 0xF2E36, size: 0x8, addend: 0x0, symName: __ZNSt3__112__hash_tableINS_17__hash_value_typeINS_12basic_stringIcNS_11char_traitsIcEENS_9allocatorIcEEEENS_6vectorIS7_NS5_IS7_EEEEEENS_22__unordered_map_hasherIS7_SB_NS_4hashIS7_EENS_8equal_toIS7_EELb1EEENS_21__unordered_map_equalIS7_SB_SG_SE_Lb1EEENS5_ISB_EEED2Ev, symObjAddr: 0xB3A8, symBinAddr: 0x11D80, symSize: 0x38 }
  - { offsetInCU: 0xF3010, offset: 0xF3010, size: 0x8, addend: 0x0, symName: __ZN8facebook6hermes13HermesRuntime29isCodeCoverageProfilerEnabledEv, symObjAddr: 0x4F8, symBinAddr: 0x6EEC, symSize: 0x10 }
  - { offsetInCU: 0xF302B, offset: 0xF302B, size: 0x8, addend: 0x0, symName: __ZN8facebook6hermes13HermesRuntime29isCodeCoverageProfilerEnabledEv, symObjAddr: 0x4F8, symBinAddr: 0x6EEC, symSize: 0x10 }
  - { offsetInCU: 0xF3041, offset: 0xF3041, size: 0x8, addend: 0x0, symName: __ZN8facebook6hermes13HermesRuntime29isCodeCoverageProfilerEnabledEv, symObjAddr: 0x4F8, symBinAddr: 0x6EEC, symSize: 0x10 }
  - { offsetInCU: 0xF305D, offset: 0xF305D, size: 0x8, addend: 0x0, symName: __ZN8facebook6hermes13HermesRuntime29isCodeCoverageProfilerEnabledEv, symObjAddr: 0x4F8, symBinAddr: 0x6EEC, symSize: 0x10 }
  - { offsetInCU: 0xF30BD, offset: 0xF30BD, size: 0x8, addend: 0x0, symName: __ZN8facebook6hermes13HermesRuntime26enableCodeCoverageProfilerEv, symObjAddr: 0x508, symBinAddr: 0x6EFC, symSize: 0x10 }
  - { offsetInCU: 0xF30D8, offset: 0xF30D8, size: 0x8, addend: 0x0, symName: __ZN8facebook6hermes13HermesRuntime26enableCodeCoverageProfilerEv, symObjAddr: 0x508, symBinAddr: 0x6EFC, symSize: 0x10 }
  - { offsetInCU: 0xF30EE, offset: 0xF30EE, size: 0x8, addend: 0x0, symName: __ZN8facebook6hermes13HermesRuntime26enableCodeCoverageProfilerEv, symObjAddr: 0x508, symBinAddr: 0x6EFC, symSize: 0x10 }
  - { offsetInCU: 0xF3113, offset: 0xF3113, size: 0x8, addend: 0x0, symName: __ZN8facebook6hermes13HermesRuntime26enableCodeCoverageProfilerEv, symObjAddr: 0x508, symBinAddr: 0x6EFC, symSize: 0x10 }
  - { offsetInCU: 0xF313E, offset: 0xF313E, size: 0x8, addend: 0x0, symName: __ZN8facebook6hermes13HermesRuntime27disableCodeCoverageProfilerEv, symObjAddr: 0x518, symBinAddr: 0x6F0C, symSize: 0xC }
  - { offsetInCU: 0xF3159, offset: 0xF3159, size: 0x8, addend: 0x0, symName: __ZN8facebook6hermes13HermesRuntime27disableCodeCoverageProfilerEv, symObjAddr: 0x518, symBinAddr: 0x6F0C, symSize: 0xC }
  - { offsetInCU: 0xF316F, offset: 0xF316F, size: 0x8, addend: 0x0, symName: __ZN8facebook6hermes13HermesRuntime27disableCodeCoverageProfilerEv, symObjAddr: 0x518, symBinAddr: 0x6F0C, symSize: 0xC }
  - { offsetInCU: 0xF3194, offset: 0xF3194, size: 0x8, addend: 0x0, symName: __ZN8facebook6hermes13HermesRuntime27disableCodeCoverageProfilerEv, symObjAddr: 0x518, symBinAddr: 0x6F0C, symSize: 0xC }
  - { offsetInCU: 0xF31B8, offset: 0xF31B8, size: 0x8, addend: 0x0, symName: __ZN8facebook6hermes13HermesRuntime15setFatalHandlerEPFvRKNSt3__112basic_stringIcNS2_11char_traitsIcEENS2_9allocatorIcEEEEE, symObjAddr: 0x524, symBinAddr: 0x6F18, symSize: 0xC }
  - { offsetInCU: 0xF3C13, offset: 0xF3C13, size: 0x8, addend: 0x0, symName: __ZN8facebook6hermes13HermesRuntime11loadSegmentENSt3__110unique_ptrIKNS_3jsi6BufferENS2_14default_deleteIS6_EEEERKNS4_5ValueE, symObjAddr: 0x530, symBinAddr: 0x6F24, symSize: 0x424 }
  - { offsetInCU: 0xF4D07, offset: 0xF4D07, size: 0x8, addend: 0x0, symName: __ZN6hermes3hbc20BCProviderFromBuffer26createBCProviderFromBufferENSt3__110unique_ptrIKNS_6BufferENS2_14default_deleteIS5_EEEENS0_12BytecodeFormE, symObjAddr: 0x954, symBinAddr: 0x7348, symSize: 0x150 }
  - { offsetInCU: 0xF55FB, offset: 0xF55FB, size: 0x8, addend: 0x0, symName: __ZNSt3__110unique_ptrIN8facebook6hermes12_GLOBAL__N_113BufferAdapterENS_14default_deleteIS4_EEED1B7v160006Ev, symObjAddr: 0xAA4, symBinAddr: 0x7498, symSize: 0x40 }
  - { offsetInCU: 0xF571C, offset: 0xF571C, size: 0x8, addend: 0x0, symName: __ZN8facebook6hermes17HermesRuntimeImpl17vmHandleFromValueERKNS_3jsi5ValueE, symObjAddr: 0xAE4, symBinAddr: 0x74D8, symSize: 0xB8 }
  - { offsetInCU: 0xF5991, offset: 0xF5991, size: 0x8, addend: 0x0, symName: __ZN6hermes3hbc20BCProviderFromBufferD2Ev, symObjAddr: 0x7B84, symBinAddr: 0xE564, symSize: 0xD4 }
  - { offsetInCU: 0xF62A5, offset: 0xF62A5, size: 0x8, addend: 0x0, symName: __ZN8facebook6hermes17HermesRuntimeImpl17throwPendingErrorEv, symObjAddr: 0x6388, symBinAddr: 0xCD68, symSize: 0x2A0 }
  - { offsetInCU: 0xF6F4A, offset: 0xF6F4A, size: 0x8, addend: 0x0, symName: __ZNSt3__110shared_ptrIKN8facebook3jsi6BufferEED2B7v160006Ev, symObjAddr: 0xC528, symBinAddr: 0x12F00, symSize: 0x58 }
  - { offsetInCU: 0xF6FDC, offset: 0xF6FDC, size: 0x8, addend: 0x0, symName: __ZNSt3__110shared_ptrIN6hermes3hbc14BCProviderBaseEED2B7v160006Ev, symObjAddr: 0xC66C, symBinAddr: 0x13044, symSize: 0x58 }
  - { offsetInCU: 0xF706E, offset: 0xF706E, size: 0x8, addend: 0x0, symName: __ZNSt3__14pairINS_10unique_ptrIN6hermes3hbc20BCProviderFromBufferENS_14default_deleteIS4_EEEENS_12basic_stringIcNS_11char_traitsIcEENS_9allocatorIcEEEEED1Ev, symObjAddr: 0xBB0, symBinAddr: 0x7590, symSize: 0x3C }
  - { offsetInCU: 0xF7415, offset: 0xF7415, size: 0x8, addend: 0x0, symName: __ZNSt3__14pairINS_10unique_ptrIN6hermes3hbc20BCProviderFromBufferENS_14default_deleteIS4_EEEENS_12basic_stringIcNS_11char_traitsIcEENS_9allocatorIcEEEEEC2B7v160006IS7_RSD_LPv0EEEOT_OT0_, symObjAddr: 0x7B0C, symBinAddr: 0xE4EC, symSize: 0x4C }
  - { offsetInCU: 0xF789B, offset: 0xF789B, size: 0x8, addend: 0x0, symName: __ZNSt3__110unique_ptrIN6hermes3hbc20BCProviderFromBufferENS_14default_deleteIS3_EEE5resetB7v160006EPS3_, symObjAddr: 0x7B58, symBinAddr: 0xE538, symSize: 0x2C }
  - { offsetInCU: 0xF7984, offset: 0xF7984, size: 0x8, addend: 0x0, symName: __ZNK8facebook6hermes13HermesRuntime11getUniqueIDERKNS_3jsi6ObjectE, symObjAddr: 0xBEC, symBinAddr: 0x75CC, symSize: 0x30 }
  - { offsetInCU: 0xF7A74, offset: 0xF7A74, size: 0x8, addend: 0x0, symName: __ZNK8facebook6hermes13HermesRuntime11getUniqueIDERKNS_3jsi6BigIntE, symObjAddr: 0xC1C, symBinAddr: 0x75FC, symSize: 0x30 }
  - { offsetInCU: 0xF7B64, offset: 0xF7B64, size: 0x8, addend: 0x0, symName: __ZNK8facebook6hermes13HermesRuntime11getUniqueIDERKNS_3jsi6StringE, symObjAddr: 0xC4C, symBinAddr: 0x762C, symSize: 0x30 }
  - { offsetInCU: 0xF7C54, offset: 0xF7C54, size: 0x8, addend: 0x0, symName: __ZNK8facebook6hermes13HermesRuntime11getUniqueIDERKNS_3jsi10PropNameIDE, symObjAddr: 0xC7C, symBinAddr: 0x765C, symSize: 0x2C }
  - { offsetInCU: 0xF7D0D, offset: 0xF7D0D, size: 0x8, addend: 0x0, symName: __ZNK8facebook6hermes13HermesRuntime11getUniqueIDERKNS_3jsi6SymbolE, symObjAddr: 0xCA8, symBinAddr: 0x7688, symSize: 0x2C }
  - { offsetInCU: 0xF7DC6, offset: 0xF7DC6, size: 0x8, addend: 0x0, symName: __ZNK8facebook6hermes13HermesRuntime11getUniqueIDERKNS_3jsi5ValueE, symObjAddr: 0xCD4, symBinAddr: 0x76B4, symSize: 0x44 }
  - { offsetInCU: 0xF7E48, offset: 0xF7E48, size: 0x8, addend: 0x0, symName: __ZN8facebook6hermes17HermesRuntimeImpl11hvFromValueERKNS_3jsi5ValueE, symObjAddr: 0xD18, symBinAddr: 0x76F8, symSize: 0x6C }
  - { offsetInCU: 0xF828A, offset: 0xF828A, size: 0x8, addend: 0x0, symName: __ZN8facebook6hermes13HermesRuntime14getObjectForIDEy, symObjAddr: 0xD84, symBinAddr: 0x7764, symSize: 0x80 }
  - { offsetInCU: 0xF8614, offset: 0xF8614, size: 0x8, addend: 0x0, symName: __ZN6hermes18ManagedChunkedListIN8facebook6hermes17HermesRuntimeImpl12ManagedValueINS_2vm17PinnedHermesValueEEELm16EE3addIJRNS5_11HermesValueEEEERS7_DpOT_, symObjAddr: 0x8984, symBinAddr: 0xF35C, symSize: 0x74 }
  - { offsetInCU: 0xF87BC, offset: 0xF87BC, size: 0x8, addend: 0x0, symName: __ZNK8facebook6hermes13HermesRuntime14getGCExecTraceEv, symObjAddr: 0xE04, symBinAddr: 0x77E4, symSize: 0x10 }
  - { offsetInCU: 0xF88D4, offset: 0xF88D4, size: 0x8, addend: 0x0, symName: __ZN8facebook6hermes13HermesRuntime21getIOTrackingInfoJSONEv, symObjAddr: 0xE14, symBinAddr: 0x77F4, symSize: 0x9C }
  - { offsetInCU: 0xF8B50, offset: 0xF8B50, size: 0x8, addend: 0x0, symName: __ZN8facebook6hermes13HermesRuntime11getDebuggerEv, symObjAddr: 0xEB0, symBinAddr: 0x7890, symSize: 0x8 }
  - { offsetInCU: 0xF8B7D, offset: 0xF8B7D, size: 0x8, addend: 0x0, symName: __ZN8facebook6hermes13HermesRuntime11getDebuggerEv, symObjAddr: 0xEB0, symBinAddr: 0x7890, symSize: 0x8 }
  - { offsetInCU: 0xF8C89, offset: 0xF8C89, size: 0x8, addend: 0x0, symName: __ZN8facebook6hermes13HermesRuntime20registerForProfilingEv, symObjAddr: 0xEB8, symBinAddr: 0x7898, symSize: 0x80 }
  - { offsetInCU: 0xF8E33, offset: 0xF8E33, size: 0x8, addend: 0x0, symName: __ZN8facebook6hermes13HermesRuntime22unregisterForProfilingEv, symObjAddr: 0xF38, symBinAddr: 0x7918, symSize: 0x34 }
  - { offsetInCU: 0xF8ED4, offset: 0xF8ED4, size: 0x8, addend: 0x0, symName: __ZN8facebook6hermes13HermesRuntime19asyncTriggerTimeoutEv, symObjAddr: 0xF6C, symBinAddr: 0x794C, symSize: 0x20 }
  - { offsetInCU: 0xF8F54, offset: 0xF8F54, size: 0x8, addend: 0x0, symName: __ZN8facebook6hermes13HermesRuntime19asyncTriggerTimeoutEv, symObjAddr: 0xF6C, symBinAddr: 0x794C, symSize: 0x20 }
  - { offsetInCU: 0xF911D, offset: 0xF911D, size: 0x8, addend: 0x0, symName: __ZN8facebook6hermes13HermesRuntime14watchTimeLimitEj, symObjAddr: 0xF8C, symBinAddr: 0x796C, symSize: 0x9C }
  - { offsetInCU: 0xF92D4, offset: 0xF92D4, size: 0x8, addend: 0x0, symName: __ZNSt3__110shared_ptrIN6hermes2vm16TimeLimitMonitorEEaSB7v160006EOS4_, symObjAddr: 0x1028, symBinAddr: 0x7A08, symSize: 0x64 }
  - { offsetInCU: 0xF94C6, offset: 0xF94C6, size: 0x8, addend: 0x0, symName: __ZN8facebook6hermes13HermesRuntime16unwatchTimeLimitEv, symObjAddr: 0x108C, symBinAddr: 0x7A6C, symSize: 0x14 }
  - { offsetInCU: 0xF959B, offset: 0xF959B, size: 0x8, addend: 0x0, symName: __ZN8facebook6hermes13HermesRuntime31evaluateJavaScriptWithSourceMapERKNSt3__110shared_ptrIKNS_3jsi6BufferEEES9_RKNS2_12basic_stringIcNS2_11char_traitsIcEENS2_9allocatorIcEEEE, symObjAddr: 0x10A0, symBinAddr: 0x7A80, symSize: 0xE0 }
  - { offsetInCU: 0xF99C4, offset: 0xF99C4, size: 0x8, addend: 0x0, symName: __ZN8facebook6hermes17HermesRuntimeImpl30prepareJavaScriptWithSourceMapERKNSt3__110shared_ptrIKNS_3jsi6BufferEEES9_NS2_12basic_stringIcNS2_11char_traitsIcEENS2_9allocatorIcEEEE, symObjAddr: 0x1324, symBinAddr: 0x7D04, symSize: 0x71C }
  - { offsetInCU: 0xFC47C, offset: 0xFC47C, size: 0x8, addend: 0x0, symName: __ZN8facebook6hermes17HermesRuntimeImpl26evaluatePreparedJavaScriptERKNSt3__110shared_ptrIKNS_3jsi18PreparedJavaScriptEEE, symObjAddr: 0x1180, symBinAddr: 0x7B60, symSize: 0x1A4 }
  - { offsetInCU: 0xFC8B1, offset: 0xFC8B1, size: 0x8, addend: 0x0, symName: __ZNSt3__110shared_ptrIKN8facebook3jsi18PreparedJavaScriptEED2B7v160006Ev, symObjAddr: 0xC6C4, symBinAddr: 0x1309C, symSize: 0x58 }
  - { offsetInCU: 0xFCB1E, offset: 0xFCB1E, size: 0x8, addend: 0x0, symName: __ZN4llvh11SmallVectorIPN6hermes2vm17PinnedHermesValueELj4EEC2ESt16initializer_listIS4_E, symObjAddr: 0x88A0, symBinAddr: 0xF278, symSize: 0x5C }
  - { offsetInCU: 0xFCCF3, offset: 0xFCCF3, size: 0x8, addend: 0x0, symName: __ZN8facebook6hermes17HermesRuntimeImpl20valueFromHermesValueEN6hermes2vm11HermesValueE, symObjAddr: 0x1E08, symBinAddr: 0x87E8, symSize: 0x128 }
  - { offsetInCU: 0xFE6E0, offset: 0xFE6E0, size: 0x8, addend: 0x0, symName: __ZN8facebook6hermes12_GLOBAL__N_113BufferAdapterC1ERKNSt3__110shared_ptrIKNS_3jsi6BufferEEE, symObjAddr: 0x7CF8, symBinAddr: 0xE6D0, symSize: 0x84 }
  - { offsetInCU: 0xFE8A1, offset: 0xFE8A1, size: 0x8, addend: 0x0, symName: __ZNKSt3__114default_deleteIN6hermes9SourceMapEEclB7v160006EPS2_, symObjAddr: 0xAFD8, symBinAddr: 0x119B0, symSize: 0x50 }
  - { offsetInCU: 0xFEAF8, offset: 0xFEAF8, size: 0x8, addend: 0x0, symName: __ZNSt3__16vectorIN6hermes18SourceErrorManager11MessageDataENS_9allocatorIS3_EEED2B7v160006Ev, symObjAddr: 0x7EF4, symBinAddr: 0xE8CC, symSize: 0x38 }
  - { offsetInCU: 0xFEB8B, offset: 0xFEB8B, size: 0x8, addend: 0x0, symName: __ZNSt3__16vectorIN6hermes18SourceErrorManager15BufferedMessageENS_9allocatorIS3_EEED2B7v160006Ev, symObjAddr: 0x7FC0, symBinAddr: 0xE998, symSize: 0x38 }
  - { offsetInCU: 0xFEC1E, offset: 0xFEC1E, size: 0x8, addend: 0x0, symName: __ZN4llvh8DenseMapIjNSt3__112basic_stringIcNS1_11char_traitsIcEENS1_9allocatorIcEEEENS_12DenseMapInfoIjEENS_6detail12DenseMapPairIjS7_EEED2Ev, symObjAddr: 0x808C, symBinAddr: 0xEA64, symSize: 0x30 }
  - { offsetInCU: 0xFEC6E, offset: 0xFEC6E, size: 0x8, addend: 0x0, symName: __ZN4llvh14SmallBitVectorD2Ev, symObjAddr: 0x810C, symBinAddr: 0xEAE4, symSize: 0x44 }
  - { offsetInCU: 0xFED46, offset: 0xFED46, size: 0x8, addend: 0x0, symName: __ZNSt3__15dequeINS_12basic_stringIcNS_11char_traitsIcEENS_9allocatorIcEEEENS4_IS6_EEED2B7v160006Ev, symObjAddr: 0x8150, symBinAddr: 0xEB28, symSize: 0x144 }
  - { offsetInCU: 0xFF2B4, offset: 0xFF2B4, size: 0x8, addend: 0x0, symName: __ZN4llvh9SourceMgrD2Ev, symObjAddr: 0x8338, symBinAddr: 0xED10, symSize: 0x34 }
  - { offsetInCU: 0xFF3F1, offset: 0xFF3F1, size: 0x8, addend: 0x0, symName: __ZN4llvh11SmallVectorINS_7SMFixItELj4EED2Ev, symObjAddr: 0x8454, symBinAddr: 0xEE2C, symSize: 0x70 }
  - { offsetInCU: 0xFF681, offset: 0xFF681, size: 0x8, addend: 0x0, symName: __ZNKSt3__114default_deleteIN6hermes3hbc17BCProviderFromSrcEEclB7v160006EPS3_, symObjAddr: 0x84C4, symBinAddr: 0xEE9C, symSize: 0x50 }
  - { offsetInCU: 0xFF8C7, offset: 0xFF8C7, size: 0x8, addend: 0x0, symName: __ZN6hermes18SourceErrorManagerD1Ev, symObjAddr: 0x1C9C, symBinAddr: 0x867C, symSize: 0x6C }
  - { offsetInCU: 0xFFB6B, offset: 0xFFB6B, size: 0x8, addend: 0x0, symName: __ZN6hermes17SimpleDiagHandlerD1Ev, symObjAddr: 0x1D08, symBinAddr: 0x86E8, symSize: 0x68 }
  - { offsetInCU: 0x100157, offset: 0x100157, size: 0x8, addend: 0x0, symName: __ZN8facebook6hermes17HermesRuntimeImpl30prepareJavaScriptWithSourceMapERKNSt3__110shared_ptrIKNS_3jsi6BufferEEES9_NS2_12basic_stringIcNS2_11char_traitsIcEENS2_9allocatorIcEEEE.cold.2, symObjAddr: 0x11C70, symBinAddr: 0x1B4324, symSize: 0x40 }
  - { offsetInCU: 0x1001E5, offset: 0x1001E5, size: 0x8, addend: 0x0, symName: __ZN8facebook6hermes17HermesRuntimeImpl30prepareJavaScriptWithSourceMapERKNSt3__110shared_ptrIKNS_3jsi6BufferEEES9_NS2_12basic_stringIcNS2_11char_traitsIcEENS2_9allocatorIcEEEE.cold.1, symObjAddr: 0x11C3C, symBinAddr: 0x1B42F0, symSize: 0x34 }
  - { offsetInCU: 0x10037E, offset: 0x10037E, size: 0x8, addend: 0x0, symName: __ZNK8facebook6hermes13HermesRuntime18getVMRuntimeUnsafeEv, symObjAddr: 0x1A40, symBinAddr: 0x8420, symSize: 0x8 }
  - { offsetInCU: 0x1003AB, offset: 0x1003AB, size: 0x8, addend: 0x0, symName: __ZNK8facebook6hermes13HermesRuntime18getVMRuntimeUnsafeEv, symObjAddr: 0x1A40, symBinAddr: 0x8420, symSize: 0x8 }
  - { offsetInCU: 0x1004C9, offset: 0x1004C9, size: 0x8, addend: 0x0, symName: __ZNK8facebook6hermes13HermesRuntime23rootsListLengthForTestsEv, symObjAddr: 0x1A48, symBinAddr: 0x8428, symSize: 0x3C }
  - { offsetInCU: 0x1004F6, offset: 0x1004F6, size: 0x8, addend: 0x0, symName: __ZNK8facebook6hermes13HermesRuntime23rootsListLengthForTestsEv, symObjAddr: 0x1A48, symBinAddr: 0x8428, symSize: 0x3C }
  - { offsetInCU: 0x10051D, offset: 0x10051D, size: 0x8, addend: 0x0, symName: __ZNK8facebook6hermes13HermesRuntime23rootsListLengthForTestsEv, symObjAddr: 0x1A48, symBinAddr: 0x8428, symSize: 0x3C }
  - { offsetInCU: 0x100538, offset: 0x100538, size: 0x8, addend: 0x0, symName: __ZNK8facebook6hermes13HermesRuntime23rootsListLengthForTestsEv, symObjAddr: 0x1A48, symBinAddr: 0x8428, symSize: 0x3C }
  - { offsetInCU: 0x1009A8, offset: 0x1009A8, size: 0x8, addend: 0x0, symName: __ZNSt3__112basic_stringIcNS_11char_traitsIcEENS_9allocatorIcEEEC2B7v160006EPKcm, symObjAddr: 0xAD0C, symBinAddr: 0x116E4, symSize: 0x94 }
  - { offsetInCU: 0x100D2E, offset: 0x100D2E, size: 0x8, addend: 0x0, symName: __ZNSt3__112basic_stringIDsNS_11char_traitsIDsEENS_9allocatorIDsEEEC2B7v160006EPKDsm, symObjAddr: 0xADA0, symBinAddr: 0x11778, symSize: 0x8C }
  - { offsetInCU: 0x100D41, offset: 0x100D41, size: 0x8, addend: 0x0, symName: __ZNSt3__110shared_ptrIN8facebook3jsi12StringBufferEED2B7v160006Ev, symObjAddr: 0x7E9C, symBinAddr: 0xE874, symSize: 0x58 }
  - { offsetInCU: 0x100DD3, offset: 0x100DD3, size: 0x8, addend: 0x0, symName: __ZNSt3__110shared_ptrIN6hermes18SourceErrorManager16ICoordTranslatorEED2B7v160006Ev, symObjAddr: 0x82E0, symBinAddr: 0xECB8, symSize: 0x58 }
  - { offsetInCU: 0x100EAB, offset: 0x100EAB, size: 0x8, addend: 0x0, symName: __ZN8facebook6hermes17HermesRuntimeImpl17prepareJavaScriptERKNSt3__110shared_ptrIKNS_3jsi6BufferEEENS2_12basic_stringIcNS2_11char_traitsIcEENS2_9allocatorIcEEEE, symObjAddr: 0x1D70, symBinAddr: 0x8750, symSize: 0x98 }
  - { offsetInCU: 0x101363, offset: 0x101363, size: 0x8, addend: 0x0, symName: __ZN8facebook6hermes17HermesRuntimeImpl18evaluateJavaScriptERKNSt3__110shared_ptrIKNS_3jsi6BufferEEERKNS2_12basic_stringIcNS2_11char_traitsIcEENS2_9allocatorIcEEEE, symObjAddr: 0x1F30, symBinAddr: 0x8910, symSize: 0x44 }
  - { offsetInCU: 0x1014D2, offset: 0x1014D2, size: 0x8, addend: 0x0, symName: __ZN8facebook6hermes17HermesRuntimeImpl14queueMicrotaskERKNS_3jsi8FunctionE, symObjAddr: 0x1F74, symBinAddr: 0x8954, symSize: 0x120 }
  - { offsetInCU: 0x1018C8, offset: 0x1018C8, size: 0x8, addend: 0x0, symName: __ZNSt3__15dequeIPN6hermes2vm8CallableENS_9allocatorIS4_EEE9push_backERKS4_, symObjAddr: 0x8BC8, symBinAddr: 0xF5A0, symSize: 0x7C }
  - { offsetInCU: 0x101A27, offset: 0x101A27, size: 0x8, addend: 0x0, symName: __ZN8facebook6hermes17HermesRuntimeImpl15drainMicrotasksEi, symObjAddr: 0x2094, symBinAddr: 0x8A74, symSize: 0x48 }
  - { offsetInCU: 0x101AA2, offset: 0x101AA2, size: 0x8, addend: 0x0, symName: __ZN8facebook6hermes17HermesRuntimeImpl6globalEv, symObjAddr: 0x20DC, symBinAddr: 0x8ABC, symSize: 0x48 }
  - { offsetInCU: 0x101B3E, offset: 0x101B3E, size: 0x8, addend: 0x0, symName: __ZN8facebook6hermes17HermesRuntimeImpl6globalEv, symObjAddr: 0x20DC, symBinAddr: 0x8ABC, symSize: 0x48 }
  - { offsetInCU: 0x101C65, offset: 0x101C65, size: 0x8, addend: 0x0, symName: __ZN8facebook6hermes17HermesRuntimeImpl11descriptionEv, symObjAddr: 0x2124, symBinAddr: 0x8B04, symSize: 0xF8 }
  - { offsetInCU: 0x10232E, offset: 0x10232E, size: 0x8, addend: 0x0, symName: __ZN8facebook6hermes17HermesRuntimeImpl13isInspectableEv, symObjAddr: 0x221C, symBinAddr: 0x8BFC, symSize: 0x8 }
  - { offsetInCU: 0x102353, offset: 0x102353, size: 0x8, addend: 0x0, symName: __ZN8facebook6hermes17HermesRuntimeImpl15instrumentationEv, symObjAddr: 0x2224, symBinAddr: 0x8C04, symSize: 0x8 }
  - { offsetInCU: 0x10240B, offset: 0x10240B, size: 0x8, addend: 0x0, symName: __ZN8facebook6hermes17HermesRuntimeImpl11cloneSymbolEPKNS_3jsi7Runtime12PointerValueE, symObjAddr: 0x222C, symBinAddr: 0x8C0C, symSize: 0x20 }
  - { offsetInCU: 0x1024D6, offset: 0x1024D6, size: 0x8, addend: 0x0, symName: __ZN8facebook6hermes17HermesRuntimeImpl11cloneBigIntEPKNS_3jsi7Runtime12PointerValueE, symObjAddr: 0x224C, symBinAddr: 0x8C2C, symSize: 0x20 }
  - { offsetInCU: 0x1025A1, offset: 0x1025A1, size: 0x8, addend: 0x0, symName: __ZN8facebook6hermes17HermesRuntimeImpl11cloneStringEPKNS_3jsi7Runtime12PointerValueE, symObjAddr: 0x226C, symBinAddr: 0x8C4C, symSize: 0x20 }
  - { offsetInCU: 0x10266C, offset: 0x10266C, size: 0x8, addend: 0x0, symName: __ZN8facebook6hermes17HermesRuntimeImpl11cloneObjectEPKNS_3jsi7Runtime12PointerValueE, symObjAddr: 0x228C, symBinAddr: 0x8C6C, symSize: 0x20 }
  - { offsetInCU: 0x102737, offset: 0x102737, size: 0x8, addend: 0x0, symName: __ZN8facebook6hermes17HermesRuntimeImpl15clonePropNameIDEPKNS_3jsi7Runtime12PointerValueE, symObjAddr: 0x22AC, symBinAddr: 0x8C8C, symSize: 0x20 }
  - { offsetInCU: 0x102921, offset: 0x102921, size: 0x8, addend: 0x0, symName: __ZN8facebook6hermes17HermesRuntimeImpl25createPropNameIDFromAsciiEPKcm, symObjAddr: 0x22CC, symBinAddr: 0x8CAC, symSize: 0x114 }
  - { offsetInCU: 0x102C63, offset: 0x102C63, size: 0x8, addend: 0x0, symName: __ZN6hermes2vm15StringPrimitive13createNoThrowERNS0_7RuntimeEN4llvh9StringRefE, symObjAddr: 0x23E0, symBinAddr: 0x8DC0, symSize: 0xD4 }
  - { offsetInCU: 0x10332B, offset: 0x10332B, size: 0x8, addend: 0x0, symName: __ZNSt3__112basic_stringIcNS_11char_traitsIcEENS_9allocatorIcEEEC2B7v160006IPKcvEET_S9_, symObjAddr: 0x941C, symBinAddr: 0xFDF4, symSize: 0x98 }
  - { offsetInCU: 0x103580, offset: 0x103580, size: 0x8, addend: 0x0, symName: __ZNKSt3__112basic_stringIcNS_11char_traitsIcEENS_9allocatorIcEEE20__throw_length_errorB7v160006Ev, symObjAddr: 0x94B4, symBinAddr: 0xFE8C, symSize: 0x14 }
  - { offsetInCU: 0x10359E, offset: 0x10359E, size: 0x8, addend: 0x0, symName: __ZN8facebook6hermes17HermesRuntimeImpl24createPropNameIDFromUtf8EPKhm, symObjAddr: 0x24B4, symBinAddr: 0x8E94, symSize: 0x114 }
  - { offsetInCU: 0x103842, offset: 0x103842, size: 0x8, addend: 0x0, symName: __ZN8facebook6hermes17HermesRuntimeImpl16stringHVFromUtf8EPKhm, symObjAddr: 0x25C8, symBinAddr: 0x8FA8, symSize: 0x38 }
  - { offsetInCU: 0x1038D2, offset: 0x1038D2, size: 0x8, addend: 0x0, symName: __ZN8facebook6hermes17HermesRuntimeImpl26createPropNameIDFromStringERKNS_3jsi6StringE, symObjAddr: 0x2600, symBinAddr: 0x8FE0, symSize: 0x100 }
  - { offsetInCU: 0x1038E5, offset: 0x1038E5, size: 0x8, addend: 0x0, symName: __ZN8facebook6hermes17HermesRuntimeImpl26createPropNameIDFromStringERKNS_3jsi6StringE, symObjAddr: 0x2600, symBinAddr: 0x8FE0, symSize: 0x100 }
  - { offsetInCU: 0x103B9F, offset: 0x103B9F, size: 0x8, addend: 0x0, symName: __ZN8facebook6hermes17HermesRuntimeImpl26createPropNameIDFromSymbolERKNS_3jsi6SymbolE, symObjAddr: 0x2700, symBinAddr: 0x90E0, symSize: 0x40 }
  - { offsetInCU: 0x103CF3, offset: 0x103CF3, size: 0x8, addend: 0x0, symName: __ZN8facebook6hermes17HermesRuntimeImpl4utf8ERKNS_3jsi10PropNameIDE, symObjAddr: 0x2740, symBinAddr: 0x9120, symSize: 0xE8 }
  - { offsetInCU: 0x103EA1, offset: 0x103EA1, size: 0x8, addend: 0x0, symName: __ZN8facebook6hermes17HermesRuntimeImpl18utf8FromStringViewEN6hermes2vm10StringViewE, symObjAddr: 0x2828, symBinAddr: 0x9208, symSize: 0x88 }
  - { offsetInCU: 0x104152, offset: 0x104152, size: 0x8, addend: 0x0, symName: __ZNK6hermes2vm10StringView15castToChar16PtrEv, symObjAddr: 0x2940, symBinAddr: 0x9320, symSize: 0x74 }
  - { offsetInCU: 0x104426, offset: 0x104426, size: 0x8, addend: 0x0, symName: __ZNK6hermes2vm10StringView13castToCharPtrEv, symObjAddr: 0x28CC, symBinAddr: 0x92AC, symSize: 0x74 }
  - { offsetInCU: 0x10471C, offset: 0x10471C, size: 0x8, addend: 0x0, symName: __ZN8facebook6hermes17HermesRuntimeImpl7compareERKNS_3jsi10PropNameIDES5_, symObjAddr: 0x28B0, symBinAddr: 0x9290, symSize: 0x1C }
  - { offsetInCU: 0x10474E, offset: 0x10474E, size: 0x8, addend: 0x0, symName: __ZN8facebook6hermes17HermesRuntimeImpl7compareERKNS_3jsi10PropNameIDES5_, symObjAddr: 0x28B0, symBinAddr: 0x9290, symSize: 0x1C }
  - { offsetInCU: 0x10476C, offset: 0x10476C, size: 0x8, addend: 0x0, symName: __ZN8facebook6hermes17HermesRuntimeImpl7compareERKNS_3jsi10PropNameIDES5_, symObjAddr: 0x28B0, symBinAddr: 0x9290, symSize: 0x1C }
  - { offsetInCU: 0x104B56, offset: 0x104B56, size: 0x8, addend: 0x0, symName: __ZN8facebook6hermes17HermesRuntimeImpl18utf16FromErrorWhatERKSt9exceptionRN4llvh15SmallVectorImplItEE, symObjAddr: 0x29B4, symBinAddr: 0x9394, symSize: 0x74 }
  - { offsetInCU: 0x104C0C, offset: 0x104C0C, size: 0x8, addend: 0x0, symName: __ZN8facebook6hermes17HermesRuntimeImpl14symbolToStringERKNS_3jsi6SymbolE, symObjAddr: 0x2A28, symBinAddr: 0x9408, symSize: 0x100 }
  - { offsetInCU: 0x104E90, offset: 0x104E90, size: 0x8, addend: 0x0, symName: __ZN8facebook6hermes17HermesRuntimeImpl21createBigIntFromInt64Ex, symObjAddr: 0x2B28, symBinAddr: 0x9508, symSize: 0xF8 }
  - { offsetInCU: 0x105108, offset: 0x105108, size: 0x8, addend: 0x0, symName: __ZN6hermes2vm15BigIntPrimitive9fromBytesERNS0_7RuntimeEN4llvh8ArrayRefIhEE, symObjAddr: 0xC870, symBinAddr: 0x13248, symSize: 0x74 }
  - { offsetInCU: 0x1052E5, offset: 0x1052E5, size: 0x8, addend: 0x0, symName: __ZN8facebook6hermes17HermesRuntimeImpl22createBigIntFromUint64Ey, symObjAddr: 0x2C20, symBinAddr: 0x9600, symSize: 0xF8 }
  - { offsetInCU: 0x1055F4, offset: 0x1055F4, size: 0x8, addend: 0x0, symName: __ZN8facebook6hermes17HermesRuntimeImpl13bigintIsInt64ERKNS_3jsi6BigIntE, symObjAddr: 0x2D18, symBinAddr: 0x96F8, symSize: 0x1C }
  - { offsetInCU: 0x105627, offset: 0x105627, size: 0x8, addend: 0x0, symName: __ZN8facebook6hermes17HermesRuntimeImpl13bigintIsInt64ERKNS_3jsi6BigIntE, symObjAddr: 0x2D18, symBinAddr: 0x96F8, symSize: 0x1C }
  - { offsetInCU: 0x105645, offset: 0x105645, size: 0x8, addend: 0x0, symName: __ZN8facebook6hermes17HermesRuntimeImpl13bigintIsInt64ERKNS_3jsi6BigIntE, symObjAddr: 0x2D18, symBinAddr: 0x96F8, symSize: 0x1C }
  - { offsetInCU: 0x10573D, offset: 0x10573D, size: 0x8, addend: 0x0, symName: __ZN8facebook6hermes17HermesRuntimeImpl14bigintIsUint64ERKNS_3jsi6BigIntE, symObjAddr: 0x2D34, symBinAddr: 0x9714, symSize: 0x1C }
  - { offsetInCU: 0x105770, offset: 0x105770, size: 0x8, addend: 0x0, symName: __ZN8facebook6hermes17HermesRuntimeImpl14bigintIsUint64ERKNS_3jsi6BigIntE, symObjAddr: 0x2D34, symBinAddr: 0x9714, symSize: 0x1C }
  - { offsetInCU: 0x10578E, offset: 0x10578E, size: 0x8, addend: 0x0, symName: __ZN8facebook6hermes17HermesRuntimeImpl14bigintIsUint64ERKNS_3jsi6BigIntE, symObjAddr: 0x2D34, symBinAddr: 0x9714, symSize: 0x1C }
  - { offsetInCU: 0x10589C, offset: 0x10589C, size: 0x8, addend: 0x0, symName: __ZN8facebook6hermes17HermesRuntimeImpl8truncateERKNS_3jsi6BigIntE, symObjAddr: 0x2D50, symBinAddr: 0x9730, symSize: 0x24 }
  - { offsetInCU: 0x1058D0, offset: 0x1058D0, size: 0x8, addend: 0x0, symName: __ZN8facebook6hermes17HermesRuntimeImpl8truncateERKNS_3jsi6BigIntE, symObjAddr: 0x2D50, symBinAddr: 0x9730, symSize: 0x24 }
  - { offsetInCU: 0x1058EE, offset: 0x1058EE, size: 0x8, addend: 0x0, symName: __ZN8facebook6hermes17HermesRuntimeImpl8truncateERKNS_3jsi6BigIntE, symObjAddr: 0x2D50, symBinAddr: 0x9730, symSize: 0x24 }
  - { offsetInCU: 0x105A12, offset: 0x105A12, size: 0x8, addend: 0x0, symName: __ZN8facebook6hermes17HermesRuntimeImpl14bigintToStringERKNS_3jsi6BigIntEi, symObjAddr: 0x2D74, symBinAddr: 0x9754, symSize: 0x12C }
  - { offsetInCU: 0x105D06, offset: 0x105D06, size: 0x8, addend: 0x0, symName: __ZN8facebook6hermes17HermesRuntimeImpl23throwJSErrorWithMessageIJRA15_KcRiRA20_S3_EEEvDpOT_, symObjAddr: 0x2EA0, symBinAddr: 0x9880, symSize: 0x108 }
  - { offsetInCU: 0x1062C6, offset: 0x1062C6, size: 0x8, addend: 0x0, symName: __ZN4llvh11raw_ostreamlsENS_9StringRefE, symObjAddr: 0xCA9C, symBinAddr: 0x13474, symSize: 0x60 }
  - { offsetInCU: 0x10630D, offset: 0x10630D, size: 0x8, addend: 0x0, symName: __ZN8facebook6hermes17HermesRuntimeImpl21createStringFromAsciiEPKcm, symObjAddr: 0x2FA8, symBinAddr: 0x9988, symSize: 0xE8 }
  - { offsetInCU: 0x106518, offset: 0x106518, size: 0x8, addend: 0x0, symName: __ZN8facebook6hermes17HermesRuntimeImpl17stringHVFromAsciiEPKcm, symObjAddr: 0x3090, symBinAddr: 0x9A70, symSize: 0x34 }
  - { offsetInCU: 0x10659A, offset: 0x10659A, size: 0x8, addend: 0x0, symName: __ZN8facebook6hermes17HermesRuntimeImpl20createStringFromUtf8EPKhm, symObjAddr: 0x30C4, symBinAddr: 0x9AA4, symSize: 0xE8 }
  - { offsetInCU: 0x1065AD, offset: 0x1065AD, size: 0x8, addend: 0x0, symName: __ZN8facebook6hermes17HermesRuntimeImpl20createStringFromUtf8EPKhm, symObjAddr: 0x30C4, symBinAddr: 0x9AA4, symSize: 0xE8 }
  - { offsetInCU: 0x1067CD, offset: 0x1067CD, size: 0x8, addend: 0x0, symName: __ZN8facebook6hermes17HermesRuntimeImpl4utf8ERKNS_3jsi6StringE, symObjAddr: 0x31AC, symBinAddr: 0x9B8C, symSize: 0x38 }
  - { offsetInCU: 0x10690B, offset: 0x10690B, size: 0x8, addend: 0x0, symName: __ZN8facebook6hermes17HermesRuntimeImpl5utf16ERKNS_3jsi6StringE, symObjAddr: 0x31E4, symBinAddr: 0x9BC4, symSize: 0x68 }
  - { offsetInCU: 0x106AC5, offset: 0x106AC5, size: 0x8, addend: 0x0, symName: __ZNK6hermes2vm15StringPrimitive12getStringRefIcEEN4llvh8ArrayRefIT_EEv, symObjAddr: 0x324C, symBinAddr: 0x9C2C, symSize: 0x74 }
  - { offsetInCU: 0x106B1F, offset: 0x106B1F, size: 0x8, addend: 0x0, symName: __ZNK6hermes2vm15StringPrimitive12getStringRefIcEEN4llvh8ArrayRefIT_EEv, symObjAddr: 0x324C, symBinAddr: 0x9C2C, symSize: 0x74 }
  - { offsetInCU: 0x106B3D, offset: 0x106B3D, size: 0x8, addend: 0x0, symName: __ZNK6hermes2vm15StringPrimitive12getStringRefIcEEN4llvh8ArrayRefIT_EEv, symObjAddr: 0x324C, symBinAddr: 0x9C2C, symSize: 0x74 }
  - { offsetInCU: 0x106B5B, offset: 0x106B5B, size: 0x8, addend: 0x0, symName: __ZNK6hermes2vm15StringPrimitive12getStringRefIcEEN4llvh8ArrayRefIT_EEv, symObjAddr: 0x324C, symBinAddr: 0x9C2C, symSize: 0x74 }
  - { offsetInCU: 0x106EEA, offset: 0x106EEA, size: 0x8, addend: 0x0, symName: __ZNSt3__112basic_stringIDsNS_11char_traitsIDsEENS_9allocatorIDsEEEC2B7v160006IPKcvEET_S9_, symObjAddr: 0xCAFC, symBinAddr: 0x134D4, symSize: 0x90 }
  - { offsetInCU: 0x1070C2, offset: 0x1070C2, size: 0x8, addend: 0x0, symName: __ZN8facebook6hermes17HermesRuntimeImpl8JsiProxyD1Ev, symObjAddr: 0xCB8C, symBinAddr: 0x13564, symSize: 0x28 }
  - { offsetInCU: 0x1070E0, offset: 0x1070E0, size: 0x8, addend: 0x0, symName: __ZNK6hermes2vm15StringPrimitive12getStringRefIDsEEN4llvh8ArrayRefIT_EEv, symObjAddr: 0x32C0, symBinAddr: 0x9CA0, symSize: 0x74 }
  - { offsetInCU: 0x10713A, offset: 0x10713A, size: 0x8, addend: 0x0, symName: __ZNK6hermes2vm15StringPrimitive12getStringRefIDsEEN4llvh8ArrayRefIT_EEv, symObjAddr: 0x32C0, symBinAddr: 0x9CA0, symSize: 0x74 }
  - { offsetInCU: 0x107158, offset: 0x107158, size: 0x8, addend: 0x0, symName: __ZNK6hermes2vm15StringPrimitive12getStringRefIDsEEN4llvh8ArrayRefIT_EEv, symObjAddr: 0x32C0, symBinAddr: 0x9CA0, symSize: 0x74 }
  - { offsetInCU: 0x107176, offset: 0x107176, size: 0x8, addend: 0x0, symName: __ZNK6hermes2vm15StringPrimitive12getStringRefIDsEEN4llvh8ArrayRefIT_EEv, symObjAddr: 0x32C0, symBinAddr: 0x9CA0, symSize: 0x74 }
  - { offsetInCU: 0x107505, offset: 0x107505, size: 0x8, addend: 0x0, symName: __ZNSt3__112basic_stringIDsNS_11char_traitsIDsEENS_9allocatorIDsEEEC2B7v160006EPKDsm, symObjAddr: 0xADA0, symBinAddr: 0x11778, symSize: 0x8C }
  - { offsetInCU: 0x107819, offset: 0x107819, size: 0x8, addend: 0x0, symName: __ZNKSt3__112basic_stringIDsNS_11char_traitsIDsEENS_9allocatorIDsEEE20__throw_length_errorB7v160006Ev, symObjAddr: 0xAE2C, symBinAddr: 0x11804, symSize: 0x14 }
  - { offsetInCU: 0x10795F, offset: 0x10795F, size: 0x8, addend: 0x0, symName: __ZN8facebook6hermes17HermesRuntimeImpl5utf16ERKNS_3jsi10PropNameIDE, symObjAddr: 0x3334, symBinAddr: 0x9D14, symSize: 0x74 }
  - { offsetInCU: 0x107B4C, offset: 0x107B4C, size: 0x8, addend: 0x0, symName: __ZN8facebook6hermes17HermesRuntimeImpl13getStringDataERKNS_3jsi6StringEPvPFvS6_bPKvmE, symObjAddr: 0x33A8, symBinAddr: 0x9D88, symSize: 0x60 }
  - { offsetInCU: 0x107CF3, offset: 0x107CF3, size: 0x8, addend: 0x0, symName: __ZN8facebook6hermes17HermesRuntimeImpl17getPropNameIdDataERKNS_3jsi10PropNameIDEPvPFvS6_bPKvmE, symObjAddr: 0x3408, symBinAddr: 0x9DE8, symSize: 0x6C }
  - { offsetInCU: 0x107FF2, offset: 0x107FF2, size: 0x8, addend: 0x0, symName: __ZN8facebook6hermes17HermesRuntimeImpl23createValueFromJsonUtf8EPKhm, symObjAddr: 0x3474, symBinAddr: 0x9E54, symSize: 0x138 }
  - { offsetInCU: 0x1084F4, offset: 0x1084F4, size: 0x8, addend: 0x0, symName: __ZN8facebook6hermes17HermesRuntimeImpl12createObjectEv, symObjAddr: 0x35AC, symBinAddr: 0x9F8C, symSize: 0xD4 }
  - { offsetInCU: 0x108B98, offset: 0x108B98, size: 0x8, addend: 0x0, symName: __ZN8facebook6hermes17HermesRuntimeImpl12createObjectENSt3__110shared_ptrINS_3jsi10HostObjectEEE, symObjAddr: 0x3680, symBinAddr: 0xA060, symSize: 0x1E8 }
  - { offsetInCU: 0x109363, offset: 0x109363, size: 0x8, addend: 0x0, symName: __ZNSt3__110unique_ptrIN8facebook6hermes17HermesRuntimeImpl8JsiProxyENS_14default_deleteIS4_EEE5resetB7v160006EPS4_, symObjAddr: 0xD800, symBinAddr: 0x141D8, symSize: 0x40 }
  - { offsetInCU: 0x10947B, offset: 0x10947B, size: 0x8, addend: 0x0, symName: __ZN8facebook6hermes17HermesRuntimeImpl25createObjectWithPrototypeERKNS_3jsi5ValueE, symObjAddr: 0x3868, symBinAddr: 0xA248, symSize: 0xE8 }
  - { offsetInCU: 0x109853, offset: 0x109853, size: 0x8, addend: 0x0, symName: __ZN8facebook3jsi7JSErrorC1ERNS0_7RuntimeEPKc, symObjAddr: 0x3950, symBinAddr: 0xA330, symSize: 0x74 }
  - { offsetInCU: 0x109BBD, offset: 0x109BBD, size: 0x8, addend: 0x0, symName: __ZN8facebook6hermes17HermesRuntimeImpl13getHostObjectERKNS_3jsi6ObjectE, symObjAddr: 0x39C4, symBinAddr: 0xA3A4, symSize: 0x34 }
  - { offsetInCU: 0x109BF1, offset: 0x109BF1, size: 0x8, addend: 0x0, symName: __ZN8facebook6hermes17HermesRuntimeImpl13getHostObjectERKNS_3jsi6ObjectE, symObjAddr: 0x39C4, symBinAddr: 0xA3A4, symSize: 0x34 }
  - { offsetInCU: 0x109C0F, offset: 0x109C0F, size: 0x8, addend: 0x0, symName: __ZN8facebook6hermes17HermesRuntimeImpl13getHostObjectERKNS_3jsi6ObjectE, symObjAddr: 0x39C4, symBinAddr: 0xA3A4, symSize: 0x34 }
  - { offsetInCU: 0x109FC7, offset: 0x109FC7, size: 0x8, addend: 0x0, symName: __ZN8facebook6hermes17HermesRuntimeImpl14hasNativeStateERKNS_3jsi6ObjectE, symObjAddr: 0x39F8, symBinAddr: 0xA3D8, symSize: 0x120 }
  - { offsetInCU: 0x10A4DF, offset: 0x10A4DF, size: 0x8, addend: 0x0, symName: __ZN8facebook6hermes17HermesRuntimeImpl14setNativeStateERKNS_3jsi6ObjectENSt3__110shared_ptrINS2_11NativeStateEEE, symObjAddr: 0x3B18, symBinAddr: 0xA4F8, symSize: 0x330 }
  - { offsetInCU: 0x10AFA3, offset: 0x10AFA3, size: 0x8, addend: 0x0, symName: __ZNSt3__110shared_ptrIN8facebook3jsi11NativeStateEED2B7v160006Ev, symObjAddr: 0x953C, symBinAddr: 0xFF14, symSize: 0x58 }
  - { offsetInCU: 0x10B259, offset: 0x10B259, size: 0x8, addend: 0x0, symName: __ZN8facebook6hermes17HermesRuntimeImpl14getNativeStateERKNS_3jsi6ObjectE, symObjAddr: 0x3E6C, symBinAddr: 0xA84C, symSize: 0x180 }
  - { offsetInCU: 0x10BA2D, offset: 0x10BA2D, size: 0x8, addend: 0x0, symName: __ZN8facebook6hermes17HermesRuntimeImpl25setExternalMemoryPressureERKNS_3jsi6ObjectEm, symObjAddr: 0x3FEC, symBinAddr: 0xA9CC, symSize: 0x418 }
  - { offsetInCU: 0x10C9E1, offset: 0x10C9E1, size: 0x8, addend: 0x0, symName: __ZN8facebook6hermes17HermesRuntimeImpl14setPrototypeOfERKNS_3jsi6ObjectERKNS2_5ValueE, symObjAddr: 0x4404, symBinAddr: 0xADE4, symSize: 0xE4 }
  - { offsetInCU: 0x10CCFD, offset: 0x10CCFD, size: 0x8, addend: 0x0, symName: __ZN8facebook6hermes17HermesRuntimeImpl14getPrototypeOfERKNS_3jsi6ObjectE, symObjAddr: 0x44E8, symBinAddr: 0xAEC8, symSize: 0x68 }
  - { offsetInCU: 0x10CF90, offset: 0x10CF90, size: 0x8, addend: 0x0, symName: __ZN8facebook6hermes17HermesRuntimeImpl11getPropertyERKNS_3jsi6ObjectERKNS2_6StringE, symObjAddr: 0x4550, symBinAddr: 0xAF30, symSize: 0x100 }
  - { offsetInCU: 0x10CFD4, offset: 0x10CFD4, size: 0x8, addend: 0x0, symName: __ZN8facebook6hermes17HermesRuntimeImpl11getPropertyERKNS_3jsi6ObjectERKNS2_6StringE, symObjAddr: 0x4550, symBinAddr: 0xAF30, symSize: 0x100 }
  - { offsetInCU: 0x10D280, offset: 0x10D280, size: 0x8, addend: 0x0, symName: __ZN8facebook6hermes17HermesRuntimeImpl11getPropertyERKNS_3jsi6ObjectERKNS2_10PropNameIDE, symObjAddr: 0x4650, symBinAddr: 0xB030, symSize: 0xFC }
  - { offsetInCU: 0x10D4F1, offset: 0x10D4F1, size: 0x8, addend: 0x0, symName: __ZN8facebook6hermes17HermesRuntimeImpl11hasPropertyERKNS_3jsi6ObjectERKNS2_6StringE, symObjAddr: 0x474C, symBinAddr: 0xB12C, symSize: 0xF8 }
  - { offsetInCU: 0x10D751, offset: 0x10D751, size: 0x8, addend: 0x0, symName: __ZN8facebook6hermes17HermesRuntimeImpl11hasPropertyERKNS_3jsi6ObjectERKNS2_10PropNameIDE, symObjAddr: 0x4844, symBinAddr: 0xB224, symSize: 0xF4 }
  - { offsetInCU: 0x10D9F0, offset: 0x10D9F0, size: 0x8, addend: 0x0, symName: __ZN8facebook6hermes17HermesRuntimeImpl16setPropertyValueERKNS_3jsi6ObjectERKNS2_6StringERKNS2_5ValueE, symObjAddr: 0x4938, symBinAddr: 0xB318, symSize: 0x110 }
  - { offsetInCU: 0x10DC93, offset: 0x10DC93, size: 0x8, addend: 0x0, symName: __ZN8facebook6hermes17HermesRuntimeImpl16setPropertyValueERKNS_3jsi6ObjectERKNS2_10PropNameIDERKNS2_5ValueE, symObjAddr: 0x4A48, symBinAddr: 0xB428, symSize: 0x110 }
  - { offsetInCU: 0x10DF61, offset: 0x10DF61, size: 0x8, addend: 0x0, symName: __ZNK8facebook6hermes17HermesRuntimeImpl7isArrayERKNS_3jsi6ObjectE, symObjAddr: 0x4B58, symBinAddr: 0xB538, symSize: 0x30 }
  - { offsetInCU: 0x10DF8B, offset: 0x10DF8B, size: 0x8, addend: 0x0, symName: __ZNK8facebook6hermes17HermesRuntimeImpl7isArrayERKNS_3jsi6ObjectE, symObjAddr: 0x4B58, symBinAddr: 0xB538, symSize: 0x30 }
  - { offsetInCU: 0x10DFA9, offset: 0x10DFA9, size: 0x8, addend: 0x0, symName: __ZNK8facebook6hermes17HermesRuntimeImpl7isArrayERKNS_3jsi6ObjectE, symObjAddr: 0x4B58, symBinAddr: 0xB538, symSize: 0x30 }
  - { offsetInCU: 0x10E14A, offset: 0x10E14A, size: 0x8, addend: 0x0, symName: __ZNK8facebook6hermes17HermesRuntimeImpl13isArrayBufferERKNS_3jsi6ObjectE, symObjAddr: 0x4B88, symBinAddr: 0xB568, symSize: 0x30 }
  - { offsetInCU: 0x10E174, offset: 0x10E174, size: 0x8, addend: 0x0, symName: __ZNK8facebook6hermes17HermesRuntimeImpl13isArrayBufferERKNS_3jsi6ObjectE, symObjAddr: 0x4B88, symBinAddr: 0xB568, symSize: 0x30 }
  - { offsetInCU: 0x10E192, offset: 0x10E192, size: 0x8, addend: 0x0, symName: __ZNK8facebook6hermes17HermesRuntimeImpl13isArrayBufferERKNS_3jsi6ObjectE, symObjAddr: 0x4B88, symBinAddr: 0xB568, symSize: 0x30 }
  - { offsetInCU: 0x10E332, offset: 0x10E332, size: 0x8, addend: 0x0, symName: __ZNK8facebook6hermes17HermesRuntimeImpl10isFunctionERKNS_3jsi6ObjectE, symObjAddr: 0x4BB8, symBinAddr: 0xB598, symSize: 0x3C }
  - { offsetInCU: 0x10E35C, offset: 0x10E35C, size: 0x8, addend: 0x0, symName: __ZNK8facebook6hermes17HermesRuntimeImpl10isFunctionERKNS_3jsi6ObjectE, symObjAddr: 0x4BB8, symBinAddr: 0xB598, symSize: 0x3C }
  - { offsetInCU: 0x10E37A, offset: 0x10E37A, size: 0x8, addend: 0x0, symName: __ZNK8facebook6hermes17HermesRuntimeImpl10isFunctionERKNS_3jsi6ObjectE, symObjAddr: 0x4BB8, symBinAddr: 0xB598, symSize: 0x3C }
  - { offsetInCU: 0x10E54E, offset: 0x10E54E, size: 0x8, addend: 0x0, symName: __ZNK8facebook6hermes17HermesRuntimeImpl12isHostObjectERKNS_3jsi6ObjectE, symObjAddr: 0x4BF4, symBinAddr: 0xB5D4, symSize: 0x30 }
  - { offsetInCU: 0x10E578, offset: 0x10E578, size: 0x8, addend: 0x0, symName: __ZNK8facebook6hermes17HermesRuntimeImpl12isHostObjectERKNS_3jsi6ObjectE, symObjAddr: 0x4BF4, symBinAddr: 0xB5D4, symSize: 0x30 }
  - { offsetInCU: 0x10E596, offset: 0x10E596, size: 0x8, addend: 0x0, symName: __ZNK8facebook6hermes17HermesRuntimeImpl12isHostObjectERKNS_3jsi6ObjectE, symObjAddr: 0x4BF4, symBinAddr: 0xB5D4, symSize: 0x30 }
  - { offsetInCU: 0x10E736, offset: 0x10E736, size: 0x8, addend: 0x0, symName: __ZNK8facebook6hermes17HermesRuntimeImpl14isHostFunctionERKNS_3jsi8FunctionE, symObjAddr: 0x4C24, symBinAddr: 0xB604, symSize: 0x30 }
  - { offsetInCU: 0x10E760, offset: 0x10E760, size: 0x8, addend: 0x0, symName: __ZNK8facebook6hermes17HermesRuntimeImpl14isHostFunctionERKNS_3jsi8FunctionE, symObjAddr: 0x4C24, symBinAddr: 0xB604, symSize: 0x30 }
  - { offsetInCU: 0x10E77E, offset: 0x10E77E, size: 0x8, addend: 0x0, symName: __ZNK8facebook6hermes17HermesRuntimeImpl14isHostFunctionERKNS_3jsi8FunctionE, symObjAddr: 0x4C24, symBinAddr: 0xB604, symSize: 0x30 }
  - { offsetInCU: 0x10EC53, offset: 0x10EC53, size: 0x8, addend: 0x0, symName: __ZN8facebook6hermes17HermesRuntimeImpl16getPropertyNamesERKNS_3jsi6ObjectE, symObjAddr: 0x4C54, symBinAddr: 0xB634, symSize: 0x2F8 }
  - { offsetInCU: 0x10F84A, offset: 0x10F84A, size: 0x8, addend: 0x0, symName: __ZN8facebook6hermes17HermesRuntimeImpl11createArrayEm, symObjAddr: 0x4F4C, symBinAddr: 0xB92C, symSize: 0xFC }
  - { offsetInCU: 0x10FA9D, offset: 0x10FA9D, size: 0x8, addend: 0x0, symName: __ZNK8facebook3jsi5Array15setValueAtIndexINS0_6StringEEEvRNS0_7RuntimeEmOT_, symObjAddr: 0x5048, symBinAddr: 0xBA28, symSize: 0x90 }
  - { offsetInCU: 0x10FF4E, offset: 0x10FF4E, size: 0x8, addend: 0x0, symName: __ZN8facebook6hermes17HermesRuntimeImpl16createWeakObjectERKNS_3jsi6ObjectE, symObjAddr: 0x50D8, symBinAddr: 0xBAB8, symSize: 0x5C }
  - { offsetInCU: 0x110231, offset: 0x110231, size: 0x8, addend: 0x0, symName: __ZN6hermes18ManagedChunkedListIN8facebook6hermes17HermesRuntimeImpl12ManagedValueINS_2vm8WeakRootINS5_8JSObjectEEEEELm16EE3addIJRS8_EEERS9_DpOT_, symObjAddr: 0x959C, symBinAddr: 0xFF74, symSize: 0x74 }
  - { offsetInCU: 0x110469, offset: 0x110469, size: 0x8, addend: 0x0, symName: __ZN8facebook6hermes17HermesRuntimeImpl14lockWeakObjectERKNS_3jsi10WeakObjectE, symObjAddr: 0x5134, symBinAddr: 0xBB14, symSize: 0x8C }
  - { offsetInCU: 0x1109EA, offset: 0x1109EA, size: 0x8, addend: 0x0, symName: __ZN8facebook6hermes17HermesRuntimeImpl17createArrayBufferENSt3__110shared_ptrINS_3jsi13MutableBufferEEE, symObjAddr: 0x51C0, symBinAddr: 0xBBA0, symSize: 0x194 }
  - { offsetInCU: 0x111077, offset: 0x111077, size: 0x8, addend: 0x0, symName: __ZN8facebook6hermes17HermesRuntimeImpl4sizeERKNS_3jsi5ArrayE, symObjAddr: 0x5354, symBinAddr: 0xBD34, symSize: 0x50 }
  - { offsetInCU: 0x1110A5, offset: 0x1110A5, size: 0x8, addend: 0x0, symName: __ZN8facebook6hermes17HermesRuntimeImpl4sizeERKNS_3jsi5ArrayE, symObjAddr: 0x5354, symBinAddr: 0xBD34, symSize: 0x50 }
  - { offsetInCU: 0x1110C3, offset: 0x1110C3, size: 0x8, addend: 0x0, symName: __ZN8facebook6hermes17HermesRuntimeImpl4sizeERKNS_3jsi5ArrayE, symObjAddr: 0x5354, symBinAddr: 0xBD34, symSize: 0x50 }
  - { offsetInCU: 0x1110E1, offset: 0x1110E1, size: 0x8, addend: 0x0, symName: __ZN8facebook6hermes17HermesRuntimeImpl4sizeERKNS_3jsi5ArrayE, symObjAddr: 0x5354, symBinAddr: 0xBD34, symSize: 0x50 }
  - { offsetInCU: 0x111327, offset: 0x111327, size: 0x8, addend: 0x0, symName: __ZN8facebook6hermes17HermesRuntimeImpl4sizeERKNS_3jsi11ArrayBufferE, symObjAddr: 0x53A4, symBinAddr: 0xBD84, symSize: 0x108 }
  - { offsetInCU: 0x11176C, offset: 0x11176C, size: 0x8, addend: 0x0, symName: __ZN8facebook6hermes17HermesRuntimeImpl4dataERKNS_3jsi11ArrayBufferE, symObjAddr: 0x54AC, symBinAddr: 0xBE8C, symSize: 0x12C }
  - { offsetInCU: 0x111C24, offset: 0x111C24, size: 0x8, addend: 0x0, symName: __ZN8facebook6hermes17HermesRuntimeImpl15getValueAtIndexERKNS_3jsi5ArrayEm, symObjAddr: 0x55D8, symBinAddr: 0xBFB8, symSize: 0x1B4 }
  - { offsetInCU: 0x1121FD, offset: 0x1121FD, size: 0x8, addend: 0x0, symName: __ZN8facebook6hermes17HermesRuntimeImpl23throwJSErrorWithMessageIJRA24_KcRmRA23_S3_mRA2_S3_EEEvDpOT_, symObjAddr: 0x578C, symBinAddr: 0xC16C, symSize: 0x138 }
  - { offsetInCU: 0x11285B, offset: 0x11285B, size: 0x8, addend: 0x0, symName: __ZN8facebook6hermes17HermesRuntimeImpl19setValueAtIndexImplERKNS_3jsi5ArrayEmRKNS2_5ValueE, symObjAddr: 0x58C4, symBinAddr: 0xC2A4, symSize: 0x1C4 }
  - { offsetInCU: 0x1130F5, offset: 0x1130F5, size: 0x8, addend: 0x0, symName: __ZN8facebook6hermes17HermesRuntimeImpl30createFunctionFromHostFunctionERKNS_3jsi10PropNameIDEjNSt3__18functionIFNS2_5ValueERNS2_7RuntimeERKS8_PSB_mEEE, symObjAddr: 0x5A88, symBinAddr: 0xC468, symSize: 0x114 }
  - { offsetInCU: 0x113561, offset: 0x113561, size: 0x8, addend: 0x0, symName: __ZNSt3__110__function12__value_funcIFN8facebook3jsi5ValueERNS3_7RuntimeERKS4_PS7_mEEC2B7v160006EOSB_, symObjAddr: 0xD840, symBinAddr: 0x14218, symSize: 0x64 }
  - { offsetInCU: 0x1135B1, offset: 0x1135B1, size: 0x8, addend: 0x0, symName: __ZN8facebook6hermes17HermesRuntimeImpl30createFunctionFromHostFunctionINS1_9HFContextEEENS_3jsi8FunctionEPT_RKNS4_10PropNameIDEj, symObjAddr: 0x5B9C, symBinAddr: 0xC57C, symSize: 0x11C }
  - { offsetInCU: 0x1138A0, offset: 0x1138A0, size: 0x8, addend: 0x0, symName: __ZNSt3__110unique_ptrIN8facebook6hermes17HermesRuntimeImpl9HFContextENS_14default_deleteIS4_EEE5resetB7v160006EPS4_, symObjAddr: 0xD8A4, symBinAddr: 0x1427C, symSize: 0x60 }
  - { offsetInCU: 0x113A6C, offset: 0x113A6C, size: 0x8, addend: 0x0, symName: __ZN8facebook6hermes17HermesRuntimeImpl15getHostFunctionERKNS_3jsi8FunctionE, symObjAddr: 0x5CB8, symBinAddr: 0xC698, symSize: 0x14 }
  - { offsetInCU: 0x113A96, offset: 0x113A96, size: 0x8, addend: 0x0, symName: __ZN8facebook6hermes17HermesRuntimeImpl15getHostFunctionERKNS_3jsi8FunctionE, symObjAddr: 0x5CB8, symBinAddr: 0xC698, symSize: 0x14 }
  - { offsetInCU: 0x113AB4, offset: 0x113AB4, size: 0x8, addend: 0x0, symName: __ZN8facebook6hermes17HermesRuntimeImpl15getHostFunctionERKNS_3jsi8FunctionE, symObjAddr: 0x5CB8, symBinAddr: 0xC698, symSize: 0x14 }
  - { offsetInCU: 0x113D9D, offset: 0x113D9D, size: 0x8, addend: 0x0, symName: __ZN8facebook6hermes17HermesRuntimeImpl4callERKNS_3jsi8FunctionERKNS2_5ValueEPS7_m, symObjAddr: 0x5CCC, symBinAddr: 0xC6AC, symSize: 0x26C }
  - { offsetInCU: 0x1145EC, offset: 0x1145EC, size: 0x8, addend: 0x0, symName: __ZN6hermes2vm21ScopedNativeCallFrameC2ERNS0_7RuntimeEjNS0_11HermesValueES4_S4_, symObjAddr: 0x985C, symBinAddr: 0x10234, symSize: 0xA4 }
  - { offsetInCU: 0x11499A, offset: 0x11499A, size: 0x8, addend: 0x0, symName: __ZN8facebook6hermes17HermesRuntimeImpl17callAsConstructorERKNS_3jsi8FunctionEPKNS2_5ValueEm, symObjAddr: 0x5F38, symBinAddr: 0xC918, symSize: 0x2B4 }
  - { offsetInCU: 0x1153CF, offset: 0x1153CF, size: 0x8, addend: 0x0, symName: __ZNK8facebook6hermes17HermesRuntimeImpl12strictEqualsERKNS_3jsi6SymbolES5_, symObjAddr: 0x61EC, symBinAddr: 0xCBCC, symSize: 0x1C }
  - { offsetInCU: 0x115401, offset: 0x115401, size: 0x8, addend: 0x0, symName: __ZNK8facebook6hermes17HermesRuntimeImpl12strictEqualsERKNS_3jsi6SymbolES5_, symObjAddr: 0x61EC, symBinAddr: 0xCBCC, symSize: 0x1C }
  - { offsetInCU: 0x11541F, offset: 0x11541F, size: 0x8, addend: 0x0, symName: __ZNK8facebook6hermes17HermesRuntimeImpl12strictEqualsERKNS_3jsi6SymbolES5_, symObjAddr: 0x61EC, symBinAddr: 0xCBCC, symSize: 0x1C }
  - { offsetInCU: 0x1154FD, offset: 0x1154FD, size: 0x8, addend: 0x0, symName: __ZNK8facebook6hermes17HermesRuntimeImpl12strictEqualsERKNS_3jsi6BigIntES5_, symObjAddr: 0x6208, symBinAddr: 0xCBE8, symSize: 0x44 }
  - { offsetInCU: 0x11571D, offset: 0x11571D, size: 0x8, addend: 0x0, symName: __ZNK8facebook6hermes17HermesRuntimeImpl12strictEqualsERKNS_3jsi6StringES5_, symObjAddr: 0x624C, symBinAddr: 0xCC2C, symSize: 0x1C }
  - { offsetInCU: 0x115751, offset: 0x115751, size: 0x8, addend: 0x0, symName: __ZNK8facebook6hermes17HermesRuntimeImpl12strictEqualsERKNS_3jsi6StringES5_, symObjAddr: 0x624C, symBinAddr: 0xCC2C, symSize: 0x1C }
  - { offsetInCU: 0x11576F, offset: 0x11576F, size: 0x8, addend: 0x0, symName: __ZNK8facebook6hermes17HermesRuntimeImpl12strictEqualsERKNS_3jsi6StringES5_, symObjAddr: 0x624C, symBinAddr: 0xCC2C, symSize: 0x1C }
  - { offsetInCU: 0x115864, offset: 0x115864, size: 0x8, addend: 0x0, symName: __ZNK8facebook6hermes17HermesRuntimeImpl12strictEqualsERKNS_3jsi6ObjectES5_, symObjAddr: 0x6268, symBinAddr: 0xCC48, symSize: 0x1C }
  - { offsetInCU: 0x115896, offset: 0x115896, size: 0x8, addend: 0x0, symName: __ZNK8facebook6hermes17HermesRuntimeImpl12strictEqualsERKNS_3jsi6ObjectES5_, symObjAddr: 0x6268, symBinAddr: 0xCC48, symSize: 0x1C }
  - { offsetInCU: 0x1158B4, offset: 0x1158B4, size: 0x8, addend: 0x0, symName: __ZNK8facebook6hermes17HermesRuntimeImpl12strictEqualsERKNS_3jsi6ObjectES5_, symObjAddr: 0x6268, symBinAddr: 0xCC48, symSize: 0x1C }
  - { offsetInCU: 0x115951, offset: 0x115951, size: 0x8, addend: 0x0, symName: __ZN8facebook6hermes17HermesRuntimeImpl10instanceOfERKNS_3jsi6ObjectERKNS2_8FunctionE, symObjAddr: 0x6284, symBinAddr: 0xCC64, symSize: 0xF8 }
  - { offsetInCU: 0x115BAE, offset: 0x115BAE, size: 0x8, addend: 0x0, symName: __ZN8facebook6hermes17HermesRuntimeImpl9pushScopeEv, symObjAddr: 0x637C, symBinAddr: 0xCD5C, symSize: 0x8 }
  - { offsetInCU: 0x115BD3, offset: 0x115BD3, size: 0x8, addend: 0x0, symName: __ZN8facebook6hermes17HermesRuntimeImpl8popScopeEPNS_3jsi7Runtime10ScopeStateE, symObjAddr: 0x6384, symBinAddr: 0xCD64, symSize: 0x4 }
  - { offsetInCU: 0x115CEB, offset: 0x115CEB, size: 0x8, addend: 0x0, symName: '__ZZN8facebook6hermes17HermesRuntimeImpl17throwPendingErrorEvENK3$_3clEN6hermes2vm8SymbolIDERNSt3__112basic_stringIcNS6_11char_traitsIcEENS6_9allocatorIcEEEE', symObjAddr: 0x6628, symBinAddr: 0xD008, symSize: 0x1D4 }
  - { offsetInCU: 0x1168C0, offset: 0x1168C0, size: 0x8, addend: 0x0, symName: __ZN6hermes2vm13RuntimeConfigC1Ev, symObjAddr: 0x9988, symBinAddr: 0x10360, symSize: 0x164 }
  - { offsetInCU: 0x116CEC, offset: 0x116CEC, size: 0x8, addend: 0x0, symName: __ZN6hermes2vm13RuntimeConfigC2ERKS1_, symObjAddr: 0x9C10, symBinAddr: 0x105E8, symSize: 0x160 }
  - { offsetInCU: 0x1172BE, offset: 0x1172BE, size: 0x8, addend: 0x0, symName: __ZN6hermes2vm13RuntimeConfig7BuilderD1Ev, symObjAddr: 0x69A4, symBinAddr: 0xD384, symSize: 0xC8 }
  - { offsetInCU: 0x1176D8, offset: 0x1176D8, size: 0x8, addend: 0x0, symName: __ZNSt3__110shared_ptrIN6hermes2vm12CrashManagerEED2B7v160006Ev, symObjAddr: 0x9E9C, symBinAddr: 0x10874, symSize: 0x58 }
  - { offsetInCU: 0x117B65, offset: 0x117B65, size: 0x8, addend: 0x0, symName: __ZNSt3__110unique_ptrIN8facebook6hermes8debugger8DebuggerENS_14default_deleteIS4_EEE5resetB7v160006EPS4_, symObjAddr: 0x9EF4, symBinAddr: 0x108CC, symSize: 0x2C }
  - { offsetInCU: 0x117CBF, offset: 0x117CBF, size: 0x8, addend: 0x0, symName: __ZN8facebook6hermes17HermesRuntimeImplD2Ev, symObjAddr: 0xA020, symBinAddr: 0x109F8, symSize: 0x44 }
  - { offsetInCU: 0x11836C, offset: 0x11836C, size: 0x8, addend: 0x0, symName: __ZNSt3__110unique_ptrIN8facebook3jsi6detail21ThreadSafeRuntimeImplINS1_6hermes17HermesRuntimeImplENS5_12_GLOBAL__N_111HermesMutexEEENS_14default_deleteIS9_EEED1B7v160006Ev, symObjAddr: 0x6BD4, symBinAddr: 0xD5B4, symSize: 0x48 }
  - { offsetInCU: 0x118567, offset: 0x118567, size: 0x8, addend: 0x0, symName: __ZN8facebook3jsi6detail21ThreadSafeRuntimeImplINS_6hermes17HermesRuntimeImplENS3_12_GLOBAL__N_111HermesMutexEE16getUnsafeRuntimeEv, symObjAddr: 0x6BCC, symBinAddr: 0xD5AC, symSize: 0x8 }
  - { offsetInCU: 0x11858D, offset: 0x11858D, size: 0x8, addend: 0x0, symName: __ZN8facebook3jsi6detail21ThreadSafeRuntimeImplINS_6hermes17HermesRuntimeImplENS3_12_GLOBAL__N_111HermesMutexEE16getUnsafeRuntimeEv, symObjAddr: 0x6BCC, symBinAddr: 0xD5AC, symSize: 0x8 }
  - { offsetInCU: 0x1186C9, offset: 0x1186C9, size: 0x8, addend: 0x0, symName: __ZN8facebook6hermes17HermesRuntimeImplD1Ev, symObjAddr: 0x6C1C, symBinAddr: 0xD5FC, symSize: 0x4 }
  - { offsetInCU: 0x1186ED, offset: 0x1186ED, size: 0x8, addend: 0x0, symName: __ZN8facebook6hermes17HermesRuntimeImplD1Ev, symObjAddr: 0x6C1C, symBinAddr: 0xD5FC, symSize: 0x4 }
  - { offsetInCU: 0x118701, offset: 0x118701, size: 0x8, addend: 0x0, symName: __ZN8facebook6hermes17HermesRuntimeImplD0Ev, symObjAddr: 0x6C20, symBinAddr: 0xD600, symSize: 0x14 }
  - { offsetInCU: 0x118765, offset: 0x118765, size: 0x8, addend: 0x0, symName: __ZN8facebook6hermes17HermesRuntimeImpl18getRecordedGCStatsEv, symObjAddr: 0x6C34, symBinAddr: 0xD614, symSize: 0xBC }
  - { offsetInCU: 0x118EF8, offset: 0x118EF8, size: 0x8, addend: 0x0, symName: __ZN8facebook6hermes17HermesRuntimeImpl11getHeapInfoEb, symObjAddr: 0x6CF0, symBinAddr: 0xD6D0, symSize: 0x9BC }
  - { offsetInCU: 0x11C22E, offset: 0x11C22E, size: 0x8, addend: 0x0, symName: __ZNSt3__112__hash_tableINS_17__hash_value_typeINS_12basic_stringIcNS_11char_traitsIcEENS_9allocatorIcEEEExEENS_22__unordered_map_hasherIS7_S8_NS_4hashIS7_EENS_8equal_toIS7_EELb1EEENS_21__unordered_map_equalIS7_S8_SD_SB_Lb1EEENS5_IS8_EEE25__emplace_unique_key_argsIS7_JRKNS_21piecewise_construct_tENS_5tupleIJOS7_EEENSN_IJEEEEEENS_4pairINS_15__hash_iteratorIPNS_11__hash_nodeIS8_PvEEEEbEERKT_DpOT0_, symObjAddr: 0xA16C, symBinAddr: 0x10B44, symSize: 0x284 }
  - { offsetInCU: 0x11C9DE, offset: 0x11C9DE, size: 0x8, addend: 0x0, symName: __ZNSt3__112__hash_tableINS_17__hash_value_typeINS_12basic_stringIcNS_11char_traitsIcEENS_9allocatorIcEEEExEENS_22__unordered_map_hasherIS7_S8_NS_4hashIS7_EENS_8equal_toIS7_EELb1EEENS_21__unordered_map_equalIS7_S8_SD_SB_Lb1EEENS5_IS8_EEED2Ev, symObjAddr: 0xAC18, symBinAddr: 0x115F0, symSize: 0x38 }
  - { offsetInCU: 0x11CC1B, offset: 0x11CC1B, size: 0x8, addend: 0x0, symName: __ZN8facebook6hermes17HermesRuntimeImpl14collectGarbageENSt3__112basic_stringIcNS2_11char_traitsIcEENS2_9allocatorIcEEEE, symObjAddr: 0x76AC, symBinAddr: 0xE08C, symSize: 0x104 }
  - { offsetInCU: 0x11D0B4, offset: 0x11D0B4, size: 0x8, addend: 0x0, symName: __ZN6hermes2vm7Runtime7collectENSt3__112basic_stringIcNS2_11char_traitsIcEENS2_9allocatorIcEEEE, symObjAddr: 0xAC94, symBinAddr: 0x1166C, symSize: 0x78 }
  - { offsetInCU: 0x11D3EE, offset: 0x11D3EE, size: 0x8, addend: 0x0, symName: __ZN8facebook6hermes17HermesRuntimeImpl34startTrackingHeapObjectStackTracesENSt3__18functionIFvyNS2_6chrono8durationIxNS2_5ratioILl1ELl1000000EEEEENS2_6vectorINS2_5tupleIJyyyEEENS2_9allocatorISB_EEEEEEE, symObjAddr: 0x77B0, symBinAddr: 0xE190, symSize: 0x50 }
  - { offsetInCU: 0x11D426, offset: 0x11D426, size: 0x8, addend: 0x0, symName: __ZN8facebook6hermes17HermesRuntimeImpl33stopTrackingHeapObjectStackTracesEv, symObjAddr: 0x7800, symBinAddr: 0xE1E0, symSize: 0x50 }
  - { offsetInCU: 0x11D44D, offset: 0x11D44D, size: 0x8, addend: 0x0, symName: __ZN8facebook6hermes17HermesRuntimeImpl17startHeapSamplingEm, symObjAddr: 0x7850, symBinAddr: 0xE230, symSize: 0x50 }
  - { offsetInCU: 0x11D485, offset: 0x11D485, size: 0x8, addend: 0x0, symName: __ZN8facebook6hermes17HermesRuntimeImpl16stopHeapSamplingERNSt3__113basic_ostreamIcNS2_11char_traitsIcEEEE, symObjAddr: 0x78A0, symBinAddr: 0xE280, symSize: 0x50 }
  - { offsetInCU: 0x11D4BD, offset: 0x11D4BD, size: 0x8, addend: 0x0, symName: __ZN8facebook6hermes17HermesRuntimeImpl20createSnapshotToFileERKNSt3__112basic_stringIcNS2_11char_traitsIcEENS2_9allocatorIcEEEERKNS_3jsi15Instrumentation19HeapSnapshotOptionsE, symObjAddr: 0x78F0, symBinAddr: 0xE2D0, symSize: 0x50 }
  - { offsetInCU: 0x11D506, offset: 0x11D506, size: 0x8, addend: 0x0, symName: __ZN8facebook6hermes17HermesRuntimeImpl22createSnapshotToStreamERNSt3__113basic_ostreamIcNS2_11char_traitsIcEEEERKNS_3jsi15Instrumentation19HeapSnapshotOptionsE, symObjAddr: 0x7940, symBinAddr: 0xE320, symSize: 0x50 }
  - { offsetInCU: 0x11D54F, offset: 0x11D54F, size: 0x8, addend: 0x0, symName: __ZN8facebook6hermes17HermesRuntimeImpl33flushAndDisableBridgeTrafficTraceEv, symObjAddr: 0x7990, symBinAddr: 0xE370, symSize: 0x50 }
  - { offsetInCU: 0x11D576, offset: 0x11D576, size: 0x8, addend: 0x0, symName: __ZNK8facebook6hermes17HermesRuntimeImpl33writeBasicBlockProfileTraceToFileERKNSt3__112basic_stringIcNS2_11char_traitsIcEENS2_9allocatorIcEEEE, symObjAddr: 0x79E0, symBinAddr: 0xE3C0, symSize: 0x50 }
  - { offsetInCU: 0x11D5AE, offset: 0x11D5AE, size: 0x8, addend: 0x0, symName: __ZNK8facebook6hermes17HermesRuntimeImpl25dumpProfilerSymbolsToFileERKNSt3__112basic_stringIcNS2_11char_traitsIcEENS2_9allocatorIcEEEE, symObjAddr: 0x7A30, symBinAddr: 0xE410, symSize: 0x50 }
  - { offsetInCU: 0x11D5E6, offset: 0x11D5E6, size: 0x8, addend: 0x0, symName: __ZThn8_N8facebook6hermes17HermesRuntimeImplD1Ev, symObjAddr: 0x7A80, symBinAddr: 0xE460, symSize: 0x8 }
  - { offsetInCU: 0x11D642, offset: 0x11D642, size: 0x8, addend: 0x0, symName: __ZThn8_N8facebook6hermes17HermesRuntimeImplD0Ev, symObjAddr: 0x7A88, symBinAddr: 0xE468, symSize: 0x18 }
  - { offsetInCU: 0x11D6B0, offset: 0x11D6B0, size: 0x8, addend: 0x0, symName: __ZThn8_N8facebook6hermes17HermesRuntimeImpl18getRecordedGCStatsEv, symObjAddr: 0x7AA0, symBinAddr: 0xE480, symSize: 0x8 }
  - { offsetInCU: 0x11D6DF, offset: 0x11D6DF, size: 0x8, addend: 0x0, symName: __ZThn8_N8facebook6hermes17HermesRuntimeImpl11getHeapInfoEb, symObjAddr: 0x7AA8, symBinAddr: 0xE488, symSize: 0x8 }
  - { offsetInCU: 0x11D716, offset: 0x11D716, size: 0x8, addend: 0x0, symName: __ZThn8_N8facebook6hermes17HermesRuntimeImpl14collectGarbageENSt3__112basic_stringIcNS2_11char_traitsIcEENS2_9allocatorIcEEEE, symObjAddr: 0x7AB0, symBinAddr: 0xE490, symSize: 0x8 }
  - { offsetInCU: 0x11D745, offset: 0x11D745, size: 0x8, addend: 0x0, symName: __ZThn8_N8facebook6hermes17HermesRuntimeImpl34startTrackingHeapObjectStackTracesENSt3__18functionIFvyNS2_6chrono8durationIxNS2_5ratioILl1ELl1000000EEEEENS2_6vectorINS2_5tupleIJyyyEEENS2_9allocatorISB_EEEEEEE, symObjAddr: 0x7AB8, symBinAddr: 0xE498, symSize: 0x8 }
  - { offsetInCU: 0x11D774, offset: 0x11D774, size: 0x8, addend: 0x0, symName: __ZThn8_N8facebook6hermes17HermesRuntimeImpl33stopTrackingHeapObjectStackTracesEv, symObjAddr: 0x7AC0, symBinAddr: 0xE4A0, symSize: 0x8 }
  - { offsetInCU: 0x11D79A, offset: 0x11D79A, size: 0x8, addend: 0x0, symName: __ZThn8_N8facebook6hermes17HermesRuntimeImpl17startHeapSamplingEm, symObjAddr: 0x7AC8, symBinAddr: 0xE4A8, symSize: 0x8 }
  - { offsetInCU: 0x11D7C9, offset: 0x11D7C9, size: 0x8, addend: 0x0, symName: __ZThn8_N8facebook6hermes17HermesRuntimeImpl16stopHeapSamplingERNSt3__113basic_ostreamIcNS2_11char_traitsIcEEEE, symObjAddr: 0x7AD0, symBinAddr: 0xE4B0, symSize: 0x8 }
  - { offsetInCU: 0x11D7F8, offset: 0x11D7F8, size: 0x8, addend: 0x0, symName: __ZThn8_N8facebook6hermes17HermesRuntimeImpl20createSnapshotToFileERKNSt3__112basic_stringIcNS2_11char_traitsIcEENS2_9allocatorIcEEEERKNS_3jsi15Instrumentation19HeapSnapshotOptionsE, symObjAddr: 0x7AD8, symBinAddr: 0xE4B8, symSize: 0x8 }
  - { offsetInCU: 0x11D82F, offset: 0x11D82F, size: 0x8, addend: 0x0, symName: __ZThn8_N8facebook6hermes17HermesRuntimeImpl22createSnapshotToStreamERNSt3__113basic_ostreamIcNS2_11char_traitsIcEEEERKNS_3jsi15Instrumentation19HeapSnapshotOptionsE, symObjAddr: 0x7AE0, symBinAddr: 0xE4C0, symSize: 0x8 }
  - { offsetInCU: 0x11D866, offset: 0x11D866, size: 0x8, addend: 0x0, symName: __ZThn8_N8facebook6hermes17HermesRuntimeImpl33flushAndDisableBridgeTrafficTraceEv, symObjAddr: 0x7AE8, symBinAddr: 0xE4C8, symSize: 0x8 }
  - { offsetInCU: 0x11D895, offset: 0x11D895, size: 0x8, addend: 0x0, symName: __ZThn8_NK8facebook6hermes17HermesRuntimeImpl33writeBasicBlockProfileTraceToFileERKNSt3__112basic_stringIcNS2_11char_traitsIcEENS2_9allocatorIcEEEE, symObjAddr: 0x7AF0, symBinAddr: 0xE4D0, symSize: 0x8 }
  - { offsetInCU: 0x11D8C4, offset: 0x11D8C4, size: 0x8, addend: 0x0, symName: __ZThn8_NK8facebook6hermes17HermesRuntimeImpl25dumpProfilerSymbolsToFileERKNSt3__112basic_stringIcNS2_11char_traitsIcEENS2_9allocatorIcEEEE, symObjAddr: 0x7AF8, symBinAddr: 0xE4D8, symSize: 0x8 }
  - { offsetInCU: 0x11DE70, offset: 0x11DE70, size: 0x8, addend: 0x0, symName: __ZNK6hermes3hbc14BCProviderBase11getEpilogueEv, symObjAddr: 0x7C58, symBinAddr: 0xE638, symSize: 0xC }
  - { offsetInCU: 0x11DE97, offset: 0x11DE97, size: 0x8, addend: 0x0, symName: __ZNK6hermes3hbc14BCProviderBase13getSourceHashEv, symObjAddr: 0x7C64, symBinAddr: 0xE644, symSize: 0xC }
  - { offsetInCU: 0x11DEBC, offset: 0x11DEBC, size: 0x8, addend: 0x0, symName: __ZN6hermes3hbc14BCProviderBaseD1Ev, symObjAddr: 0x7C70, symBinAddr: 0x1B42E4, symSize: 0x4 }
  - { offsetInCU: 0x11DEE5, offset: 0x11DEE5, size: 0x8, addend: 0x0, symName: __ZN6hermes3hbc14BCProviderBaseD0Ev, symObjAddr: 0x7C74, symBinAddr: 0x1B42E8, symSize: 0x4 }
  - { offsetInCU: 0x11DF0E, offset: 0x11DF0E, size: 0x8, addend: 0x0, symName: __ZN6hermes3hbc14BCProviderBase11startWarmupEh, symObjAddr: 0x7C78, symBinAddr: 0xE650, symSize: 0x4 }
  - { offsetInCU: 0x11DF42, offset: 0x11DF42, size: 0x8, addend: 0x0, symName: __ZN6hermes3hbc14BCProviderBase7madviseENS_8oscompat7MAdviceE, symObjAddr: 0x7C7C, symBinAddr: 0xE654, symSize: 0x4 }
  - { offsetInCU: 0x11DF76, offset: 0x11DF76, size: 0x8, addend: 0x0, symName: __ZN6hermes3hbc14BCProviderBase27adviseStringTableSequentialEv, symObjAddr: 0x7C80, symBinAddr: 0xE658, symSize: 0x4 }
  - { offsetInCU: 0x11DF9B, offset: 0x11DF9B, size: 0x8, addend: 0x0, symName: __ZN6hermes3hbc14BCProviderBase23adviseStringTableRandomEv, symObjAddr: 0x7C84, symBinAddr: 0xE65C, symSize: 0x4 }
  - { offsetInCU: 0x11DFC0, offset: 0x11DFC0, size: 0x8, addend: 0x0, symName: __ZN6hermes3hbc14BCProviderBase19willNeedStringTableEv, symObjAddr: 0x7C88, symBinAddr: 0xE660, symSize: 0x4 }
  - { offsetInCU: 0x11DFE5, offset: 0x11DFE5, size: 0x8, addend: 0x0, symName: __ZN6hermes3hbc14BCProviderBase22startPageAccessTrackerEv, symObjAddr: 0x7C8C, symBinAddr: 0xE664, symSize: 0x4 }
  - { offsetInCU: 0x11E00A, offset: 0x11E00A, size: 0x8, addend: 0x0, symName: __ZN6hermes3hbc14BCProviderBase20getPageAccessTrackerEv, symObjAddr: 0x7C90, symBinAddr: 0xE668, symSize: 0x8 }
  - { offsetInCU: 0x11E031, offset: 0x11E031, size: 0x8, addend: 0x0, symName: __ZNK6hermes3hbc14BCProviderBase12getRawBufferEv, symObjAddr: 0x7C98, symBinAddr: 0xE670, symSize: 0xC }
  - { offsetInCU: 0x11E058, offset: 0x11E058, size: 0x8, addend: 0x0, symName: __ZN8facebook6hermes12_GLOBAL__N_113BufferAdapterD1Ev, symObjAddr: 0x7CA4, symBinAddr: 0xE67C, symSize: 0x28 }
  - { offsetInCU: 0x11E0C9, offset: 0x11E0C9, size: 0x8, addend: 0x0, symName: __ZN8facebook6hermes12_GLOBAL__N_113BufferAdapterD0Ev, symObjAddr: 0x7CCC, symBinAddr: 0xE6A4, symSize: 0x2C }
  - { offsetInCU: 0x11E18D, offset: 0x11E18D, size: 0x8, addend: 0x0, symName: __ZNSt3__120__shared_ptr_emplaceIN8facebook3jsi12StringBufferENS_9allocatorIS3_EEED1Ev, symObjAddr: 0x7DA4, symBinAddr: 0xE77C, symSize: 0x10 }
  - { offsetInCU: 0x11E1B1, offset: 0x11E1B1, size: 0x8, addend: 0x0, symName: __ZNSt3__120__shared_ptr_emplaceIN8facebook3jsi12StringBufferENS_9allocatorIS3_EEED1Ev, symObjAddr: 0x7DA4, symBinAddr: 0xE77C, symSize: 0x10 }
  - { offsetInCU: 0x11E1EA, offset: 0x11E1EA, size: 0x8, addend: 0x0, symName: __ZNSt3__120__shared_ptr_emplaceIN8facebook3jsi12StringBufferENS_9allocatorIS3_EEED0Ev, symObjAddr: 0x7DB4, symBinAddr: 0xE78C, symSize: 0x20 }
  - { offsetInCU: 0x11E262, offset: 0x11E262, size: 0x8, addend: 0x0, symName: __ZNSt3__120__shared_ptr_emplaceIN8facebook3jsi12StringBufferENS_9allocatorIS3_EEE16__on_zero_sharedEv, symObjAddr: 0x7DD4, symBinAddr: 0xE7AC, symSize: 0xC }
  - { offsetInCU: 0x11E2F2, offset: 0x11E2F2, size: 0x8, addend: 0x0, symName: __ZNSt3__120__shared_ptr_emplaceIN8facebook3jsi12StringBufferENS_9allocatorIS3_EEE21__on_zero_shared_weakEv, symObjAddr: 0x7DE0, symBinAddr: 0xE7B8, symSize: 0x4 }
  - { offsetInCU: 0x11E327, offset: 0x11E327, size: 0x8, addend: 0x0, symName: __ZNSt3__120__shared_ptr_emplaceIN8facebook3jsi12StringBufferENS_9allocatorIS3_EEE21__on_zero_shared_weakEv, symObjAddr: 0x7DE0, symBinAddr: 0xE7B8, symSize: 0x4 }
  - { offsetInCU: 0x11E34C, offset: 0x11E34C, size: 0x8, addend: 0x0, symName: __ZNSt3__120__shared_ptr_emplaceIN8facebook3jsi12StringBufferENS_9allocatorIS3_EEE21__on_zero_shared_weakEv, symObjAddr: 0x7DE0, symBinAddr: 0xE7B8, symSize: 0x4 }
  - { offsetInCU: 0x11E371, offset: 0x11E371, size: 0x8, addend: 0x0, symName: __ZNSt3__120__shared_ptr_emplaceIN8facebook3jsi12StringBufferENS_9allocatorIS3_EEE21__on_zero_shared_weakEv, symObjAddr: 0x7DE0, symBinAddr: 0xE7B8, symSize: 0x4 }
  - { offsetInCU: 0x11E3A1, offset: 0x11E3A1, size: 0x8, addend: 0x0, symName: __ZNSt3__120__shared_ptr_emplaceIN8facebook3jsi12StringBufferENS_9allocatorIS3_EEE21__on_zero_shared_weakEv, symObjAddr: 0x7DE0, symBinAddr: 0xE7B8, symSize: 0x4 }
  - { offsetInCU: 0x11E3CB, offset: 0x11E3CB, size: 0x8, addend: 0x0, symName: __ZNSt3__120__shared_ptr_emplaceIN8facebook3jsi12StringBufferENS_9allocatorIS3_EEE21__on_zero_shared_weakEv, symObjAddr: 0x7DE0, symBinAddr: 0xE7B8, symSize: 0x4 }
  - { offsetInCU: 0x11E3EE, offset: 0x11E3EE, size: 0x8, addend: 0x0, symName: __ZNSt3__120__shared_ptr_emplaceIN8facebook3jsi12StringBufferENS_9allocatorIS3_EEE21__on_zero_shared_weakEv, symObjAddr: 0x7DE0, symBinAddr: 0xE7B8, symSize: 0x4 }
  - { offsetInCU: 0x11E42A, offset: 0x11E42A, size: 0x8, addend: 0x0, symName: __ZN8facebook3jsi12StringBufferD1Ev, symObjAddr: 0x7DE4, symBinAddr: 0xE7BC, symSize: 0x40 }
  - { offsetInCU: 0x11E5CF, offset: 0x11E5CF, size: 0x8, addend: 0x0, symName: __ZN8facebook3jsi12StringBufferD0Ev, symObjAddr: 0x7E24, symBinAddr: 0xE7FC, symSize: 0x44 }
  - { offsetInCU: 0x11E7A2, offset: 0x11E7A2, size: 0x8, addend: 0x0, symName: __ZNK8facebook3jsi12StringBuffer4sizeEv, symObjAddr: 0x7E68, symBinAddr: 0xE840, symSize: 0x18 }
  - { offsetInCU: 0x11E7DF, offset: 0x11E7DF, size: 0x8, addend: 0x0, symName: __ZNK8facebook3jsi12StringBuffer4sizeEv, symObjAddr: 0x7E68, symBinAddr: 0xE840, symSize: 0x18 }
  - { offsetInCU: 0x11E835, offset: 0x11E835, size: 0x8, addend: 0x0, symName: __ZNK8facebook3jsi12StringBuffer4dataEv, symObjAddr: 0x7E80, symBinAddr: 0xE858, symSize: 0x1C }
  - { offsetInCU: 0x11E91B, offset: 0x11E91B, size: 0x8, addend: 0x0, symName: __ZNSt3__16vectorIN6hermes18SourceErrorManager11MessageDataENS_9allocatorIS3_EEE16__destroy_vectorclB7v160006Ev, symObjAddr: 0x7F2C, symBinAddr: 0xE904, symSize: 0x40 }
  - { offsetInCU: 0x11EA7A, offset: 0x11EA7A, size: 0x8, addend: 0x0, symName: __ZNSt3__16vectorIN6hermes18SourceErrorManager11MessageDataENS_9allocatorIS3_EEE7__clearB7v160006Ev, symObjAddr: 0x7F6C, symBinAddr: 0xE944, symSize: 0x54 }
  - { offsetInCU: 0x11EDB1, offset: 0x11EDB1, size: 0x8, addend: 0x0, symName: __ZNSt3__16vectorIN6hermes18SourceErrorManager15BufferedMessageENS_9allocatorIS3_EEE16__destroy_vectorclB7v160006Ev, symObjAddr: 0x7FF8, symBinAddr: 0xE9D0, symSize: 0x40 }
  - { offsetInCU: 0x11EF10, offset: 0x11EF10, size: 0x8, addend: 0x0, symName: __ZNSt3__16vectorIN6hermes18SourceErrorManager15BufferedMessageENS_9allocatorIS3_EEE7__clearB7v160006Ev, symObjAddr: 0x8038, symBinAddr: 0xEA10, symSize: 0x54 }
  - { offsetInCU: 0x11F211, offset: 0x11F211, size: 0x8, addend: 0x0, symName: __ZN4llvh12DenseMapBaseINS_8DenseMapIjNSt3__112basic_stringIcNS2_11char_traitsIcEENS2_9allocatorIcEEEENS_12DenseMapInfoIjEENS_6detail12DenseMapPairIjS8_EEEEjS8_SA_SD_E10destroyAllEv, symObjAddr: 0x80BC, symBinAddr: 0xEA94, symSize: 0x50 }
  - { offsetInCU: 0x11F7C6, offset: 0x11F7C6, size: 0x8, addend: 0x0, symName: __ZNSt3__114__split_bufferIPNS_12basic_stringIcNS_11char_traitsIcEENS_9allocatorIcEEEENS4_IS7_EEED2Ev, symObjAddr: 0x8294, symBinAddr: 0xEC6C, symSize: 0x4C }
  - { offsetInCU: 0x11FAB8, offset: 0x11FAB8, size: 0x8, addend: 0x0, symName: __ZNSt3__16__treeINS_12__value_typeIPKcjEENS_19__map_value_compareIS3_S4_NS_4lessIS3_EELb1EEENS_9allocatorIS4_EEE7destroyEPNS_11__tree_nodeIS4_PvEE, symObjAddr: 0x836C, symBinAddr: 0xED44, symSize: 0x40 }
  - { offsetInCU: 0x11FC19, offset: 0x11FC19, size: 0x8, addend: 0x0, symName: __ZNSt3__16vectorIN4llvh9SourceMgr9SrcBufferENS_9allocatorIS3_EEED2B7v160006Ev, symObjAddr: 0x83AC, symBinAddr: 0xED84, symSize: 0x38 }
  - { offsetInCU: 0x11FD63, offset: 0x11FD63, size: 0x8, addend: 0x0, symName: __ZNSt3__16vectorIN4llvh9SourceMgr9SrcBufferENS_9allocatorIS3_EEE16__destroy_vectorclB7v160006Ev, symObjAddr: 0x83E4, symBinAddr: 0xEDBC, symSize: 0x70 }
  - { offsetInCU: 0x120125, offset: 0x120125, size: 0x8, addend: 0x0, symName: __ZNSt3__110unique_ptrIN6hermes3hbc14BytecodeModuleENS_14default_deleteIS3_EEE5resetB7v160006EPS3_, symObjAddr: 0x8514, symBinAddr: 0xEEEC, symSize: 0x2C }
  - { offsetInCU: 0x12020B, offset: 0x12020B, size: 0x8, addend: 0x0, symName: __ZN6hermes3hbc14BytecodeModuleD2Ev, symObjAddr: 0x8540, symBinAddr: 0xEF18, symSize: 0x144 }
  - { offsetInCU: 0x121FA6, offset: 0x121FA6, size: 0x8, addend: 0x0, symName: __ZNSt3__16vectorINS_10unique_ptrIN6hermes3hbc16BytecodeFunctionENS_14default_deleteIS4_EEEENS_9allocatorIS7_EEED2B7v160006Ev, symObjAddr: 0x8684, symBinAddr: 0xF05C, symSize: 0x38 }
  - { offsetInCU: 0x12208D, offset: 0x12208D, size: 0x8, addend: 0x0, symName: __ZNSt3__16vectorINS_10unique_ptrIN6hermes3hbc16BytecodeFunctionENS_14default_deleteIS4_EEEENS_9allocatorIS7_EEE16__destroy_vectorclB7v160006Ev, symObjAddr: 0x86BC, symBinAddr: 0xF094, symSize: 0x40 }
  - { offsetInCU: 0x122221, offset: 0x122221, size: 0x8, addend: 0x0, symName: __ZNSt3__16vectorINS_10unique_ptrIN6hermes3hbc16BytecodeFunctionENS_14default_deleteIS4_EEEENS_9allocatorIS7_EEE22__base_destruct_at_endB7v160006EPS7_, symObjAddr: 0x86FC, symBinAddr: 0xF0D4, symSize: 0x60 }
  - { offsetInCU: 0x1223FF, offset: 0x1223FF, size: 0x8, addend: 0x0, symName: __ZNKSt3__114default_deleteIN6hermes3hbc16BytecodeFunctionEEclB7v160006EPS3_, symObjAddr: 0x875C, symBinAddr: 0xF134, symSize: 0x54 }
  - { offsetInCU: 0x122923, offset: 0x122923, size: 0x8, addend: 0x0, symName: __ZNSt3__110unique_ptrIN6hermes3hbc19LazyCompilationDataENS_14default_deleteIS3_EEE5resetB7v160006EPS3_, symObjAddr: 0x87B0, symBinAddr: 0xF188, symSize: 0x40 }
  - { offsetInCU: 0x122AEA, offset: 0x122AEA, size: 0x8, addend: 0x0, symName: __ZNSt3__110shared_ptrIKN6hermes15SerializedScopeEED2B7v160006Ev, symObjAddr: 0x87F0, symBinAddr: 0xF1C8, symSize: 0x58 }
  - { offsetInCU: 0x122B84, offset: 0x122B84, size: 0x8, addend: 0x0, symName: __ZNSt3__110shared_ptrIN6hermes7ContextEED2B7v160006Ev, symObjAddr: 0x8848, symBinAddr: 0xF220, symSize: 0x58 }
  - { offsetInCU: 0x122D68, offset: 0x122D68, size: 0x8, addend: 0x0, symName: __ZN4llvh15SmallVectorImplIPN6hermes2vm17PinnedHermesValueEE6appendIPKS4_vEEvT_S9_, symObjAddr: 0x88FC, symBinAddr: 0xF2D4, symSize: 0x88 }
  - { offsetInCU: 0x123109, offset: 0x123109, size: 0x8, addend: 0x0, symName: __ZN6hermes18ManagedChunkedListIN8facebook6hermes17HermesRuntimeImpl12ManagedValueINS_2vm17PinnedHermesValueEEELm16EE7collectEv, symObjAddr: 0x8A8C, symBinAddr: 0xF464, symSize: 0x110 }
  - { offsetInCU: 0x1233BB, offset: 0x1233BB, size: 0x8, addend: 0x0, symName: __ZN6hermes18ManagedChunkedListIN8facebook6hermes17HermesRuntimeImpl12ManagedValueINS_2vm17PinnedHermesValueEEELm16EE13allocateChunkEv, symObjAddr: 0x89F8, symBinAddr: 0xF3D0, symSize: 0x94 }
  - { offsetInCU: 0x1238D8, offset: 0x1238D8, size: 0x8, addend: 0x0, symName: __ZN8facebook6hermes17HermesRuntimeImpl12ManagedValueIN6hermes2vm17PinnedHermesValueEED1Ev, symObjAddr: 0x8B9C, symBinAddr: 0xF574, symSize: 0x10 }
  - { offsetInCU: 0x1238FC, offset: 0x1238FC, size: 0x8, addend: 0x0, symName: __ZN8facebook6hermes17HermesRuntimeImpl12ManagedValueIN6hermes2vm17PinnedHermesValueEED1Ev, symObjAddr: 0x8B9C, symBinAddr: 0xF574, symSize: 0x10 }
  - { offsetInCU: 0x12396B, offset: 0x12396B, size: 0x8, addend: 0x0, symName: __ZN8facebook6hermes17HermesRuntimeImpl12ManagedValueIN6hermes2vm17PinnedHermesValueEE10invalidateEv, symObjAddr: 0x8BAC, symBinAddr: 0xF584, symSize: 0x18 }
  - { offsetInCU: 0x123993, offset: 0x123993, size: 0x8, addend: 0x0, symName: __ZN8facebook6hermes17HermesRuntimeImpl12ManagedValueIN6hermes2vm17PinnedHermesValueEE10invalidateEv, symObjAddr: 0x8BAC, symBinAddr: 0xF584, symSize: 0x18 }
  - { offsetInCU: 0x123A09, offset: 0x123A09, size: 0x8, addend: 0x0, symName: __ZN8facebook6hermes17HermesRuntimeImpl12ManagedValueIN6hermes2vm17PinnedHermesValueEED0Ev, symObjAddr: 0x8BC4, symBinAddr: 0xF59C, symSize: 0x4 }
  - { offsetInCU: 0x123A38, offset: 0x123A38, size: 0x8, addend: 0x0, symName: __ZN8facebook6hermes17HermesRuntimeImpl12ManagedValueIN6hermes2vm17PinnedHermesValueEED0Ev, symObjAddr: 0x8BC4, symBinAddr: 0xF59C, symSize: 0x4 }
  - { offsetInCU: 0x123B8F, offset: 0x123B8F, size: 0x8, addend: 0x0, symName: __ZNSt3__15dequeIPN6hermes2vm8CallableENS_9allocatorIS4_EEE19__add_back_capacityEv, symObjAddr: 0x8C44, symBinAddr: 0xF61C, symSize: 0x368 }
  - { offsetInCU: 0x125518, offset: 0x125518, size: 0x8, addend: 0x0, symName: __ZNSt3__114__split_bufferIPPN6hermes2vm8CallableENS_9allocatorIS5_EEE9push_backEOS5_, symObjAddr: 0x8FAC, symBinAddr: 0xF984, symSize: 0x104 }
  - { offsetInCU: 0x125999, offset: 0x125999, size: 0x8, addend: 0x0, symName: __ZNSt3__114__split_bufferIPPN6hermes2vm8CallableERNS_9allocatorIS5_EEE9push_backEOS5_, symObjAddr: 0x91CC, symBinAddr: 0xFBA4, symSize: 0x104 }
  - { offsetInCU: 0x125E65, offset: 0x125E65, size: 0x8, addend: 0x0, symName: __ZNSt3__114__split_bufferIPPN6hermes2vm8CallableERNS_9allocatorIS5_EEE10push_frontERKS5_, symObjAddr: 0x92D0, symBinAddr: 0xFCA8, symSize: 0x118 }
  - { offsetInCU: 0x126362, offset: 0x126362, size: 0x8, addend: 0x0, symName: __ZNSt3__114__split_bufferIPPN6hermes2vm8CallableENS_9allocatorIS5_EEE10push_frontEOS5_, symObjAddr: 0x90B0, symBinAddr: 0xFA88, symSize: 0x11C }
  - { offsetInCU: 0x1269CF, offset: 0x1269CF, size: 0x8, addend: 0x0, symName: __ZNKSt3__112basic_stringIcNS_11char_traitsIcEENS_9allocatorIcEEE20__throw_length_errorB7v160006Ev, symObjAddr: 0x94B4, symBinAddr: 0xFE8C, symSize: 0x14 }
  - { offsetInCU: 0x1269F9, offset: 0x1269F9, size: 0x8, addend: 0x0, symName: __ZNSt3__120__throw_length_errorB7v160006EPKc, symObjAddr: 0x94C8, symBinAddr: 0xFEA0, symSize: 0x50 }
  - { offsetInCU: 0x126A04, offset: 0x126A04, size: 0x8, addend: 0x0, symName: __ZNSt12length_errorC1B7v160006EPKc, symObjAddr: 0x9518, symBinAddr: 0xFEF0, symSize: 0x24 }
  - { offsetInCU: 0x126AE4, offset: 0x126AE4, size: 0x8, addend: 0x0, symName: '__ZZN8facebook6hermes17HermesRuntimeImpl25setExternalMemoryPressureERKNS_3jsi6ObjectEmEN3$_18__invokeERN6hermes2vm7HadesGCEPNS8_11NativeStateE', symObjAddr: 0x9594, symBinAddr: 0xFF6C, symSize: 0x8 }
  - { offsetInCU: 0x126B1B, offset: 0x126B1B, size: 0x8, addend: 0x0, symName: '__ZZN8facebook6hermes17HermesRuntimeImpl25setExternalMemoryPressureERKNS_3jsi6ObjectEmEN3$_18__invokeERN6hermes2vm7HadesGCEPNS8_11NativeStateE', symObjAddr: 0x9594, symBinAddr: 0xFF6C, symSize: 0x8 }
  - { offsetInCU: 0x126B41, offset: 0x126B41, size: 0x8, addend: 0x0, symName: '__ZZN8facebook6hermes17HermesRuntimeImpl25setExternalMemoryPressureERKNS_3jsi6ObjectEmEN3$_18__invokeERN6hermes2vm7HadesGCEPNS8_11NativeStateE', symObjAddr: 0x9594, symBinAddr: 0xFF6C, symSize: 0x8 }
  - { offsetInCU: 0x126BA2, offset: 0x126BA2, size: 0x8, addend: 0x0, symName: __ZN6hermes18ManagedChunkedListIN8facebook6hermes17HermesRuntimeImpl12ManagedValueINS_2vm8WeakRootINS5_8JSObjectEEEEELm16EE7collectEv, symObjAddr: 0x96A4, symBinAddr: 0x1007C, symSize: 0x110 }
  - { offsetInCU: 0x126E54, offset: 0x126E54, size: 0x8, addend: 0x0, symName: __ZN6hermes18ManagedChunkedListIN8facebook6hermes17HermesRuntimeImpl12ManagedValueINS_2vm8WeakRootINS5_8JSObjectEEEEELm16EE13allocateChunkEv, symObjAddr: 0x9610, symBinAddr: 0xFFE8, symSize: 0x94 }
  - { offsetInCU: 0x127248, offset: 0x127248, size: 0x8, addend: 0x0, symName: __ZN8facebook6hermes17HermesRuntimeImpl12ManagedValueIN6hermes2vm8WeakRootINS4_8JSObjectEEEED1Ev, symObjAddr: 0x97B4, symBinAddr: 0x1018C, symSize: 0x10 }
  - { offsetInCU: 0x12726C, offset: 0x12726C, size: 0x8, addend: 0x0, symName: __ZN8facebook6hermes17HermesRuntimeImpl12ManagedValueIN6hermes2vm8WeakRootINS4_8JSObjectEEEED1Ev, symObjAddr: 0x97B4, symBinAddr: 0x1018C, symSize: 0x10 }
  - { offsetInCU: 0x1272AB, offset: 0x1272AB, size: 0x8, addend: 0x0, symName: __ZN8facebook6hermes17HermesRuntimeImpl12ManagedValueIN6hermes2vm8WeakRootINS4_8JSObjectEEEE10invalidateEv, symObjAddr: 0x97C4, symBinAddr: 0x1019C, symSize: 0x18 }
  - { offsetInCU: 0x1272D3, offset: 0x1272D3, size: 0x8, addend: 0x0, symName: __ZN8facebook6hermes17HermesRuntimeImpl12ManagedValueIN6hermes2vm8WeakRootINS4_8JSObjectEEEE10invalidateEv, symObjAddr: 0x97C4, symBinAddr: 0x1019C, symSize: 0x18 }
  - { offsetInCU: 0x127349, offset: 0x127349, size: 0x8, addend: 0x0, symName: __ZN8facebook6hermes17HermesRuntimeImpl12ManagedValueIN6hermes2vm8WeakRootINS4_8JSObjectEEEED0Ev, symObjAddr: 0x97DC, symBinAddr: 0x101B4, symSize: 0x4 }
  - { offsetInCU: 0x127378, offset: 0x127378, size: 0x8, addend: 0x0, symName: __ZN8facebook6hermes17HermesRuntimeImpl12ManagedValueIN6hermes2vm8WeakRootINS4_8JSObjectEEEED0Ev, symObjAddr: 0x97DC, symBinAddr: 0x101B4, symSize: 0x4 }
  - { offsetInCU: 0x1273E8, offset: 0x1273E8, size: 0x8, addend: 0x0, symName: '__ZZN8facebook6hermes17HermesRuntimeImpl17createArrayBufferENSt3__110shared_ptrINS_3jsi13MutableBufferEEEEN3$_28__invokeERN6hermes2vm7HadesGCEPNS9_11NativeStateE', symObjAddr: 0x97E0, symBinAddr: 0x101B8, symSize: 0x24 }
  - { offsetInCU: 0x127492, offset: 0x127492, size: 0x8, addend: 0x0, symName: __ZNSt3__110shared_ptrIN8facebook3jsi13MutableBufferEED2B7v160006Ev, symObjAddr: 0x9804, symBinAddr: 0x101DC, symSize: 0x58 }
  - { offsetInCU: 0x1275FD, offset: 0x1275FD, size: 0x8, addend: 0x0, symName: __ZN6hermes2vm21ScopedNativeCallFrame23runtimeCanAllocateFrameERNS0_7RuntimeEj, symObjAddr: 0x9900, symBinAddr: 0x102D8, symSize: 0x88 }
  - { offsetInCU: 0x127A49, offset: 0x127A49, size: 0x8, addend: 0x0, symName: __ZNSt3__110shared_ptrIN6hermes2vm12CrashManagerEEC2INS2_15NopCrashManagerEvEEPT_, symObjAddr: 0x9AEC, symBinAddr: 0x104C4, symSize: 0x60 }
  - { offsetInCU: 0x127BA3, offset: 0x127BA3, size: 0x8, addend: 0x0, symName: __ZN6hermes2vm13RuntimeConfigC1Ev.cold.1, symObjAddr: 0x11CB0, symBinAddr: 0x1B4364, symSize: 0x98 }
  - { offsetInCU: 0x1280E2, offset: 0x1280E2, size: 0x8, addend: 0x0, symName: __ZNSt3__120__shared_ptr_pointerIPN6hermes2vm15NopCrashManagerENS_10shared_ptrINS2_12CrashManagerEE27__shared_ptr_default_deleteIS6_S3_EENS_9allocatorIS3_EEED1Ev, symObjAddr: 0x9B4C, symBinAddr: 0x10524, symSize: 0x4 }
  - { offsetInCU: 0x128106, offset: 0x128106, size: 0x8, addend: 0x0, symName: __ZNSt3__120__shared_ptr_pointerIPN6hermes2vm15NopCrashManagerENS_10shared_ptrINS2_12CrashManagerEE27__shared_ptr_default_deleteIS6_S3_EENS_9allocatorIS3_EEED1Ev, symObjAddr: 0x9B4C, symBinAddr: 0x10524, symSize: 0x4 }
  - { offsetInCU: 0x12813D, offset: 0x12813D, size: 0x8, addend: 0x0, symName: __ZNSt3__120__shared_ptr_pointerIPN6hermes2vm15NopCrashManagerENS_10shared_ptrINS2_12CrashManagerEE27__shared_ptr_default_deleteIS6_S3_EENS_9allocatorIS3_EEED0Ev, symObjAddr: 0x9B50, symBinAddr: 0x10528, symSize: 0x14 }
  - { offsetInCU: 0x1281B2, offset: 0x1281B2, size: 0x8, addend: 0x0, symName: __ZNSt3__120__shared_ptr_pointerIPN6hermes2vm15NopCrashManagerENS_10shared_ptrINS2_12CrashManagerEE27__shared_ptr_default_deleteIS6_S3_EENS_9allocatorIS3_EEE16__on_zero_sharedEv, symObjAddr: 0x9B64, symBinAddr: 0x1053C, symSize: 0x24 }
  - { offsetInCU: 0x128206, offset: 0x128206, size: 0x8, addend: 0x0, symName: __ZNKSt3__120__shared_ptr_pointerIPN6hermes2vm15NopCrashManagerENS_10shared_ptrINS2_12CrashManagerEE27__shared_ptr_default_deleteIS6_S3_EENS_9allocatorIS3_EEE13__get_deleterERKSt9type_info, symObjAddr: 0x9B88, symBinAddr: 0x10560, symSize: 0x3C }
  - { offsetInCU: 0x128255, offset: 0x128255, size: 0x8, addend: 0x0, symName: __ZNKSt9type_infoeqB7v160006ERKS_, symObjAddr: 0x9BC8, symBinAddr: 0x105A0, symSize: 0x48 }
  - { offsetInCU: 0x128342, offset: 0x128342, size: 0x8, addend: 0x0, symName: __ZNSt3__120__shared_ptr_pointerIPN6hermes2vm15NopCrashManagerENS_10shared_ptrINS2_12CrashManagerEE27__shared_ptr_default_deleteIS6_S3_EENS_9allocatorIS3_EEE21__on_zero_shared_weakEv, symObjAddr: 0x9BC4, symBinAddr: 0x1059C, symSize: 0x4 }
  - { offsetInCU: 0x128378, offset: 0x128378, size: 0x8, addend: 0x0, symName: __ZNSt3__120__shared_ptr_pointerIPN6hermes2vm15NopCrashManagerENS_10shared_ptrINS2_12CrashManagerEE27__shared_ptr_default_deleteIS6_S3_EENS_9allocatorIS3_EEE21__on_zero_shared_weakEv, symObjAddr: 0x9BC4, symBinAddr: 0x1059C, symSize: 0x4 }
  - { offsetInCU: 0x12839D, offset: 0x12839D, size: 0x8, addend: 0x0, symName: __ZNSt3__120__shared_ptr_pointerIPN6hermes2vm15NopCrashManagerENS_10shared_ptrINS2_12CrashManagerEE27__shared_ptr_default_deleteIS6_S3_EENS_9allocatorIS3_EEE21__on_zero_shared_weakEv, symObjAddr: 0x9BC4, symBinAddr: 0x1059C, symSize: 0x4 }
  - { offsetInCU: 0x1283CC, offset: 0x1283CC, size: 0x8, addend: 0x0, symName: __ZNSt3__120__shared_ptr_pointerIPN6hermes2vm15NopCrashManagerENS_10shared_ptrINS2_12CrashManagerEE27__shared_ptr_default_deleteIS6_S3_EENS_9allocatorIS3_EEE21__on_zero_shared_weakEv, symObjAddr: 0x9BC4, symBinAddr: 0x1059C, symSize: 0x4 }
  - { offsetInCU: 0x1283F5, offset: 0x1283F5, size: 0x8, addend: 0x0, symName: __ZNSt3__120__shared_ptr_pointerIPN6hermes2vm15NopCrashManagerENS_10shared_ptrINS2_12CrashManagerEE27__shared_ptr_default_deleteIS6_S3_EENS_9allocatorIS3_EEE21__on_zero_shared_weakEv, symObjAddr: 0x9BC4, symBinAddr: 0x1059C, symSize: 0x4 }
  - { offsetInCU: 0x128417, offset: 0x128417, size: 0x8, addend: 0x0, symName: __ZNSt3__120__shared_ptr_pointerIPN6hermes2vm15NopCrashManagerENS_10shared_ptrINS2_12CrashManagerEE27__shared_ptr_default_deleteIS6_S3_EENS_9allocatorIS3_EEE21__on_zero_shared_weakEv, symObjAddr: 0x9BC4, symBinAddr: 0x1059C, symSize: 0x4 }
  - { offsetInCU: 0x1286A9, offset: 0x1286A9, size: 0x8, addend: 0x0, symName: __ZNSt3__110__function12__value_funcIFvRN6hermes2vm17GCTripwireContextEEEC2B7v160006ERKS7_, symObjAddr: 0x9D70, symBinAddr: 0x10748, symSize: 0x64 }
  - { offsetInCU: 0x128705, offset: 0x128705, size: 0x8, addend: 0x0, symName: __ZNSt3__110__function12__value_funcIFvRKN6hermes2vm16GCAnalyticsEventEEEC2B7v160006ERKS8_, symObjAddr: 0x9DD4, symBinAddr: 0x107AC, symSize: 0x64 }
  - { offsetInCU: 0x128761, offset: 0x128761, size: 0x8, addend: 0x0, symName: __ZNSt3__110__function12__value_funcIFvN6hermes2vm11GCEventKindEPKcEEC2B7v160006ERKS8_, symObjAddr: 0x9E38, symBinAddr: 0x10810, symSize: 0x64 }
  - { offsetInCU: 0x1288AB, offset: 0x1288AB, size: 0x8, addend: 0x0, symName: __ZNSt3__16vectorIN8facebook6hermes8debugger13CallFrameInfoENS_9allocatorIS4_EEED2B7v160006Ev, symObjAddr: 0x9F20, symBinAddr: 0x108F8, symSize: 0x38 }
  - { offsetInCU: 0x128992, offset: 0x128992, size: 0x8, addend: 0x0, symName: __ZNSt3__16vectorIN8facebook6hermes8debugger13CallFrameInfoENS_9allocatorIS4_EEE16__destroy_vectorclB7v160006Ev, symObjAddr: 0x9F58, symBinAddr: 0x10930, symSize: 0x84 }
  - { offsetInCU: 0x128BE0, offset: 0x128BE0, size: 0x8, addend: 0x0, symName: __ZNSt3__19allocatorIN8facebook6hermes8debugger13CallFrameInfoEE7destroyB7v160006EPS4_, symObjAddr: 0x9FDC, symBinAddr: 0x109B4, symSize: 0x44 }
  - { offsetInCU: 0x12905F, offset: 0x12905F, size: 0x8, addend: 0x0, symName: __ZNSt3__110shared_ptrIN6hermes2vm7RuntimeEED2B7v160006Ev, symObjAddr: 0xA064, symBinAddr: 0x10A3C, symSize: 0x58 }
  - { offsetInCU: 0x1290F9, offset: 0x1290F9, size: 0x8, addend: 0x0, symName: __ZN6hermes18ManagedChunkedListIN8facebook6hermes17HermesRuntimeImpl12ManagedValueINS_2vm8WeakRootINS5_8JSObjectEEEEELm16EED2Ev, symObjAddr: 0xA0BC, symBinAddr: 0x10A94, symSize: 0x58 }
  - { offsetInCU: 0x1291F0, offset: 0x1291F0, size: 0x8, addend: 0x0, symName: __ZN6hermes18ManagedChunkedListIN8facebook6hermes17HermesRuntimeImpl12ManagedValueINS_2vm17PinnedHermesValueEEELm16EED2Ev, symObjAddr: 0xA114, symBinAddr: 0x10AEC, symSize: 0x58 }
  - { offsetInCU: 0x1298CC, offset: 0x1298CC, size: 0x8, addend: 0x0, symName: __ZNKSt3__113__string_hashIcNS_9allocatorIcEEEclERKNS_12basic_stringIcNS_11char_traitsIcEES2_EE, symObjAddr: 0xA3F0, symBinAddr: 0x10DC8, symSize: 0x3C }
  - { offsetInCU: 0x1299A1, offset: 0x1299A1, size: 0x8, addend: 0x0, symName: __ZNKSt3__18equal_toINS_12basic_stringIcNS_11char_traitsIcEENS_9allocatorIcEEEEEclB7v160006ERKS6_S9_, symObjAddr: 0xA8E8, symBinAddr: 0x112C0, symSize: 0xB0 }
  - { offsetInCU: 0x129B88, offset: 0x129B88, size: 0x8, addend: 0x0, symName: __ZNSt3__112__hash_tableINS_17__hash_value_typeINS_12basic_stringIcNS_11char_traitsIcEENS_9allocatorIcEEEExEENS_22__unordered_map_hasherIS7_S8_NS_4hashIS7_EENS_8equal_toIS7_EELb1EEENS_21__unordered_map_equalIS7_S8_SD_SB_Lb1EEENS5_IS8_EEE8__rehashILb1EEEvm, symObjAddr: 0xA998, symBinAddr: 0x11370, symSize: 0xDC }
  - { offsetInCU: 0x129C7A, offset: 0x129C7A, size: 0x8, addend: 0x0, symName: __ZNSt3__122__hash_node_destructorINS_9allocatorINS_11__hash_nodeINS_17__hash_value_typeINS_12basic_stringIcNS_11char_traitsIcEENS1_IcEEEExEEPvEEEEEclB7v160006EPSB_, symObjAddr: 0xABCC, symBinAddr: 0x115A4, symSize: 0x4C }
  - { offsetInCU: 0x129F4B, offset: 0x129F4B, size: 0x8, addend: 0x0, symName: __ZNSt3__121__murmur2_or_cityhashImLm64EEclEPKvm, symObjAddr: 0xA42C, symBinAddr: 0x10E04, symSize: 0x208 }
  - { offsetInCU: 0x12A668, offset: 0x12A668, size: 0x8, addend: 0x0, symName: __ZNSt3__121__murmur2_or_cityhashImLm64EE18__hash_len_0_to_16EPKcm, symObjAddr: 0xA634, symBinAddr: 0x1100C, symSize: 0xF8 }
  - { offsetInCU: 0x12A88E, offset: 0x12A88E, size: 0x8, addend: 0x0, symName: __ZNSt3__121__murmur2_or_cityhashImLm64EE19__hash_len_33_to_64EPKcm, symObjAddr: 0xA7D8, symBinAddr: 0x111B0, symSize: 0x110 }
  - { offsetInCU: 0x12AA2A, offset: 0x12AA2A, size: 0x8, addend: 0x0, symName: __ZNSt3__121__murmur2_or_cityhashImLm64EE19__hash_len_17_to_32EPKcm, symObjAddr: 0xA72C, symBinAddr: 0x11104, symSize: 0xAC }
  - { offsetInCU: 0x12ABAA, offset: 0x12ABAA, size: 0x8, addend: 0x0, symName: __ZNSt3__112__hash_tableINS_17__hash_value_typeINS_12basic_stringIcNS_11char_traitsIcEENS_9allocatorIcEEEExEENS_22__unordered_map_hasherIS7_S8_NS_4hashIS7_EENS_8equal_toIS7_EELb1EEENS_21__unordered_map_equalIS7_S8_SD_SB_Lb1EEENS5_IS8_EEE11__do_rehashILb1EEEvm, symObjAddr: 0xAA74, symBinAddr: 0x1144C, symSize: 0x158 }
  - { offsetInCU: 0x12B09A, offset: 0x12B09A, size: 0x8, addend: 0x0, symName: __ZNSt3__122__hash_node_destructorINS_9allocatorINS_11__hash_nodeINS_17__hash_value_typeINS_12basic_stringIcNS_11char_traitsIcEENS1_IcEEEExEEPvEEEEEclB7v160006EPSB_, symObjAddr: 0xABCC, symBinAddr: 0x115A4, symSize: 0x4C }
  - { offsetInCU: 0x12B2DE, offset: 0x12B2DE, size: 0x8, addend: 0x0, symName: __ZNSt3__112__hash_tableINS_17__hash_value_typeINS_12basic_stringIcNS_11char_traitsIcEENS_9allocatorIcEEEExEENS_22__unordered_map_hasherIS7_S8_NS_4hashIS7_EENS_8equal_toIS7_EELb1EEENS_21__unordered_map_equalIS7_S8_SD_SB_Lb1EEENS5_IS8_EEE17__deallocate_nodeEPNS_16__hash_node_baseIPNS_11__hash_nodeIS8_PvEEEE, symObjAddr: 0xAC50, symBinAddr: 0x11628, symSize: 0x44 }
  - { offsetInCU: 0x12B8BB, offset: 0x12B8BB, size: 0x8, addend: 0x0, symName: __ZNKSt3__112basic_stringIDsNS_11char_traitsIDsEENS_9allocatorIDsEEE20__throw_length_errorB7v160006Ev, symObjAddr: 0xAE2C, symBinAddr: 0x11804, symSize: 0x14 }
  - { offsetInCU: 0x12B8E5, offset: 0x12B8E5, size: 0x8, addend: 0x0, symName: __ZNSt3__119__allocate_at_leastB7v160006INS_9allocatorIDsEEEENS_19__allocation_resultINS_16allocator_traitsIT_E7pointerEEERS5_m, symObjAddr: 0xAE40, symBinAddr: 0x11818, symSize: 0x30 }
  - { offsetInCU: 0x12B97A, offset: 0x12B97A, size: 0x8, addend: 0x0, symName: __ZNSt3__16vectorINS_12basic_stringIcNS_11char_traitsIcEENS_9allocatorIcEEEENS4_IS6_EEE16__destroy_vectorclB7v160006Ev, symObjAddr: 0xAF44, symBinAddr: 0x1191C, symSize: 0x40 }
  - { offsetInCU: 0x12BA76, offset: 0x12BA76, size: 0x8, addend: 0x0, symName: __ZNSt3__16vectorINS_12basic_stringIcNS_11char_traitsIcEENS_9allocatorIcEEEENS4_IS6_EEE7__clearB7v160006Ev, symObjAddr: 0xAF84, symBinAddr: 0x1195C, symSize: 0x54 }
  - { offsetInCU: 0x12BD02, offset: 0x12BD02, size: 0x8, addend: 0x0, symName: __ZNSt3__16vectorIN4llvh8OptionalIN6hermes6parser15JSONSharedValueEEENS_9allocatorIS6_EEED2B7v160006Ev, symObjAddr: 0xB028, symBinAddr: 0x11A00, symSize: 0x38 }
  - { offsetInCU: 0x12BD95, offset: 0x12BD95, size: 0x8, addend: 0x0, symName: __ZNSt3__16vectorINS0_IN6hermes9SourceMap7SegmentENS_9allocatorIS3_EEEENS4_IS6_EEED2B7v160006Ev, symObjAddr: 0xB150, symBinAddr: 0x11B28, symSize: 0x38 }
  - { offsetInCU: 0x12BE7C, offset: 0x12BE7C, size: 0x8, addend: 0x0, symName: __ZNSt3__16vectorIN4llvh8OptionalIN6hermes6parser15JSONSharedValueEEENS_9allocatorIS6_EEE16__destroy_vectorclB7v160006Ev, symObjAddr: 0xB060, symBinAddr: 0x11A38, symSize: 0x40 }
  - { offsetInCU: 0x12BFDB, offset: 0x12BFDB, size: 0x8, addend: 0x0, symName: __ZNSt3__16vectorIN4llvh8OptionalIN6hermes6parser15JSONSharedValueEEENS_9allocatorIS6_EEE7__clearB7v160006Ev, symObjAddr: 0xB0A0, symBinAddr: 0x11A78, symSize: 0x58 }
  - { offsetInCU: 0x12C2F0, offset: 0x12C2F0, size: 0x8, addend: 0x0, symName: __ZNSt3__110shared_ptrIKN6hermes28BacktrackingBumpPtrAllocatorEED2B7v160006Ev, symObjAddr: 0xB0F8, symBinAddr: 0x11AD0, symSize: 0x58 }
  - { offsetInCU: 0x12C3DE, offset: 0x12C3DE, size: 0x8, addend: 0x0, symName: __ZNSt3__16vectorINS0_IN6hermes9SourceMap7SegmentENS_9allocatorIS3_EEEENS4_IS6_EEE16__destroy_vectorclB7v160006Ev, symObjAddr: 0xB188, symBinAddr: 0x11B60, symSize: 0x40 }
  - { offsetInCU: 0x12C53D, offset: 0x12C53D, size: 0x8, addend: 0x0, symName: __ZNSt3__16vectorINS0_IN6hermes9SourceMap7SegmentENS_9allocatorIS3_EEEENS4_IS6_EEE7__clearB7v160006Ev, symObjAddr: 0xB1C8, symBinAddr: 0x11BA0, symSize: 0x54 }
  - { offsetInCU: 0x12C9CE, offset: 0x12C9CE, size: 0x8, addend: 0x0, symName: __ZNSt3__112__hash_tableINS_17__hash_value_typeINS_12basic_stringIcNS_11char_traitsIcEENS_9allocatorIcEEEENS_6vectorIN6hermes2vm20CodeCoverageProfiler8FuncInfoENS5_ISC_EEEEEENS_22__unordered_map_hasherIS7_SF_NS_4hashIS7_EENS_8equal_toIS7_EELb1EEENS_21__unordered_map_equalIS7_SF_SK_SI_Lb1EEENS5_ISF_EEE17__deallocate_nodeEPNS_16__hash_node_baseIPNS_11__hash_nodeISF_PvEEEE, symObjAddr: 0xB254, symBinAddr: 0x11C2C, symSize: 0x4C }
  - { offsetInCU: 0x12CBB4, offset: 0x12CBB4, size: 0x8, addend: 0x0, symName: __ZNSt3__116allocator_traitsINS_9allocatorINS_11__hash_nodeINS_17__hash_value_typeINS_12basic_stringIcNS_11char_traitsIcEENS1_IcEEEENS_6vectorIN6hermes2vm20CodeCoverageProfiler8FuncInfoENS1_ISD_EEEEEEPvEEEEE7destroyB7v160006INS_4pairIKS8_SF_EEvvEEvRSJ_PT_, symObjAddr: 0xB2A0, symBinAddr: 0x11C78, symSize: 0x3C }
  - { offsetInCU: 0x12CDC7, offset: 0x12CDC7, size: 0x8, addend: 0x0, symName: __ZNSt3__16vectorIN6hermes2vm20CodeCoverageProfiler8FuncInfoENS_9allocatorIS4_EEED2B7v160006Ev, symObjAddr: 0xB2DC, symBinAddr: 0x11CB4, symSize: 0x38 }
  - { offsetInCU: 0x12CEAE, offset: 0x12CEAE, size: 0x8, addend: 0x0, symName: __ZNSt3__16vectorIN6hermes2vm20CodeCoverageProfiler8FuncInfoENS_9allocatorIS4_EEE16__destroy_vectorclB7v160006Ev, symObjAddr: 0xB314, symBinAddr: 0x11CEC, symSize: 0x40 }
  - { offsetInCU: 0x12D00D, offset: 0x12D00D, size: 0x8, addend: 0x0, symName: __ZNSt3__16vectorIN6hermes2vm20CodeCoverageProfiler8FuncInfoENS_9allocatorIS4_EEE7__clearB7v160006Ev, symObjAddr: 0xB354, symBinAddr: 0x11D2C, symSize: 0x54 }
  - { offsetInCU: 0x12D3E2, offset: 0x12D3E2, size: 0x8, addend: 0x0, symName: __ZNSt3__112__hash_tableINS_17__hash_value_typeINS_12basic_stringIcNS_11char_traitsIcEENS_9allocatorIcEEEENS_6vectorIS7_NS5_IS7_EEEEEENS_22__unordered_map_hasherIS7_SB_NS_4hashIS7_EENS_8equal_toIS7_EELb1EEENS_21__unordered_map_equalIS7_SB_SG_SE_Lb1EEENS5_ISB_EEE17__deallocate_nodeEPNS_16__hash_node_baseIPNS_11__hash_nodeISB_PvEEEE, symObjAddr: 0xB3E0, symBinAddr: 0x11DB8, symSize: 0x4C }
  - { offsetInCU: 0x12D5C2, offset: 0x12D5C2, size: 0x8, addend: 0x0, symName: __ZNSt3__116allocator_traitsINS_9allocatorINS_11__hash_nodeINS_17__hash_value_typeINS_12basic_stringIcNS_11char_traitsIcEENS1_IcEEEENS_6vectorIS8_NS1_IS8_EEEEEEPvEEEEE7destroyB7v160006INS_4pairIKS8_SB_EEvvEEvRSF_PT_, symObjAddr: 0xB42C, symBinAddr: 0x11E04, symSize: 0x3C }
  - { offsetInCU: 0x12DB1E, offset: 0x12DB1E, size: 0x8, addend: 0x0, symName: __ZNSt3__114__split_bufferINS_12basic_stringIcNS_11char_traitsIcEENS_9allocatorIcEEEERNS4_IS6_EEED2Ev, symObjAddr: 0xBC70, symBinAddr: 0x12648, symSize: 0x34 }
  - { offsetInCU: 0x12DC48, offset: 0x12DC48, size: 0x8, addend: 0x0, symName: __ZNKSt3__16vectorINS_12basic_stringIcNS_11char_traitsIcEENS_9allocatorIcEEEENS4_IS6_EEE20__throw_length_errorB7v160006Ev, symObjAddr: 0xBB04, symBinAddr: 0x124DC, symSize: 0x14 }
  - { offsetInCU: 0x12DC72, offset: 0x12DC72, size: 0x8, addend: 0x0, symName: __ZNSt3__119__allocate_at_leastB7v160006INS_9allocatorINS_12basic_stringIcNS_11char_traitsIcEENS1_IcEEEEEEEENS_19__allocation_resultINS_16allocator_traitsIT_E7pointerEEERSA_m, symObjAddr: 0xBB18, symBinAddr: 0x124F0, symSize: 0x44 }
  - { offsetInCU: 0x12E03D, offset: 0x12E03D, size: 0x8, addend: 0x0, symName: __ZNSt3__112basic_stringIcNS_11char_traitsIcEENS_9allocatorIcEEEC2B7v160006Emc, symObjAddr: 0xB9F8, symBinAddr: 0x123D0, symSize: 0x98 }
  - { offsetInCU: 0x12E27A, offset: 0x12E27A, size: 0x8, addend: 0x0, symName: __ZNSt3__16vectorINS_12basic_stringIcNS_11char_traitsIcEENS_9allocatorIcEEEENS4_IS6_EEE26__swap_out_circular_bufferERNS_14__split_bufferIS6_RS7_EE, symObjAddr: 0xBA90, symBinAddr: 0x12468, symSize: 0x74 }
  - { offsetInCU: 0x12E3CE, offset: 0x12E3CE, size: 0x8, addend: 0x0, symName: __ZNSt3__128__exception_guard_exceptionsINS_29_AllocatorDestroyRangeReverseINS_9allocatorINS_12basic_stringIcNS_11char_traitsIcEENS2_IcEEEEEENS_16reverse_iteratorIPS7_EEEEED2B7v160006Ev, symObjAddr: 0xBBF8, symBinAddr: 0x125D0, symSize: 0x34 }
  - { offsetInCU: 0x12E40F, offset: 0x12E40F, size: 0x8, addend: 0x0, symName: __ZNKSt3__129_AllocatorDestroyRangeReverseINS_9allocatorINS_12basic_stringIcNS_11char_traitsIcEENS1_IcEEEEEENS_16reverse_iteratorIPS6_EEEclB7v160006Ev, symObjAddr: 0xBC2C, symBinAddr: 0x12604, symSize: 0x44 }
  - { offsetInCU: 0x12E642, offset: 0x12E642, size: 0x8, addend: 0x0, symName: __ZNSt3__114__split_bufferINS_12basic_stringIcNS_11char_traitsIcEENS_9allocatorIcEEEERNS4_IS6_EEE17__destruct_at_endB7v160006EPS6_, symObjAddr: 0xBCA4, symBinAddr: 0x1267C, symSize: 0x54 }
  - { offsetInCU: 0x12E9F8, offset: 0x12E9F8, size: 0x8, addend: 0x0, symName: __ZNSt3__112__hash_tableINS_17__hash_value_typeINS_12basic_stringIcNS_11char_traitsIcEENS_9allocatorIcEEEENS_6vectorIS7_NS5_IS7_EEEEEENS_22__unordered_map_hasherIS7_SB_NS_4hashIS7_EENS_8equal_toIS7_EELb1EEENS_21__unordered_map_equalIS7_SB_SG_SE_Lb1EEENS5_ISB_EEE21__construct_node_hashIRKS7_JRSA_EEENS_10unique_ptrINS_11__hash_nodeISB_PvEENS_22__hash_node_destructorINS5_IST_EEEEEEmOT_DpOT0_, symObjAddr: 0xBF70, symBinAddr: 0x12948, symSize: 0x98 }
  - { offsetInCU: 0x12ED30, offset: 0x12ED30, size: 0x8, addend: 0x0, symName: __ZNSt3__112__hash_tableINS_17__hash_value_typeINS_12basic_stringIcNS_11char_traitsIcEENS_9allocatorIcEEEENS_6vectorIS7_NS5_IS7_EEEEEENS_22__unordered_map_hasherIS7_SB_NS_4hashIS7_EENS_8equal_toIS7_EELb1EEENS_21__unordered_map_equalIS7_SB_SG_SE_Lb1EEENS5_ISB_EEE8__rehashILb1EEEvm, symObjAddr: 0xC2B0, symBinAddr: 0x12C88, symSize: 0xDC }
  - { offsetInCU: 0x12EE22, offset: 0x12EE22, size: 0x8, addend: 0x0, symName: __ZNSt3__122__hash_node_destructorINS_9allocatorINS_11__hash_nodeINS_17__hash_value_typeINS_12basic_stringIcNS_11char_traitsIcEENS1_IcEEEENS_6vectorIS8_NS1_IS8_EEEEEEPvEEEEEclB7v160006EPSE_, symObjAddr: 0xC4E4, symBinAddr: 0x12EBC, symSize: 0x44 }
  - { offsetInCU: 0x12F210, offset: 0x12F210, size: 0x8, addend: 0x0, symName: __ZNSt3__14pairIKNS_12basic_stringIcNS_11char_traitsIcEENS_9allocatorIcEEEENS_6vectorIS6_NS4_IS6_EEEEEC2B7v160006IRS7_RSA_LPv0EEEOT_OT0_, symObjAddr: 0xC008, symBinAddr: 0x129E0, symSize: 0x50 }
  - { offsetInCU: 0x12F403, offset: 0x12F403, size: 0x8, addend: 0x0, symName: __ZNSt3__16vectorINS_12basic_stringIcNS_11char_traitsIcEENS_9allocatorIcEEEENS4_IS6_EEEC2ERKS8_, symObjAddr: 0xC058, symBinAddr: 0x12A30, symSize: 0xB4 }
  - { offsetInCU: 0x12F7D4, offset: 0x12F7D4, size: 0x8, addend: 0x0, symName: __ZNSt3__16vectorINS_12basic_stringIcNS_11char_traitsIcEENS_9allocatorIcEEEENS4_IS6_EEE11__vallocateB7v160006Em, symObjAddr: 0xC10C, symBinAddr: 0x12AE4, symSize: 0x50 }
  - { offsetInCU: 0x12F855, offset: 0x12F855, size: 0x8, addend: 0x0, symName: __ZNSt3__130__uninitialized_allocator_copyB7v160006INS_9allocatorINS_12basic_stringIcNS_11char_traitsIcEENS1_IcEEEEEEPS6_S8_S8_EET2_RT_T0_T1_S9_, symObjAddr: 0xC15C, symBinAddr: 0x12B34, symSize: 0xA0 }
  - { offsetInCU: 0x12F868, offset: 0x12F868, size: 0x8, addend: 0x0, symName: __ZNSt3__128__exception_guard_exceptionsINS_6vectorINS_12basic_stringIcNS_11char_traitsIcEENS_9allocatorIcEEEENS5_IS7_EEE16__destroy_vectorEED2B7v160006Ev, symObjAddr: 0xC27C, symBinAddr: 0x12C54, symSize: 0x34 }
  - { offsetInCU: 0x12F9B4, offset: 0x12F9B4, size: 0x8, addend: 0x0, symName: __ZNSt3__128__exception_guard_exceptionsINS_29_AllocatorDestroyRangeReverseINS_9allocatorINS_12basic_stringIcNS_11char_traitsIcEENS2_IcEEEEEEPS7_EEED2B7v160006Ev, symObjAddr: 0xC1FC, symBinAddr: 0x12BD4, symSize: 0x34 }
  - { offsetInCU: 0x12F9F5, offset: 0x12F9F5, size: 0x8, addend: 0x0, symName: __ZNKSt3__129_AllocatorDestroyRangeReverseINS_9allocatorINS_12basic_stringIcNS_11char_traitsIcEENS1_IcEEEEEEPS6_EclB7v160006Ev, symObjAddr: 0xC230, symBinAddr: 0x12C08, symSize: 0x4C }
  - { offsetInCU: 0x12FC25, offset: 0x12FC25, size: 0x8, addend: 0x0, symName: __ZNSt3__112__hash_tableINS_17__hash_value_typeINS_12basic_stringIcNS_11char_traitsIcEENS_9allocatorIcEEEENS_6vectorIS7_NS5_IS7_EEEEEENS_22__unordered_map_hasherIS7_SB_NS_4hashIS7_EENS_8equal_toIS7_EELb1EEENS_21__unordered_map_equalIS7_SB_SG_SE_Lb1EEENS5_ISB_EEE11__do_rehashILb1EEEvm, symObjAddr: 0xC38C, symBinAddr: 0x12D64, symSize: 0x158 }
  - { offsetInCU: 0x130115, offset: 0x130115, size: 0x8, addend: 0x0, symName: __ZNSt3__122__hash_node_destructorINS_9allocatorINS_11__hash_nodeINS_17__hash_value_typeINS_12basic_stringIcNS_11char_traitsIcEENS1_IcEEEENS_6vectorIS8_NS1_IS8_EEEEEEPvEEEEEclB7v160006EPSE_, symObjAddr: 0xC4E4, symBinAddr: 0x12EBC, symSize: 0x44 }
  - { offsetInCU: 0x1301C3, offset: 0x1301C3, size: 0x8, addend: 0x0, symName: __ZNSt3__120__shared_ptr_pointerIPKN8facebook3jsi6BufferENS_14default_deleteIS4_EENS_9allocatorIS4_EEED1Ev, symObjAddr: 0xC580, symBinAddr: 0x12F58, symSize: 0x4 }
  - { offsetInCU: 0x1301E7, offset: 0x1301E7, size: 0x8, addend: 0x0, symName: __ZNSt3__120__shared_ptr_pointerIPKN8facebook3jsi6BufferENS_14default_deleteIS4_EENS_9allocatorIS4_EEED1Ev, symObjAddr: 0xC580, symBinAddr: 0x12F58, symSize: 0x4 }
  - { offsetInCU: 0x13021E, offset: 0x13021E, size: 0x8, addend: 0x0, symName: __ZNSt3__120__shared_ptr_pointerIPKN8facebook3jsi6BufferENS_14default_deleteIS4_EENS_9allocatorIS4_EEED0Ev, symObjAddr: 0xC584, symBinAddr: 0x12F5C, symSize: 0x14 }
  - { offsetInCU: 0x1302BB, offset: 0x1302BB, size: 0x8, addend: 0x0, symName: __ZNSt3__120__shared_ptr_pointerIPKN8facebook3jsi6BufferENS_14default_deleteIS4_EENS_9allocatorIS4_EEE16__on_zero_sharedEv, symObjAddr: 0xC598, symBinAddr: 0x12F70, symSize: 0x18 }
  - { offsetInCU: 0x13030D, offset: 0x13030D, size: 0x8, addend: 0x0, symName: __ZNKSt3__120__shared_ptr_pointerIPKN8facebook3jsi6BufferENS_14default_deleteIS4_EENS_9allocatorIS4_EEE13__get_deleterERKSt9type_info, symObjAddr: 0xC5B0, symBinAddr: 0x12F88, symSize: 0x3C }
  - { offsetInCU: 0x1303BA, offset: 0x1303BA, size: 0x8, addend: 0x0, symName: __ZNSt3__120__shared_ptr_pointerIPKN8facebook3jsi6BufferENS_14default_deleteIS4_EENS_9allocatorIS4_EEE21__on_zero_shared_weakEv, symObjAddr: 0xC5EC, symBinAddr: 0x12FC4, symSize: 0x4 }
  - { offsetInCU: 0x1303F0, offset: 0x1303F0, size: 0x8, addend: 0x0, symName: __ZNSt3__120__shared_ptr_pointerIPKN8facebook3jsi6BufferENS_14default_deleteIS4_EENS_9allocatorIS4_EEE21__on_zero_shared_weakEv, symObjAddr: 0xC5EC, symBinAddr: 0x12FC4, symSize: 0x4 }
  - { offsetInCU: 0x130415, offset: 0x130415, size: 0x8, addend: 0x0, symName: __ZNSt3__120__shared_ptr_pointerIPKN8facebook3jsi6BufferENS_14default_deleteIS4_EENS_9allocatorIS4_EEE21__on_zero_shared_weakEv, symObjAddr: 0xC5EC, symBinAddr: 0x12FC4, symSize: 0x4 }
  - { offsetInCU: 0x130444, offset: 0x130444, size: 0x8, addend: 0x0, symName: __ZNSt3__120__shared_ptr_pointerIPKN8facebook3jsi6BufferENS_14default_deleteIS4_EENS_9allocatorIS4_EEE21__on_zero_shared_weakEv, symObjAddr: 0xC5EC, symBinAddr: 0x12FC4, symSize: 0x4 }
  - { offsetInCU: 0x13046D, offset: 0x13046D, size: 0x8, addend: 0x0, symName: __ZNSt3__120__shared_ptr_pointerIPKN8facebook3jsi6BufferENS_14default_deleteIS4_EENS_9allocatorIS4_EEE21__on_zero_shared_weakEv, symObjAddr: 0xC5EC, symBinAddr: 0x12FC4, symSize: 0x4 }
  - { offsetInCU: 0x13048F, offset: 0x13048F, size: 0x8, addend: 0x0, symName: __ZNSt3__120__shared_ptr_pointerIPKN8facebook3jsi6BufferENS_14default_deleteIS4_EENS_9allocatorIS4_EEE21__on_zero_shared_weakEv, symObjAddr: 0xC5EC, symBinAddr: 0x12FC4, symSize: 0x4 }
  - { offsetInCU: 0x1304CA, offset: 0x1304CA, size: 0x8, addend: 0x0, symName: __ZNSt3__120__shared_ptr_pointerIPN6hermes3hbc20BCProviderFromBufferENS_14default_deleteIS3_EENS_9allocatorIS3_EEED1Ev, symObjAddr: 0xC5F0, symBinAddr: 0x12FC8, symSize: 0x4 }
  - { offsetInCU: 0x1304EE, offset: 0x1304EE, size: 0x8, addend: 0x0, symName: __ZNSt3__120__shared_ptr_pointerIPN6hermes3hbc20BCProviderFromBufferENS_14default_deleteIS3_EENS_9allocatorIS3_EEED1Ev, symObjAddr: 0xC5F0, symBinAddr: 0x12FC8, symSize: 0x4 }
  - { offsetInCU: 0x130525, offset: 0x130525, size: 0x8, addend: 0x0, symName: __ZNSt3__120__shared_ptr_pointerIPN6hermes3hbc20BCProviderFromBufferENS_14default_deleteIS3_EENS_9allocatorIS3_EEED0Ev, symObjAddr: 0xC5F4, symBinAddr: 0x12FCC, symSize: 0x14 }
  - { offsetInCU: 0x13059A, offset: 0x13059A, size: 0x8, addend: 0x0, symName: __ZNSt3__120__shared_ptr_pointerIPN6hermes3hbc20BCProviderFromBufferENS_14default_deleteIS3_EENS_9allocatorIS3_EEE16__on_zero_sharedEv, symObjAddr: 0xC608, symBinAddr: 0x12FE0, symSize: 0x24 }
  - { offsetInCU: 0x13061A, offset: 0x13061A, size: 0x8, addend: 0x0, symName: __ZNKSt3__120__shared_ptr_pointerIPN6hermes3hbc20BCProviderFromBufferENS_14default_deleteIS3_EENS_9allocatorIS3_EEE13__get_deleterERKSt9type_info, symObjAddr: 0xC62C, symBinAddr: 0x13004, symSize: 0x3C }
  - { offsetInCU: 0x1306C7, offset: 0x1306C7, size: 0x8, addend: 0x0, symName: __ZNSt3__120__shared_ptr_pointerIPN6hermes3hbc20BCProviderFromBufferENS_14default_deleteIS3_EENS_9allocatorIS3_EEE21__on_zero_shared_weakEv, symObjAddr: 0xC668, symBinAddr: 0x13040, symSize: 0x4 }
  - { offsetInCU: 0x1306FD, offset: 0x1306FD, size: 0x8, addend: 0x0, symName: __ZNSt3__120__shared_ptr_pointerIPN6hermes3hbc20BCProviderFromBufferENS_14default_deleteIS3_EENS_9allocatorIS3_EEE21__on_zero_shared_weakEv, symObjAddr: 0xC668, symBinAddr: 0x13040, symSize: 0x4 }
  - { offsetInCU: 0x130722, offset: 0x130722, size: 0x8, addend: 0x0, symName: __ZNSt3__120__shared_ptr_pointerIPN6hermes3hbc20BCProviderFromBufferENS_14default_deleteIS3_EENS_9allocatorIS3_EEE21__on_zero_shared_weakEv, symObjAddr: 0xC668, symBinAddr: 0x13040, symSize: 0x4 }
  - { offsetInCU: 0x130751, offset: 0x130751, size: 0x8, addend: 0x0, symName: __ZNSt3__120__shared_ptr_pointerIPN6hermes3hbc20BCProviderFromBufferENS_14default_deleteIS3_EENS_9allocatorIS3_EEE21__on_zero_shared_weakEv, symObjAddr: 0xC668, symBinAddr: 0x13040, symSize: 0x4 }
  - { offsetInCU: 0x13077A, offset: 0x13077A, size: 0x8, addend: 0x0, symName: __ZNSt3__120__shared_ptr_pointerIPN6hermes3hbc20BCProviderFromBufferENS_14default_deleteIS3_EENS_9allocatorIS3_EEE21__on_zero_shared_weakEv, symObjAddr: 0xC668, symBinAddr: 0x13040, symSize: 0x4 }
  - { offsetInCU: 0x13079C, offset: 0x13079C, size: 0x8, addend: 0x0, symName: __ZNSt3__120__shared_ptr_pointerIPN6hermes3hbc20BCProviderFromBufferENS_14default_deleteIS3_EENS_9allocatorIS3_EEE21__on_zero_shared_weakEv, symObjAddr: 0xC668, symBinAddr: 0x13040, symSize: 0x4 }
  - { offsetInCU: 0x1307D8, offset: 0x1307D8, size: 0x8, addend: 0x0, symName: __ZNSt3__120__shared_ptr_emplaceIKN8facebook6hermes12_GLOBAL__N_124HermesPreparedJavaScriptENS_9allocatorIS5_EEED1Ev, symObjAddr: 0xC71C, symBinAddr: 0x130F4, symSize: 0x10 }
  - { offsetInCU: 0x1307FC, offset: 0x1307FC, size: 0x8, addend: 0x0, symName: __ZNSt3__120__shared_ptr_emplaceIKN8facebook6hermes12_GLOBAL__N_124HermesPreparedJavaScriptENS_9allocatorIS5_EEED1Ev, symObjAddr: 0xC71C, symBinAddr: 0x130F4, symSize: 0x10 }
  - { offsetInCU: 0x130835, offset: 0x130835, size: 0x8, addend: 0x0, symName: __ZNSt3__120__shared_ptr_emplaceIKN8facebook6hermes12_GLOBAL__N_124HermesPreparedJavaScriptENS_9allocatorIS5_EEED0Ev, symObjAddr: 0xC72C, symBinAddr: 0x13104, symSize: 0x20 }
  - { offsetInCU: 0x1308FD, offset: 0x1308FD, size: 0x8, addend: 0x0, symName: __ZNSt3__120__shared_ptr_emplaceIKN8facebook6hermes12_GLOBAL__N_124HermesPreparedJavaScriptENS_9allocatorIS5_EEE16__on_zero_sharedEv, symObjAddr: 0xC74C, symBinAddr: 0x13124, symSize: 0x3C }
  - { offsetInCU: 0x130B4D, offset: 0x130B4D, size: 0x8, addend: 0x0, symName: __ZNSt3__120__shared_ptr_emplaceIKN8facebook6hermes12_GLOBAL__N_124HermesPreparedJavaScriptENS_9allocatorIS5_EEE21__on_zero_shared_weakEv, symObjAddr: 0xC788, symBinAddr: 0x13160, symSize: 0x4 }
  - { offsetInCU: 0x130B82, offset: 0x130B82, size: 0x8, addend: 0x0, symName: __ZNSt3__120__shared_ptr_emplaceIKN8facebook6hermes12_GLOBAL__N_124HermesPreparedJavaScriptENS_9allocatorIS5_EEE21__on_zero_shared_weakEv, symObjAddr: 0xC788, symBinAddr: 0x13160, symSize: 0x4 }
  - { offsetInCU: 0x130BA7, offset: 0x130BA7, size: 0x8, addend: 0x0, symName: __ZNSt3__120__shared_ptr_emplaceIKN8facebook6hermes12_GLOBAL__N_124HermesPreparedJavaScriptENS_9allocatorIS5_EEE21__on_zero_shared_weakEv, symObjAddr: 0xC788, symBinAddr: 0x13160, symSize: 0x4 }
  - { offsetInCU: 0x130BCC, offset: 0x130BCC, size: 0x8, addend: 0x0, symName: __ZNSt3__120__shared_ptr_emplaceIKN8facebook6hermes12_GLOBAL__N_124HermesPreparedJavaScriptENS_9allocatorIS5_EEE21__on_zero_shared_weakEv, symObjAddr: 0xC788, symBinAddr: 0x13160, symSize: 0x4 }
  - { offsetInCU: 0x130BFC, offset: 0x130BFC, size: 0x8, addend: 0x0, symName: __ZNSt3__120__shared_ptr_emplaceIKN8facebook6hermes12_GLOBAL__N_124HermesPreparedJavaScriptENS_9allocatorIS5_EEE21__on_zero_shared_weakEv, symObjAddr: 0xC788, symBinAddr: 0x13160, symSize: 0x4 }
  - { offsetInCU: 0x130C26, offset: 0x130C26, size: 0x8, addend: 0x0, symName: __ZNSt3__120__shared_ptr_emplaceIKN8facebook6hermes12_GLOBAL__N_124HermesPreparedJavaScriptENS_9allocatorIS5_EEE21__on_zero_shared_weakEv, symObjAddr: 0xC788, symBinAddr: 0x13160, symSize: 0x4 }
  - { offsetInCU: 0x130C49, offset: 0x130C49, size: 0x8, addend: 0x0, symName: __ZNSt3__120__shared_ptr_emplaceIKN8facebook6hermes12_GLOBAL__N_124HermesPreparedJavaScriptENS_9allocatorIS5_EEE21__on_zero_shared_weakEv, symObjAddr: 0xC788, symBinAddr: 0x13160, symSize: 0x4 }
  - { offsetInCU: 0x130C69, offset: 0x130C69, size: 0x8, addend: 0x0, symName: __ZN8facebook6hermes12_GLOBAL__N_124HermesPreparedJavaScriptD1Ev, symObjAddr: 0xC78C, symBinAddr: 0x13164, symSize: 0x38 }
  - { offsetInCU: 0x130E29, offset: 0x130E29, size: 0x8, addend: 0x0, symName: __ZN8facebook6hermes12_GLOBAL__N_124HermesPreparedJavaScriptD0Ev, symObjAddr: 0xC7C4, symBinAddr: 0x1319C, symSize: 0x3C }
  - { offsetInCU: 0x13103B, offset: 0x13103B, size: 0x8, addend: 0x0, symName: __ZNSt3__120__shared_ptr_pointerIPN6hermes3hbc14BCProviderBaseENS_14default_deleteIS3_EENS_9allocatorIS3_EEED1Ev, symObjAddr: 0xC800, symBinAddr: 0x131D8, symSize: 0x4 }
  - { offsetInCU: 0x13105F, offset: 0x13105F, size: 0x8, addend: 0x0, symName: __ZNSt3__120__shared_ptr_pointerIPN6hermes3hbc14BCProviderBaseENS_14default_deleteIS3_EENS_9allocatorIS3_EEED1Ev, symObjAddr: 0xC800, symBinAddr: 0x131D8, symSize: 0x4 }
  - { offsetInCU: 0x131096, offset: 0x131096, size: 0x8, addend: 0x0, symName: __ZNSt3__120__shared_ptr_pointerIPN6hermes3hbc14BCProviderBaseENS_14default_deleteIS3_EENS_9allocatorIS3_EEED0Ev, symObjAddr: 0xC804, symBinAddr: 0x131DC, symSize: 0x14 }
  - { offsetInCU: 0x13110B, offset: 0x13110B, size: 0x8, addend: 0x0, symName: __ZNSt3__120__shared_ptr_pointerIPN6hermes3hbc14BCProviderBaseENS_14default_deleteIS3_EENS_9allocatorIS3_EEE16__on_zero_sharedEv, symObjAddr: 0xC818, symBinAddr: 0x131F0, symSize: 0x18 }
  - { offsetInCU: 0x13115D, offset: 0x13115D, size: 0x8, addend: 0x0, symName: __ZNKSt3__120__shared_ptr_pointerIPN6hermes3hbc14BCProviderBaseENS_14default_deleteIS3_EENS_9allocatorIS3_EEE13__get_deleterERKSt9type_info, symObjAddr: 0xC830, symBinAddr: 0x13208, symSize: 0x3C }
  - { offsetInCU: 0x13120A, offset: 0x13120A, size: 0x8, addend: 0x0, symName: __ZNSt3__120__shared_ptr_pointerIPN6hermes3hbc14BCProviderBaseENS_14default_deleteIS3_EENS_9allocatorIS3_EEE21__on_zero_shared_weakEv, symObjAddr: 0xC86C, symBinAddr: 0x13244, symSize: 0x4 }
  - { offsetInCU: 0x131240, offset: 0x131240, size: 0x8, addend: 0x0, symName: __ZNSt3__120__shared_ptr_pointerIPN6hermes3hbc14BCProviderBaseENS_14default_deleteIS3_EENS_9allocatorIS3_EEE21__on_zero_shared_weakEv, symObjAddr: 0xC86C, symBinAddr: 0x13244, symSize: 0x4 }
  - { offsetInCU: 0x131265, offset: 0x131265, size: 0x8, addend: 0x0, symName: __ZNSt3__120__shared_ptr_pointerIPN6hermes3hbc14BCProviderBaseENS_14default_deleteIS3_EENS_9allocatorIS3_EEE21__on_zero_shared_weakEv, symObjAddr: 0xC86C, symBinAddr: 0x13244, symSize: 0x4 }
  - { offsetInCU: 0x131294, offset: 0x131294, size: 0x8, addend: 0x0, symName: __ZNSt3__120__shared_ptr_pointerIPN6hermes3hbc14BCProviderBaseENS_14default_deleteIS3_EENS_9allocatorIS3_EEE21__on_zero_shared_weakEv, symObjAddr: 0xC86C, symBinAddr: 0x13244, symSize: 0x4 }
  - { offsetInCU: 0x1312BD, offset: 0x1312BD, size: 0x8, addend: 0x0, symName: __ZNSt3__120__shared_ptr_pointerIPN6hermes3hbc14BCProviderBaseENS_14default_deleteIS3_EENS_9allocatorIS3_EEE21__on_zero_shared_weakEv, symObjAddr: 0xC86C, symBinAddr: 0x13244, symSize: 0x4 }
  - { offsetInCU: 0x1312DF, offset: 0x1312DF, size: 0x8, addend: 0x0, symName: __ZNSt3__120__shared_ptr_pointerIPN6hermes3hbc14BCProviderBaseENS_14default_deleteIS3_EENS_9allocatorIS3_EEE21__on_zero_shared_weakEv, symObjAddr: 0xC86C, symBinAddr: 0x13244, symSize: 0x4 }
  - { offsetInCU: 0x131374, offset: 0x131374, size: 0x8, addend: 0x0, symName: __ZN6hermes2vm15BigIntPrimitive32createUninitializedWithNumDigitsERNS0_7RuntimeEj, symObjAddr: 0xC8E4, symBinAddr: 0x132BC, symSize: 0x94 }
  - { offsetInCU: 0x13154C, offset: 0x13154C, size: 0x8, addend: 0x0, symName: __ZN6hermes2vm15BigIntPrimitive12raiseOnErrorERNS0_7RuntimeENS_6bigint15OperationStatusE, symObjAddr: 0xC978, symBinAddr: 0x13350, symSize: 0xC4 }
  - { offsetInCU: 0x13182B, offset: 0x13182B, size: 0x8, addend: 0x0, symName: __ZN6hermes2vm6GCBase5makeAINS0_15BigIntPrimitiveELb0ELNS0_12HasFinalizerE0ELNS0_9LongLivedE0EJRjEEEPT_jDpOT3_, symObjAddr: 0xCA3C, symBinAddr: 0x13414, symSize: 0x60 }
  - { offsetInCU: 0x131CDB, offset: 0x131CDB, size: 0x8, addend: 0x0, symName: __ZN8facebook6hermes17HermesRuntimeImpl8JsiProxyD1Ev, symObjAddr: 0xCB8C, symBinAddr: 0x13564, symSize: 0x28 }
  - { offsetInCU: 0x131D4C, offset: 0x131D4C, size: 0x8, addend: 0x0, symName: __ZNSt3__110shared_ptrIN8facebook3jsi10HostObjectEED2B7v160006Ev, symObjAddr: 0xD7A8, symBinAddr: 0x14180, symSize: 0x58 }
  - { offsetInCU: 0x131DFB, offset: 0x131DFB, size: 0x8, addend: 0x0, symName: __ZN8facebook6hermes17HermesRuntimeImpl8JsiProxyD0Ev, symObjAddr: 0xCBB4, symBinAddr: 0x1358C, symSize: 0x2C }
  - { offsetInCU: 0x13218D, offset: 0x13218D, size: 0x8, addend: 0x0, symName: __ZN8facebook6hermes17HermesRuntimeImpl8JsiProxy3getEN6hermes2vm8SymbolIDE, symObjAddr: 0xCBE0, symBinAddr: 0x135B8, symSize: 0x3A0 }
  - { offsetInCU: 0x132D6E, offset: 0x132D6E, size: 0x8, addend: 0x0, symName: __ZNK6hermes2vm10StringView7toTwineEv, symObjAddr: 0xD680, symBinAddr: 0x14058, symSize: 0x78 }
  - { offsetInCU: 0x132EFE, offset: 0x132EFE, size: 0x8, addend: 0x0, symName: __ZN8facebook6hermes17HermesRuntimeImpl8JsiProxy3setEN6hermes2vm8SymbolIDENS4_11HermesValueE, symObjAddr: 0xCF80, symBinAddr: 0x13958, symSize: 0x34C }
  - { offsetInCU: 0x133AFC, offset: 0x133AFC, size: 0x8, addend: 0x0, symName: __ZN8facebook6hermes17HermesRuntimeImpl8JsiProxy20getHostPropertyNamesEv, symObjAddr: 0xD2CC, symBinAddr: 0x13CA4, symSize: 0x308 }
  - { offsetInCU: 0x1345BC, offset: 0x1345BC, size: 0x8, addend: 0x0, symName: __ZNSt3__16vectorIN8facebook3jsi10PropNameIDENS_9allocatorIS3_EEED2B7v160006Ev, symObjAddr: 0xD6F8, symBinAddr: 0x140D0, symSize: 0x38 }
  - { offsetInCU: 0x134893, offset: 0x134893, size: 0x8, addend: 0x0, symName: __ZNSt3__16vectorIN8facebook3jsi10PropNameIDENS_9allocatorIS3_EEE16__destroy_vectorclB7v160006Ev, symObjAddr: 0xD730, symBinAddr: 0x14108, symSize: 0x78 }
  - { offsetInCU: 0x134DB6, offset: 0x134DB6, size: 0x8, addend: 0x0, symName: __ZN8facebook6hermes17HermesRuntimeImpl9HFContext4funcEPvRN6hermes2vm7RuntimeENS5_10NativeArgsE, symObjAddr: 0xD904, symBinAddr: 0x142DC, symSize: 0x32C }
  - { offsetInCU: 0x135829, offset: 0x135829, size: 0x8, addend: 0x0, symName: __ZN4llvh23SmallVectorTemplateBaseIN8facebook3jsi5ValueELb0EE9push_backEOS3_, symObjAddr: 0xDC84, symBinAddr: 0x1465C, symSize: 0x5C }
  - { offsetInCU: 0x135921, offset: 0x135921, size: 0x8, addend: 0x0, symName: __ZNKSt3__18functionIFN8facebook3jsi5ValueERNS2_7RuntimeERKS3_PS6_mEEclES5_S7_S8_m, symObjAddr: 0xDCE0, symBinAddr: 0x146B8, symSize: 0x3C }
  - { offsetInCU: 0x1359D9, offset: 0x1359D9, size: 0x8, addend: 0x0, symName: __ZN4llvh23SmallVectorTemplateBaseIN8facebook3jsi5ValueELb0EE4growEm, symObjAddr: 0xDD1C, symBinAddr: 0x146F4, symSize: 0x108 }
  - { offsetInCU: 0x1359E4, offset: 0x1359E4, size: 0x8, addend: 0x0, symName: __ZN4llvh11SmallVectorIN8facebook3jsi5ValueELj8EED2Ev, symObjAddr: 0xDE70, symBinAddr: 0x14848, symSize: 0x60 }
  - { offsetInCU: 0x135AF6, offset: 0x135AF6, size: 0x8, addend: 0x0, symName: __ZN8facebook6hermes17HermesRuntimeImpl9HFContext8finalizeEPv, symObjAddr: 0xDC30, symBinAddr: 0x14608, symSize: 0x54 }
  - { offsetInCU: 0x135C00, offset: 0x135C00, size: 0x8, addend: 0x0, symName: __ZN4llvh23SmallVectorTemplateBaseIN8facebook3jsi5ValueELb0EE4growEm, symObjAddr: 0xDD1C, symBinAddr: 0x146F4, symSize: 0x108 }
  - { offsetInCU: 0x13600F, offset: 0x13600F, size: 0x8, addend: 0x0, symName: __ZNSt3__117bad_function_callD1Ev, symObjAddr: 0xDE58, symBinAddr: 0x14830, symSize: 0x4 }
  - { offsetInCU: 0x136033, offset: 0x136033, size: 0x8, addend: 0x0, symName: __ZNSt3__117bad_function_callD1Ev, symObjAddr: 0xDE58, symBinAddr: 0x14830, symSize: 0x4 }
  - { offsetInCU: 0x136068, offset: 0x136068, size: 0x8, addend: 0x0, symName: __ZNSt3__117bad_function_callD0Ev, symObjAddr: 0xDE5C, symBinAddr: 0x14834, symSize: 0x14 }
  - { offsetInCU: 0x1369EF, offset: 0x1369EF, size: 0x8, addend: 0x0, symName: __ZNSt3__16vectorINS_8functionIFvPN6hermes2vm7HadesGCERNS3_12RootAcceptorEEEENS_9allocatorIS9_EEE12emplace_backIJS9_EEERS9_DpOT_, symObjAddr: 0xE520, symBinAddr: 0x14EF0, symSize: 0x100 }
  - { offsetInCU: 0x136EDC, offset: 0x136EDC, size: 0x8, addend: 0x0, symName: __ZNSt3__16vectorINS_8functionIFvPN6hermes2vm7HadesGCERNS3_16WeakRootAcceptorEEEENS_9allocatorIS9_EEE12emplace_backIJS9_EEERS9_DpOT_, symObjAddr: 0xEA18, symBinAddr: 0x153E8, symSize: 0x100 }
  - { offsetInCU: 0x1373E1, offset: 0x1373E1, size: 0x8, addend: 0x0, symName: __ZN8facebook6hermes13HermesRuntimeD1Ev, symObjAddr: 0xE518, symBinAddr: 0x1B42EC, symSize: 0x4 }
  - { offsetInCU: 0x1377ED, offset: 0x1377ED, size: 0x8, addend: 0x0, symName: __ZNSt3__110__function12__value_funcIFvPN6hermes2vm7HadesGCERNS3_12RootAcceptorEEEC2B7v160006EOS9_, symObjAddr: 0xE620, symBinAddr: 0x14FF0, symSize: 0x64 }
  - { offsetInCU: 0x13783D, offset: 0x13783D, size: 0x8, addend: 0x0, symName: __ZNSt3__114__split_bufferINS_8functionIFvPN6hermes2vm7HadesGCERNS3_12RootAcceptorEEEERNS_9allocatorIS9_EEED2Ev, symObjAddr: 0xE874, symBinAddr: 0x15244, symSize: 0x30 }
  - { offsetInCU: 0x137948, offset: 0x137948, size: 0x8, addend: 0x0, symName: __ZNKSt3__16vectorINS_8functionIFvPN6hermes2vm7HadesGCERNS3_12RootAcceptorEEEENS_9allocatorIS9_EEE20__throw_length_errorB7v160006Ev, symObjAddr: 0xE6F8, symBinAddr: 0x150C8, symSize: 0x14 }
  - { offsetInCU: 0x137972, offset: 0x137972, size: 0x8, addend: 0x0, symName: __ZNSt3__119__allocate_at_leastB7v160006INS_9allocatorINS_8functionIFvPN6hermes2vm7HadesGCERNS4_12RootAcceptorEEEEEEEENS_19__allocation_resultINS_16allocator_traitsIT_E7pointerEEERSE_m, symObjAddr: 0xE70C, symBinAddr: 0x150DC, symSize: 0x34 }
  - { offsetInCU: 0x137A5F, offset: 0x137A5F, size: 0x8, addend: 0x0, symName: __ZNSt3__128__exception_guard_exceptionsINS_29_AllocatorDestroyRangeReverseINS_9allocatorINS_8functionIFvPN6hermes2vm7HadesGCERNS5_12RootAcceptorEEEEEENS_16reverse_iteratorIPSB_EEEEED2B7v160006Ev, symObjAddr: 0xE7E0, symBinAddr: 0x151B0, symSize: 0x34 }
  - { offsetInCU: 0x137AA0, offset: 0x137AA0, size: 0x8, addend: 0x0, symName: __ZNKSt3__129_AllocatorDestroyRangeReverseINS_9allocatorINS_8functionIFvPN6hermes2vm7HadesGCERNS4_12RootAcceptorEEEEEENS_16reverse_iteratorIPSA_EEEclB7v160006Ev, symObjAddr: 0xE814, symBinAddr: 0x151E4, symSize: 0x60 }
  - { offsetInCU: 0x137CB0, offset: 0x137CB0, size: 0x8, addend: 0x0, symName: __ZNSt3__114__split_bufferINS_8functionIFvPN6hermes2vm7HadesGCERNS3_12RootAcceptorEEEERNS_9allocatorIS9_EEE5clearB7v160006Ev, symObjAddr: 0xE8A4, symBinAddr: 0x15274, symSize: 0x6C }
  - { offsetInCU: 0x137E46, offset: 0x137E46, size: 0x8, addend: 0x0, symName: __ZNSt3__110__function6__funcIZN8facebook6hermes17HermesRuntimeImplC1ERKN6hermes2vm13RuntimeConfigEEUlPNS6_7HadesGCERNS6_12RootAcceptorEE_NS_9allocatorISE_EEFvSB_SD_EED1Ev, symObjAddr: 0xE910, symBinAddr: 0x152E0, symSize: 0x4 }
  - { offsetInCU: 0x137E72, offset: 0x137E72, size: 0x8, addend: 0x0, symName: __ZNSt3__110__function6__funcIZN8facebook6hermes17HermesRuntimeImplC1ERKN6hermes2vm13RuntimeConfigEEUlPNS6_7HadesGCERNS6_12RootAcceptorEE_NS_9allocatorISE_EEFvSB_SD_EED0Ev, symObjAddr: 0xE914, symBinAddr: 0x152E4, symSize: 0x4 }
  - { offsetInCU: 0x137EA1, offset: 0x137EA1, size: 0x8, addend: 0x0, symName: __ZNSt3__110__function6__funcIZN8facebook6hermes17HermesRuntimeImplC1ERKN6hermes2vm13RuntimeConfigEEUlPNS6_7HadesGCERNS6_12RootAcceptorEE_NS_9allocatorISE_EEFvSB_SD_EED0Ev, symObjAddr: 0xE914, symBinAddr: 0x152E4, symSize: 0x4 }
  - { offsetInCU: 0x13809F, offset: 0x13809F, size: 0x8, addend: 0x0, symName: __ZNKSt3__110__function6__funcIZN8facebook6hermes17HermesRuntimeImplC1ERKN6hermes2vm13RuntimeConfigEEUlPNS6_7HadesGCERNS6_12RootAcceptorEE_NS_9allocatorISE_EEFvSB_SD_EE7__cloneEv, symObjAddr: 0xE918, symBinAddr: 0x152E8, symSize: 0x34 }
  - { offsetInCU: 0x1383B9, offset: 0x1383B9, size: 0x8, addend: 0x0, symName: __ZNKSt3__110__function6__funcIZN8facebook6hermes17HermesRuntimeImplC1ERKN6hermes2vm13RuntimeConfigEEUlPNS6_7HadesGCERNS6_12RootAcceptorEE_NS_9allocatorISE_EEFvSB_SD_EE7__cloneEPNS0_6__baseISH_EE, symObjAddr: 0xE94C, symBinAddr: 0x1531C, symSize: 0x14 }
  - { offsetInCU: 0x1383F2, offset: 0x1383F2, size: 0x8, addend: 0x0, symName: __ZNKSt3__110__function6__funcIZN8facebook6hermes17HermesRuntimeImplC1ERKN6hermes2vm13RuntimeConfigEEUlPNS6_7HadesGCERNS6_12RootAcceptorEE_NS_9allocatorISE_EEFvSB_SD_EE7__cloneEPNS0_6__baseISH_EE, symObjAddr: 0xE94C, symBinAddr: 0x1531C, symSize: 0x14 }
  - { offsetInCU: 0x138424, offset: 0x138424, size: 0x8, addend: 0x0, symName: __ZNKSt3__110__function6__funcIZN8facebook6hermes17HermesRuntimeImplC1ERKN6hermes2vm13RuntimeConfigEEUlPNS6_7HadesGCERNS6_12RootAcceptorEE_NS_9allocatorISE_EEFvSB_SD_EE7__cloneEPNS0_6__baseISH_EE, symObjAddr: 0xE94C, symBinAddr: 0x1531C, symSize: 0x14 }
  - { offsetInCU: 0x138456, offset: 0x138456, size: 0x8, addend: 0x0, symName: __ZNKSt3__110__function6__funcIZN8facebook6hermes17HermesRuntimeImplC1ERKN6hermes2vm13RuntimeConfigEEUlPNS6_7HadesGCERNS6_12RootAcceptorEE_NS_9allocatorISE_EEFvSB_SD_EE7__cloneEPNS0_6__baseISH_EE, symObjAddr: 0xE94C, symBinAddr: 0x1531C, symSize: 0x14 }
  - { offsetInCU: 0x13846C, offset: 0x13846C, size: 0x8, addend: 0x0, symName: __ZNKSt3__110__function6__funcIZN8facebook6hermes17HermesRuntimeImplC1ERKN6hermes2vm13RuntimeConfigEEUlPNS6_7HadesGCERNS6_12RootAcceptorEE_NS_9allocatorISE_EEFvSB_SD_EE7__cloneEPNS0_6__baseISH_EE, symObjAddr: 0xE94C, symBinAddr: 0x1531C, symSize: 0x14 }
  - { offsetInCU: 0x138481, offset: 0x138481, size: 0x8, addend: 0x0, symName: __ZNKSt3__110__function6__funcIZN8facebook6hermes17HermesRuntimeImplC1ERKN6hermes2vm13RuntimeConfigEEUlPNS6_7HadesGCERNS6_12RootAcceptorEE_NS_9allocatorISE_EEFvSB_SD_EE7__cloneEPNS0_6__baseISH_EE, symObjAddr: 0xE94C, symBinAddr: 0x1531C, symSize: 0x14 }
  - { offsetInCU: 0x138496, offset: 0x138496, size: 0x8, addend: 0x0, symName: __ZNKSt3__110__function6__funcIZN8facebook6hermes17HermesRuntimeImplC1ERKN6hermes2vm13RuntimeConfigEEUlPNS6_7HadesGCERNS6_12RootAcceptorEE_NS_9allocatorISE_EEFvSB_SD_EE7__cloneEPNS0_6__baseISH_EE, symObjAddr: 0xE94C, symBinAddr: 0x1531C, symSize: 0x14 }
  - { offsetInCU: 0x1384AB, offset: 0x1384AB, size: 0x8, addend: 0x0, symName: __ZNKSt3__110__function6__funcIZN8facebook6hermes17HermesRuntimeImplC1ERKN6hermes2vm13RuntimeConfigEEUlPNS6_7HadesGCERNS6_12RootAcceptorEE_NS_9allocatorISE_EEFvSB_SD_EE7__cloneEPNS0_6__baseISH_EE, symObjAddr: 0xE94C, symBinAddr: 0x1531C, symSize: 0x14 }
  - { offsetInCU: 0x1384C3, offset: 0x1384C3, size: 0x8, addend: 0x0, symName: __ZNSt3__110__function6__funcIZN8facebook6hermes17HermesRuntimeImplC1ERKN6hermes2vm13RuntimeConfigEEUlPNS6_7HadesGCERNS6_12RootAcceptorEE_NS_9allocatorISE_EEFvSB_SD_EE7destroyEv, symObjAddr: 0xE960, symBinAddr: 0x15330, symSize: 0x4 }
  - { offsetInCU: 0x138518, offset: 0x138518, size: 0x8, addend: 0x0, symName: __ZNSt3__110__function6__funcIZN8facebook6hermes17HermesRuntimeImplC1ERKN6hermes2vm13RuntimeConfigEEUlPNS6_7HadesGCERNS6_12RootAcceptorEE_NS_9allocatorISE_EEFvSB_SD_EE18destroy_deallocateEv, symObjAddr: 0xE964, symBinAddr: 0x15334, symSize: 0x4 }
  - { offsetInCU: 0x13854F, offset: 0x13854F, size: 0x8, addend: 0x0, symName: __ZNSt3__110__function6__funcIZN8facebook6hermes17HermesRuntimeImplC1ERKN6hermes2vm13RuntimeConfigEEUlPNS6_7HadesGCERNS6_12RootAcceptorEE_NS_9allocatorISE_EEFvSB_SD_EE18destroy_deallocateEv, symObjAddr: 0xE964, symBinAddr: 0x15334, symSize: 0x4 }
  - { offsetInCU: 0x138574, offset: 0x138574, size: 0x8, addend: 0x0, symName: __ZNSt3__110__function6__funcIZN8facebook6hermes17HermesRuntimeImplC1ERKN6hermes2vm13RuntimeConfigEEUlPNS6_7HadesGCERNS6_12RootAcceptorEE_NS_9allocatorISE_EEFvSB_SD_EE18destroy_deallocateEv, symObjAddr: 0xE964, symBinAddr: 0x15334, symSize: 0x4 }
  - { offsetInCU: 0x1385A3, offset: 0x1385A3, size: 0x8, addend: 0x0, symName: __ZNSt3__110__function6__funcIZN8facebook6hermes17HermesRuntimeImplC1ERKN6hermes2vm13RuntimeConfigEEUlPNS6_7HadesGCERNS6_12RootAcceptorEE_NS_9allocatorISE_EEFvSB_SD_EE18destroy_deallocateEv, symObjAddr: 0xE964, symBinAddr: 0x15334, symSize: 0x4 }
  - { offsetInCU: 0x1385CC, offset: 0x1385CC, size: 0x8, addend: 0x0, symName: __ZNSt3__110__function6__funcIZN8facebook6hermes17HermesRuntimeImplC1ERKN6hermes2vm13RuntimeConfigEEUlPNS6_7HadesGCERNS6_12RootAcceptorEE_NS_9allocatorISE_EEFvSB_SD_EE18destroy_deallocateEv, symObjAddr: 0xE964, symBinAddr: 0x15334, symSize: 0x4 }
  - { offsetInCU: 0x1385EE, offset: 0x1385EE, size: 0x8, addend: 0x0, symName: __ZNSt3__110__function6__funcIZN8facebook6hermes17HermesRuntimeImplC1ERKN6hermes2vm13RuntimeConfigEEUlPNS6_7HadesGCERNS6_12RootAcceptorEE_NS_9allocatorISE_EEFvSB_SD_EE18destroy_deallocateEv, symObjAddr: 0xE964, symBinAddr: 0x15334, symSize: 0x4 }
  - { offsetInCU: 0x138788, offset: 0x138788, size: 0x8, addend: 0x0, symName: __ZNSt3__110__function6__funcIZN8facebook6hermes17HermesRuntimeImplC1ERKN6hermes2vm13RuntimeConfigEEUlPNS6_7HadesGCERNS6_12RootAcceptorEE_NS_9allocatorISE_EEFvSB_SD_EEclEOSB_SD_, symObjAddr: 0xE968, symBinAddr: 0x15338, symSize: 0x68 }
  - { offsetInCU: 0x1389B8, offset: 0x1389B8, size: 0x8, addend: 0x0, symName: __ZNKSt3__110__function6__funcIZN8facebook6hermes17HermesRuntimeImplC1ERKN6hermes2vm13RuntimeConfigEEUlPNS6_7HadesGCERNS6_12RootAcceptorEE_NS_9allocatorISE_EEFvSB_SD_EE6targetERKSt9type_info, symObjAddr: 0xE9D0, symBinAddr: 0x153A0, symSize: 0x3C }
  - { offsetInCU: 0x138A09, offset: 0x138A09, size: 0x8, addend: 0x0, symName: __ZNKSt3__110__function6__funcIZN8facebook6hermes17HermesRuntimeImplC1ERKN6hermes2vm13RuntimeConfigEEUlPNS6_7HadesGCERNS6_12RootAcceptorEE_NS_9allocatorISE_EEFvSB_SD_EE11target_typeEv, symObjAddr: 0xEA0C, symBinAddr: 0x153DC, symSize: 0xC }
  - { offsetInCU: 0x138E13, offset: 0x138E13, size: 0x8, addend: 0x0, symName: __ZNSt3__110__function12__value_funcIFvPN6hermes2vm7HadesGCERNS3_16WeakRootAcceptorEEEC2B7v160006EOS9_, symObjAddr: 0xEB18, symBinAddr: 0x154E8, symSize: 0x64 }
  - { offsetInCU: 0x138E63, offset: 0x138E63, size: 0x8, addend: 0x0, symName: __ZNSt3__114__split_bufferINS_8functionIFvPN6hermes2vm7HadesGCERNS3_16WeakRootAcceptorEEEERNS_9allocatorIS9_EEED2Ev, symObjAddr: 0xED6C, symBinAddr: 0x1573C, symSize: 0x30 }
  - { offsetInCU: 0x138F6E, offset: 0x138F6E, size: 0x8, addend: 0x0, symName: __ZNKSt3__16vectorINS_8functionIFvPN6hermes2vm7HadesGCERNS3_16WeakRootAcceptorEEEENS_9allocatorIS9_EEE20__throw_length_errorB7v160006Ev, symObjAddr: 0xEBF0, symBinAddr: 0x155C0, symSize: 0x14 }
  - { offsetInCU: 0x138F98, offset: 0x138F98, size: 0x8, addend: 0x0, symName: __ZNSt3__119__allocate_at_leastB7v160006INS_9allocatorINS_8functionIFvPN6hermes2vm7HadesGCERNS4_16WeakRootAcceptorEEEEEEEENS_19__allocation_resultINS_16allocator_traitsIT_E7pointerEEERSE_m, symObjAddr: 0xEC04, symBinAddr: 0x155D4, symSize: 0x34 }
  - { offsetInCU: 0x139085, offset: 0x139085, size: 0x8, addend: 0x0, symName: __ZNSt3__128__exception_guard_exceptionsINS_29_AllocatorDestroyRangeReverseINS_9allocatorINS_8functionIFvPN6hermes2vm7HadesGCERNS5_16WeakRootAcceptorEEEEEENS_16reverse_iteratorIPSB_EEEEED2B7v160006Ev, symObjAddr: 0xECD8, symBinAddr: 0x156A8, symSize: 0x34 }
  - { offsetInCU: 0x1390C6, offset: 0x1390C6, size: 0x8, addend: 0x0, symName: __ZNKSt3__129_AllocatorDestroyRangeReverseINS_9allocatorINS_8functionIFvPN6hermes2vm7HadesGCERNS4_16WeakRootAcceptorEEEEEENS_16reverse_iteratorIPSA_EEEclB7v160006Ev, symObjAddr: 0xED0C, symBinAddr: 0x156DC, symSize: 0x60 }
  - { offsetInCU: 0x1392D6, offset: 0x1392D6, size: 0x8, addend: 0x0, symName: __ZNSt3__114__split_bufferINS_8functionIFvPN6hermes2vm7HadesGCERNS3_16WeakRootAcceptorEEEERNS_9allocatorIS9_EEE5clearB7v160006Ev, symObjAddr: 0xED9C, symBinAddr: 0x1576C, symSize: 0x6C }
  - { offsetInCU: 0x13946C, offset: 0x13946C, size: 0x8, addend: 0x0, symName: __ZNSt3__110__function6__funcIZN8facebook6hermes17HermesRuntimeImplC1ERKN6hermes2vm13RuntimeConfigEEUlPNS6_7HadesGCERNS6_16WeakRootAcceptorEE_NS_9allocatorISE_EEFvSB_SD_EED1Ev, symObjAddr: 0xEE08, symBinAddr: 0x157D8, symSize: 0x4 }
  - { offsetInCU: 0x139498, offset: 0x139498, size: 0x8, addend: 0x0, symName: __ZNSt3__110__function6__funcIZN8facebook6hermes17HermesRuntimeImplC1ERKN6hermes2vm13RuntimeConfigEEUlPNS6_7HadesGCERNS6_16WeakRootAcceptorEE_NS_9allocatorISE_EEFvSB_SD_EED0Ev, symObjAddr: 0xEE0C, symBinAddr: 0x157DC, symSize: 0x4 }
  - { offsetInCU: 0x1394C7, offset: 0x1394C7, size: 0x8, addend: 0x0, symName: __ZNSt3__110__function6__funcIZN8facebook6hermes17HermesRuntimeImplC1ERKN6hermes2vm13RuntimeConfigEEUlPNS6_7HadesGCERNS6_16WeakRootAcceptorEE_NS_9allocatorISE_EEFvSB_SD_EED0Ev, symObjAddr: 0xEE0C, symBinAddr: 0x157DC, symSize: 0x4 }
  - { offsetInCU: 0x1396C5, offset: 0x1396C5, size: 0x8, addend: 0x0, symName: __ZNKSt3__110__function6__funcIZN8facebook6hermes17HermesRuntimeImplC1ERKN6hermes2vm13RuntimeConfigEEUlPNS6_7HadesGCERNS6_16WeakRootAcceptorEE_NS_9allocatorISE_EEFvSB_SD_EE7__cloneEv, symObjAddr: 0xEE10, symBinAddr: 0x157E0, symSize: 0x34 }
  - { offsetInCU: 0x1399DF, offset: 0x1399DF, size: 0x8, addend: 0x0, symName: __ZNKSt3__110__function6__funcIZN8facebook6hermes17HermesRuntimeImplC1ERKN6hermes2vm13RuntimeConfigEEUlPNS6_7HadesGCERNS6_16WeakRootAcceptorEE_NS_9allocatorISE_EEFvSB_SD_EE7__cloneEPNS0_6__baseISH_EE, symObjAddr: 0xEE44, symBinAddr: 0x15814, symSize: 0x14 }
  - { offsetInCU: 0x139A18, offset: 0x139A18, size: 0x8, addend: 0x0, symName: __ZNKSt3__110__function6__funcIZN8facebook6hermes17HermesRuntimeImplC1ERKN6hermes2vm13RuntimeConfigEEUlPNS6_7HadesGCERNS6_16WeakRootAcceptorEE_NS_9allocatorISE_EEFvSB_SD_EE7__cloneEPNS0_6__baseISH_EE, symObjAddr: 0xEE44, symBinAddr: 0x15814, symSize: 0x14 }
  - { offsetInCU: 0x139A4A, offset: 0x139A4A, size: 0x8, addend: 0x0, symName: __ZNKSt3__110__function6__funcIZN8facebook6hermes17HermesRuntimeImplC1ERKN6hermes2vm13RuntimeConfigEEUlPNS6_7HadesGCERNS6_16WeakRootAcceptorEE_NS_9allocatorISE_EEFvSB_SD_EE7__cloneEPNS0_6__baseISH_EE, symObjAddr: 0xEE44, symBinAddr: 0x15814, symSize: 0x14 }
  - { offsetInCU: 0x139A7C, offset: 0x139A7C, size: 0x8, addend: 0x0, symName: __ZNKSt3__110__function6__funcIZN8facebook6hermes17HermesRuntimeImplC1ERKN6hermes2vm13RuntimeConfigEEUlPNS6_7HadesGCERNS6_16WeakRootAcceptorEE_NS_9allocatorISE_EEFvSB_SD_EE7__cloneEPNS0_6__baseISH_EE, symObjAddr: 0xEE44, symBinAddr: 0x15814, symSize: 0x14 }
  - { offsetInCU: 0x139A92, offset: 0x139A92, size: 0x8, addend: 0x0, symName: __ZNKSt3__110__function6__funcIZN8facebook6hermes17HermesRuntimeImplC1ERKN6hermes2vm13RuntimeConfigEEUlPNS6_7HadesGCERNS6_16WeakRootAcceptorEE_NS_9allocatorISE_EEFvSB_SD_EE7__cloneEPNS0_6__baseISH_EE, symObjAddr: 0xEE44, symBinAddr: 0x15814, symSize: 0x14 }
  - { offsetInCU: 0x139AA7, offset: 0x139AA7, size: 0x8, addend: 0x0, symName: __ZNKSt3__110__function6__funcIZN8facebook6hermes17HermesRuntimeImplC1ERKN6hermes2vm13RuntimeConfigEEUlPNS6_7HadesGCERNS6_16WeakRootAcceptorEE_NS_9allocatorISE_EEFvSB_SD_EE7__cloneEPNS0_6__baseISH_EE, symObjAddr: 0xEE44, symBinAddr: 0x15814, symSize: 0x14 }
  - { offsetInCU: 0x139ABC, offset: 0x139ABC, size: 0x8, addend: 0x0, symName: __ZNKSt3__110__function6__funcIZN8facebook6hermes17HermesRuntimeImplC1ERKN6hermes2vm13RuntimeConfigEEUlPNS6_7HadesGCERNS6_16WeakRootAcceptorEE_NS_9allocatorISE_EEFvSB_SD_EE7__cloneEPNS0_6__baseISH_EE, symObjAddr: 0xEE44, symBinAddr: 0x15814, symSize: 0x14 }
  - { offsetInCU: 0x139AD1, offset: 0x139AD1, size: 0x8, addend: 0x0, symName: __ZNKSt3__110__function6__funcIZN8facebook6hermes17HermesRuntimeImplC1ERKN6hermes2vm13RuntimeConfigEEUlPNS6_7HadesGCERNS6_16WeakRootAcceptorEE_NS_9allocatorISE_EEFvSB_SD_EE7__cloneEPNS0_6__baseISH_EE, symObjAddr: 0xEE44, symBinAddr: 0x15814, symSize: 0x14 }
  - { offsetInCU: 0x139AE9, offset: 0x139AE9, size: 0x8, addend: 0x0, symName: __ZNSt3__110__function6__funcIZN8facebook6hermes17HermesRuntimeImplC1ERKN6hermes2vm13RuntimeConfigEEUlPNS6_7HadesGCERNS6_16WeakRootAcceptorEE_NS_9allocatorISE_EEFvSB_SD_EE7destroyEv, symObjAddr: 0xEE58, symBinAddr: 0x15828, symSize: 0x4 }
  - { offsetInCU: 0x139B3E, offset: 0x139B3E, size: 0x8, addend: 0x0, symName: __ZNSt3__110__function6__funcIZN8facebook6hermes17HermesRuntimeImplC1ERKN6hermes2vm13RuntimeConfigEEUlPNS6_7HadesGCERNS6_16WeakRootAcceptorEE_NS_9allocatorISE_EEFvSB_SD_EE18destroy_deallocateEv, symObjAddr: 0xEE5C, symBinAddr: 0x1582C, symSize: 0x4 }
  - { offsetInCU: 0x139B75, offset: 0x139B75, size: 0x8, addend: 0x0, symName: __ZNSt3__110__function6__funcIZN8facebook6hermes17HermesRuntimeImplC1ERKN6hermes2vm13RuntimeConfigEEUlPNS6_7HadesGCERNS6_16WeakRootAcceptorEE_NS_9allocatorISE_EEFvSB_SD_EE18destroy_deallocateEv, symObjAddr: 0xEE5C, symBinAddr: 0x1582C, symSize: 0x4 }
  - { offsetInCU: 0x139B9A, offset: 0x139B9A, size: 0x8, addend: 0x0, symName: __ZNSt3__110__function6__funcIZN8facebook6hermes17HermesRuntimeImplC1ERKN6hermes2vm13RuntimeConfigEEUlPNS6_7HadesGCERNS6_16WeakRootAcceptorEE_NS_9allocatorISE_EEFvSB_SD_EE18destroy_deallocateEv, symObjAddr: 0xEE5C, symBinAddr: 0x1582C, symSize: 0x4 }
  - { offsetInCU: 0x139BC9, offset: 0x139BC9, size: 0x8, addend: 0x0, symName: __ZNSt3__110__function6__funcIZN8facebook6hermes17HermesRuntimeImplC1ERKN6hermes2vm13RuntimeConfigEEUlPNS6_7HadesGCERNS6_16WeakRootAcceptorEE_NS_9allocatorISE_EEFvSB_SD_EE18destroy_deallocateEv, symObjAddr: 0xEE5C, symBinAddr: 0x1582C, symSize: 0x4 }
  - { offsetInCU: 0x139BF2, offset: 0x139BF2, size: 0x8, addend: 0x0, symName: __ZNSt3__110__function6__funcIZN8facebook6hermes17HermesRuntimeImplC1ERKN6hermes2vm13RuntimeConfigEEUlPNS6_7HadesGCERNS6_16WeakRootAcceptorEE_NS_9allocatorISE_EEFvSB_SD_EE18destroy_deallocateEv, symObjAddr: 0xEE5C, symBinAddr: 0x1582C, symSize: 0x4 }
  - { offsetInCU: 0x139C14, offset: 0x139C14, size: 0x8, addend: 0x0, symName: __ZNSt3__110__function6__funcIZN8facebook6hermes17HermesRuntimeImplC1ERKN6hermes2vm13RuntimeConfigEEUlPNS6_7HadesGCERNS6_16WeakRootAcceptorEE_NS_9allocatorISE_EEFvSB_SD_EE18destroy_deallocateEv, symObjAddr: 0xEE5C, symBinAddr: 0x1582C, symSize: 0x4 }
  - { offsetInCU: 0x139DBA, offset: 0x139DBA, size: 0x8, addend: 0x0, symName: __ZNSt3__110__function6__funcIZN8facebook6hermes17HermesRuntimeImplC1ERKN6hermes2vm13RuntimeConfigEEUlPNS6_7HadesGCERNS6_16WeakRootAcceptorEE_NS_9allocatorISE_EEFvSB_SD_EEclEOSB_SD_, symObjAddr: 0xEE60, symBinAddr: 0x15830, symSize: 0x68 }
  - { offsetInCU: 0x139FEA, offset: 0x139FEA, size: 0x8, addend: 0x0, symName: __ZNKSt3__110__function6__funcIZN8facebook6hermes17HermesRuntimeImplC1ERKN6hermes2vm13RuntimeConfigEEUlPNS6_7HadesGCERNS6_16WeakRootAcceptorEE_NS_9allocatorISE_EEFvSB_SD_EE6targetERKSt9type_info, symObjAddr: 0xEEC8, symBinAddr: 0x15898, symSize: 0x3C }
  - { offsetInCU: 0x13A03B, offset: 0x13A03B, size: 0x8, addend: 0x0, symName: __ZNKSt3__110__function6__funcIZN8facebook6hermes17HermesRuntimeImplC1ERKN6hermes2vm13RuntimeConfigEEUlPNS6_7HadesGCERNS6_16WeakRootAcceptorEE_NS_9allocatorISE_EEFvSB_SD_EE11target_typeEv, symObjAddr: 0xEF04, symBinAddr: 0x158D4, symSize: 0xC }
  - { offsetInCU: 0x13A064, offset: 0x13A064, size: 0x8, addend: 0x0, symName: __ZN8facebook3jsi6detail21ThreadSafeRuntimeImplINS_6hermes17HermesRuntimeImplENS3_12_GLOBAL__N_111HermesMutexEED1Ev, symObjAddr: 0xEF10, symBinAddr: 0x158E0, symSize: 0x30 }
  - { offsetInCU: 0x13A1BD, offset: 0x13A1BD, size: 0x8, addend: 0x0, symName: __ZN8facebook3jsi6detail21ThreadSafeRuntimeImplINS_6hermes17HermesRuntimeImplENS3_12_GLOBAL__N_111HermesMutexEED0Ev, symObjAddr: 0xEF40, symBinAddr: 0x15910, symSize: 0x34 }
  - { offsetInCU: 0x13A453, offset: 0x13A453, size: 0x8, addend: 0x0, symName: __ZN8facebook3jsi20WithRuntimeDecoratorINS0_6detail8WithLockINS_6hermes17HermesRuntimeImplENS4_12_GLOBAL__N_111HermesMutexEEES5_NS0_17ThreadSafeRuntimeEE18evaluateJavaScriptERKNSt3__110shared_ptrIKNS0_6BufferEEERKNSB_12basic_stringIcNSB_11char_traitsIcEENSB_9allocatorIcEEEE, symObjAddr: 0xEF74, symBinAddr: 0x15944, symSize: 0x70 }
  - { offsetInCU: 0x13A687, offset: 0x13A687, size: 0x8, addend: 0x0, symName: __ZN8facebook3jsi20WithRuntimeDecoratorINS0_6detail8WithLockINS_6hermes17HermesRuntimeImplENS4_12_GLOBAL__N_111HermesMutexEEES5_NS0_17ThreadSafeRuntimeEE17prepareJavaScriptERKNSt3__110shared_ptrIKNS0_6BufferEEENSB_12basic_stringIcNSB_11char_traitsIcEENSB_9allocatorIcEEEE, symObjAddr: 0xEFE4, symBinAddr: 0x159B4, symSize: 0xB4 }
  - { offsetInCU: 0x13AB55, offset: 0x13AB55, size: 0x8, addend: 0x0, symName: __ZN8facebook3jsi16RuntimeDecoratorINS_6hermes17HermesRuntimeImplENS0_17ThreadSafeRuntimeEE17prepareJavaScriptERKNSt3__110shared_ptrIKNS0_6BufferEEENS6_12basic_stringIcNS6_11char_traitsIcEENS6_9allocatorIcEEEE, symObjAddr: 0x11204, symBinAddr: 0x17BD4, symSize: 0x70 }
  - { offsetInCU: 0x13AEE9, offset: 0x13AEE9, size: 0x8, addend: 0x0, symName: __ZN8facebook3jsi20WithRuntimeDecoratorINS0_6detail8WithLockINS_6hermes17HermesRuntimeImplENS4_12_GLOBAL__N_111HermesMutexEEES5_NS0_17ThreadSafeRuntimeEE26evaluatePreparedJavaScriptERKNSt3__110shared_ptrIKNS0_18PreparedJavaScriptEEE, symObjAddr: 0xF098, symBinAddr: 0x15A68, symSize: 0x60 }
  - { offsetInCU: 0x13B11F, offset: 0x13B11F, size: 0x8, addend: 0x0, symName: __ZN8facebook3jsi20WithRuntimeDecoratorINS0_6detail8WithLockINS_6hermes17HermesRuntimeImplENS4_12_GLOBAL__N_111HermesMutexEEES5_NS0_17ThreadSafeRuntimeEE14queueMicrotaskERKNS0_8FunctionE, symObjAddr: 0xF0F8, symBinAddr: 0x15AC8, symSize: 0x58 }
  - { offsetInCU: 0x13B34E, offset: 0x13B34E, size: 0x8, addend: 0x0, symName: __ZN8facebook3jsi20WithRuntimeDecoratorINS0_6detail8WithLockINS_6hermes17HermesRuntimeImplENS4_12_GLOBAL__N_111HermesMutexEEES5_NS0_17ThreadSafeRuntimeEE15drainMicrotasksEi, symObjAddr: 0xF150, symBinAddr: 0x15B20, symSize: 0x50 }
  - { offsetInCU: 0x13B570, offset: 0x13B570, size: 0x8, addend: 0x0, symName: __ZN8facebook3jsi20WithRuntimeDecoratorINS0_6detail8WithLockINS_6hermes17HermesRuntimeImplENS4_12_GLOBAL__N_111HermesMutexEEES5_NS0_17ThreadSafeRuntimeEE6globalEv, symObjAddr: 0xF1A0, symBinAddr: 0x15B70, symSize: 0x7C }
  - { offsetInCU: 0x13B86D, offset: 0x13B86D, size: 0x8, addend: 0x0, symName: __ZN8facebook3jsi20WithRuntimeDecoratorINS0_6detail8WithLockINS_6hermes17HermesRuntimeImplENS4_12_GLOBAL__N_111HermesMutexEEES5_NS0_17ThreadSafeRuntimeEE11descriptionEv, symObjAddr: 0xF21C, symBinAddr: 0x15BEC, symSize: 0x58 }
  - { offsetInCU: 0x13BA5F, offset: 0x13BA5F, size: 0x8, addend: 0x0, symName: __ZN8facebook3jsi20WithRuntimeDecoratorINS0_6detail8WithLockINS_6hermes17HermesRuntimeImplENS4_12_GLOBAL__N_111HermesMutexEEES5_NS0_17ThreadSafeRuntimeEE13isInspectableEv, symObjAddr: 0xF274, symBinAddr: 0x15C44, symSize: 0x30 }
  - { offsetInCU: 0x13BB9E, offset: 0x13BB9E, size: 0x8, addend: 0x0, symName: __ZN8facebook3jsi20WithRuntimeDecoratorINS0_6detail8WithLockINS_6hermes17HermesRuntimeImplENS4_12_GLOBAL__N_111HermesMutexEEES5_NS0_17ThreadSafeRuntimeEE15instrumentationEv, symObjAddr: 0xF2A4, symBinAddr: 0x15C74, symSize: 0x38 }
  - { offsetInCU: 0x13BD2F, offset: 0x13BD2F, size: 0x8, addend: 0x0, symName: __ZN8facebook3jsi20WithRuntimeDecoratorINS0_6detail8WithLockINS_6hermes17HermesRuntimeImplENS4_12_GLOBAL__N_111HermesMutexEEES5_NS0_17ThreadSafeRuntimeEE11cloneSymbolEPKNS0_7Runtime12PointerValueE, symObjAddr: 0xF2DC, symBinAddr: 0x15CAC, symSize: 0x4C }
  - { offsetInCU: 0x13BF93, offset: 0x13BF93, size: 0x8, addend: 0x0, symName: __ZN8facebook3jsi20WithRuntimeDecoratorINS0_6detail8WithLockINS_6hermes17HermesRuntimeImplENS4_12_GLOBAL__N_111HermesMutexEEES5_NS0_17ThreadSafeRuntimeEE11cloneBigIntEPKNS0_7Runtime12PointerValueE, symObjAddr: 0xF328, symBinAddr: 0x15CF8, symSize: 0x4C }
  - { offsetInCU: 0x13C1F7, offset: 0x13C1F7, size: 0x8, addend: 0x0, symName: __ZN8facebook3jsi20WithRuntimeDecoratorINS0_6detail8WithLockINS_6hermes17HermesRuntimeImplENS4_12_GLOBAL__N_111HermesMutexEEES5_NS0_17ThreadSafeRuntimeEE11cloneStringEPKNS0_7Runtime12PointerValueE, symObjAddr: 0xF374, symBinAddr: 0x15D44, symSize: 0x4C }
  - { offsetInCU: 0x13C45B, offset: 0x13C45B, size: 0x8, addend: 0x0, symName: __ZN8facebook3jsi20WithRuntimeDecoratorINS0_6detail8WithLockINS_6hermes17HermesRuntimeImplENS4_12_GLOBAL__N_111HermesMutexEEES5_NS0_17ThreadSafeRuntimeEE11cloneObjectEPKNS0_7Runtime12PointerValueE, symObjAddr: 0xF3C0, symBinAddr: 0x15D90, symSize: 0x4C }
  - { offsetInCU: 0x13C6BF, offset: 0x13C6BF, size: 0x8, addend: 0x0, symName: __ZN8facebook3jsi20WithRuntimeDecoratorINS0_6detail8WithLockINS_6hermes17HermesRuntimeImplENS4_12_GLOBAL__N_111HermesMutexEEES5_NS0_17ThreadSafeRuntimeEE15clonePropNameIDEPKNS0_7Runtime12PointerValueE, symObjAddr: 0xF40C, symBinAddr: 0x15DDC, symSize: 0x4C }
  - { offsetInCU: 0x13C90B, offset: 0x13C90B, size: 0x8, addend: 0x0, symName: __ZN8facebook3jsi20WithRuntimeDecoratorINS0_6detail8WithLockINS_6hermes17HermesRuntimeImplENS4_12_GLOBAL__N_111HermesMutexEEES5_NS0_17ThreadSafeRuntimeEE25createPropNameIDFromAsciiEPKcm, symObjAddr: 0xF458, symBinAddr: 0x15E28, symSize: 0x70 }
  - { offsetInCU: 0x13CB50, offset: 0x13CB50, size: 0x8, addend: 0x0, symName: __ZN8facebook3jsi20WithRuntimeDecoratorINS0_6detail8WithLockINS_6hermes17HermesRuntimeImplENS4_12_GLOBAL__N_111HermesMutexEEES5_NS0_17ThreadSafeRuntimeEE24createPropNameIDFromUtf8EPKhm, symObjAddr: 0xF4C8, symBinAddr: 0x15E98, symSize: 0x70 }
  - { offsetInCU: 0x13CD88, offset: 0x13CD88, size: 0x8, addend: 0x0, symName: __ZN8facebook3jsi20WithRuntimeDecoratorINS0_6detail8WithLockINS_6hermes17HermesRuntimeImplENS4_12_GLOBAL__N_111HermesMutexEEES5_NS0_17ThreadSafeRuntimeEE26createPropNameIDFromStringERKNS0_6StringE, symObjAddr: 0xF538, symBinAddr: 0x15F08, symSize: 0x60 }
  - { offsetInCU: 0x13CFC4, offset: 0x13CFC4, size: 0x8, addend: 0x0, symName: __ZN8facebook3jsi20WithRuntimeDecoratorINS0_6detail8WithLockINS_6hermes17HermesRuntimeImplENS4_12_GLOBAL__N_111HermesMutexEEES5_NS0_17ThreadSafeRuntimeEE26createPropNameIDFromSymbolERKNS0_6SymbolE, symObjAddr: 0xF598, symBinAddr: 0x15F68, symSize: 0x7C }
  - { offsetInCU: 0x13D2F4, offset: 0x13D2F4, size: 0x8, addend: 0x0, symName: __ZN8facebook3jsi20WithRuntimeDecoratorINS0_6detail8WithLockINS_6hermes17HermesRuntimeImplENS4_12_GLOBAL__N_111HermesMutexEEES5_NS0_17ThreadSafeRuntimeEE4utf8ERKNS0_10PropNameIDE, symObjAddr: 0xF614, symBinAddr: 0x15FE4, symSize: 0x60 }
  - { offsetInCU: 0x13D54A, offset: 0x13D54A, size: 0x8, addend: 0x0, symName: __ZN8facebook3jsi20WithRuntimeDecoratorINS0_6detail8WithLockINS_6hermes17HermesRuntimeImplENS4_12_GLOBAL__N_111HermesMutexEEES5_NS0_17ThreadSafeRuntimeEE7compareERKNS0_10PropNameIDESD_, symObjAddr: 0xF674, symBinAddr: 0x16044, symSize: 0x58 }
  - { offsetInCU: 0x13D7E6, offset: 0x13D7E6, size: 0x8, addend: 0x0, symName: __ZN8facebook3jsi20WithRuntimeDecoratorINS0_6detail8WithLockINS_6hermes17HermesRuntimeImplENS4_12_GLOBAL__N_111HermesMutexEEES5_NS0_17ThreadSafeRuntimeEE14symbolToStringERKNS0_6SymbolE, symObjAddr: 0xF6CC, symBinAddr: 0x1609C, symSize: 0x60 }
  - { offsetInCU: 0x13D9FD, offset: 0x13D9FD, size: 0x8, addend: 0x0, symName: __ZN8facebook3jsi20WithRuntimeDecoratorINS0_6detail8WithLockINS_6hermes17HermesRuntimeImplENS4_12_GLOBAL__N_111HermesMutexEEES5_NS0_17ThreadSafeRuntimeEE21createBigIntFromInt64Ex, symObjAddr: 0xF72C, symBinAddr: 0x160FC, symSize: 0x60 }
  - { offsetInCU: 0x13DC14, offset: 0x13DC14, size: 0x8, addend: 0x0, symName: __ZN8facebook3jsi20WithRuntimeDecoratorINS0_6detail8WithLockINS_6hermes17HermesRuntimeImplENS4_12_GLOBAL__N_111HermesMutexEEES5_NS0_17ThreadSafeRuntimeEE22createBigIntFromUint64Ey, symObjAddr: 0xF78C, symBinAddr: 0x1615C, symSize: 0x60 }
  - { offsetInCU: 0x13DE5D, offset: 0x13DE5D, size: 0x8, addend: 0x0, symName: __ZN8facebook3jsi20WithRuntimeDecoratorINS0_6detail8WithLockINS_6hermes17HermesRuntimeImplENS4_12_GLOBAL__N_111HermesMutexEEES5_NS0_17ThreadSafeRuntimeEE13bigintIsInt64ERKNS0_6BigIntE, symObjAddr: 0xF7EC, symBinAddr: 0x161BC, symSize: 0x68 }
  - { offsetInCU: 0x13E1BC, offset: 0x13E1BC, size: 0x8, addend: 0x0, symName: __ZN8facebook3jsi20WithRuntimeDecoratorINS0_6detail8WithLockINS_6hermes17HermesRuntimeImplENS4_12_GLOBAL__N_111HermesMutexEEES5_NS0_17ThreadSafeRuntimeEE14bigintIsUint64ERKNS0_6BigIntE, symObjAddr: 0xF854, symBinAddr: 0x16224, symSize: 0x68 }
  - { offsetInCU: 0x13E51B, offset: 0x13E51B, size: 0x8, addend: 0x0, symName: __ZN8facebook3jsi20WithRuntimeDecoratorINS0_6detail8WithLockINS_6hermes17HermesRuntimeImplENS4_12_GLOBAL__N_111HermesMutexEEES5_NS0_17ThreadSafeRuntimeEE8truncateERKNS0_6BigIntE, symObjAddr: 0xF8BC, symBinAddr: 0x1628C, symSize: 0x54 }
  - { offsetInCU: 0x13E7A6, offset: 0x13E7A6, size: 0x8, addend: 0x0, symName: __ZN8facebook3jsi20WithRuntimeDecoratorINS0_6detail8WithLockINS_6hermes17HermesRuntimeImplENS4_12_GLOBAL__N_111HermesMutexEEES5_NS0_17ThreadSafeRuntimeEE14bigintToStringERKNS0_6BigIntEi, symObjAddr: 0xF910, symBinAddr: 0x162E0, symSize: 0x70 }
  - { offsetInCU: 0x13E9EB, offset: 0x13E9EB, size: 0x8, addend: 0x0, symName: __ZN8facebook3jsi20WithRuntimeDecoratorINS0_6detail8WithLockINS_6hermes17HermesRuntimeImplENS4_12_GLOBAL__N_111HermesMutexEEES5_NS0_17ThreadSafeRuntimeEE21createStringFromAsciiEPKcm, symObjAddr: 0xF980, symBinAddr: 0x16350, symSize: 0x70 }
  - { offsetInCU: 0x13EC30, offset: 0x13EC30, size: 0x8, addend: 0x0, symName: __ZN8facebook3jsi20WithRuntimeDecoratorINS0_6detail8WithLockINS_6hermes17HermesRuntimeImplENS4_12_GLOBAL__N_111HermesMutexEEES5_NS0_17ThreadSafeRuntimeEE20createStringFromUtf8EPKhm, symObjAddr: 0xF9F0, symBinAddr: 0x163C0, symSize: 0x70 }
  - { offsetInCU: 0x13EE8D, offset: 0x13EE8D, size: 0x8, addend: 0x0, symName: __ZN8facebook3jsi20WithRuntimeDecoratorINS0_6detail8WithLockINS_6hermes17HermesRuntimeImplENS4_12_GLOBAL__N_111HermesMutexEEES5_NS0_17ThreadSafeRuntimeEE4utf8ERKNS0_6StringE, symObjAddr: 0xFA60, symBinAddr: 0x16430, symSize: 0x74 }
  - { offsetInCU: 0x13F11F, offset: 0x13F11F, size: 0x8, addend: 0x0, symName: __ZN8facebook3jsi20WithRuntimeDecoratorINS0_6detail8WithLockINS_6hermes17HermesRuntimeImplENS4_12_GLOBAL__N_111HermesMutexEEES5_NS0_17ThreadSafeRuntimeEE23createValueFromJsonUtf8EPKhm, symObjAddr: 0xFAD4, symBinAddr: 0x164A4, symSize: 0x70 }
  - { offsetInCU: 0x13F2F6, offset: 0x13F2F6, size: 0x8, addend: 0x0, symName: __ZN8facebook3jsi20WithRuntimeDecoratorINS0_6detail8WithLockINS_6hermes17HermesRuntimeImplENS4_12_GLOBAL__N_111HermesMutexEEES5_NS0_17ThreadSafeRuntimeEE12createObjectEv, symObjAddr: 0xFB44, symBinAddr: 0x16514, symSize: 0x58 }
  - { offsetInCU: 0x13F517, offset: 0x13F517, size: 0x8, addend: 0x0, symName: __ZN8facebook3jsi20WithRuntimeDecoratorINS0_6detail8WithLockINS_6hermes17HermesRuntimeImplENS4_12_GLOBAL__N_111HermesMutexEEES5_NS0_17ThreadSafeRuntimeEE12createObjectENSt3__110shared_ptrINS0_10HostObjectEEE, symObjAddr: 0xFB9C, symBinAddr: 0x1656C, symSize: 0xB8 }
  - { offsetInCU: 0x13F819, offset: 0x13F819, size: 0x8, addend: 0x0, symName: __ZN8facebook3jsi16RuntimeDecoratorINS_6hermes17HermesRuntimeImplENS0_17ThreadSafeRuntimeEE12createObjectENSt3__110shared_ptrINS0_10HostObjectEEE, symObjAddr: 0x11274, symBinAddr: 0x17C44, symSize: 0xE8 }
  - { offsetInCU: 0x13FAF6, offset: 0x13FAF6, size: 0x8, addend: 0x0, symName: __ZN8facebook3jsi20WithRuntimeDecoratorINS0_6detail8WithLockINS_6hermes17HermesRuntimeImplENS4_12_GLOBAL__N_111HermesMutexEEES5_NS0_17ThreadSafeRuntimeEE13getHostObjectERKNS0_6ObjectE, symObjAddr: 0xFC54, symBinAddr: 0x16624, symSize: 0x60 }
  - { offsetInCU: 0x13FCC9, offset: 0x13FCC9, size: 0x8, addend: 0x0, symName: __ZN8facebook3jsi16RuntimeDecoratorINS_6hermes17HermesRuntimeImplENS0_17ThreadSafeRuntimeEE13getHostObjectERKNS0_6ObjectE, symObjAddr: 0x1135C, symBinAddr: 0x17D2C, symSize: 0xA0 }
  - { offsetInCU: 0x14007A, offset: 0x14007A, size: 0x8, addend: 0x0, symName: __ZN8facebook3jsi20WithRuntimeDecoratorINS0_6detail8WithLockINS_6hermes17HermesRuntimeImplENS4_12_GLOBAL__N_111HermesMutexEEES5_NS0_17ThreadSafeRuntimeEE15getHostFunctionERKNS0_8FunctionE, symObjAddr: 0xFCB4, symBinAddr: 0x16684, symSize: 0x64 }
  - { offsetInCU: 0x140303, offset: 0x140303, size: 0x8, addend: 0x0, symName: __ZN8facebook3jsi20WithRuntimeDecoratorINS0_6detail8WithLockINS_6hermes17HermesRuntimeImplENS4_12_GLOBAL__N_111HermesMutexEEES5_NS0_17ThreadSafeRuntimeEE25createObjectWithPrototypeERKNS0_5ValueE, symObjAddr: 0xFD18, symBinAddr: 0x166E8, symSize: 0x60 }
  - { offsetInCU: 0x14051B, offset: 0x14051B, size: 0x8, addend: 0x0, symName: __ZN8facebook3jsi20WithRuntimeDecoratorINS0_6detail8WithLockINS_6hermes17HermesRuntimeImplENS4_12_GLOBAL__N_111HermesMutexEEES5_NS0_17ThreadSafeRuntimeEE14hasNativeStateERKNS0_6ObjectE, symObjAddr: 0xFD78, symBinAddr: 0x16748, symSize: 0x64 }
  - { offsetInCU: 0x140728, offset: 0x140728, size: 0x8, addend: 0x0, symName: __ZN8facebook3jsi20WithRuntimeDecoratorINS0_6detail8WithLockINS_6hermes17HermesRuntimeImplENS4_12_GLOBAL__N_111HermesMutexEEES5_NS0_17ThreadSafeRuntimeEE14getNativeStateERKNS0_6ObjectE, symObjAddr: 0xFDDC, symBinAddr: 0x167AC, symSize: 0x60 }
  - { offsetInCU: 0x140936, offset: 0x140936, size: 0x8, addend: 0x0, symName: __ZN8facebook3jsi20WithRuntimeDecoratorINS0_6detail8WithLockINS_6hermes17HermesRuntimeImplENS4_12_GLOBAL__N_111HermesMutexEEES5_NS0_17ThreadSafeRuntimeEE14setNativeStateERKNS0_6ObjectENSt3__110shared_ptrINS0_11NativeStateEEE, symObjAddr: 0xFE3C, symBinAddr: 0x1680C, symSize: 0xCC }
  - { offsetInCU: 0x140CA9, offset: 0x140CA9, size: 0x8, addend: 0x0, symName: __ZN8facebook3jsi16RuntimeDecoratorINS_6hermes17HermesRuntimeImplENS0_17ThreadSafeRuntimeEE14setNativeStateERKNS0_6ObjectENSt3__110shared_ptrINS0_11NativeStateEEE, symObjAddr: 0x113FC, symBinAddr: 0x17DCC, symSize: 0xA4 }
  - { offsetInCU: 0x140EB6, offset: 0x140EB6, size: 0x8, addend: 0x0, symName: __ZN8facebook3jsi20WithRuntimeDecoratorINS0_6detail8WithLockINS_6hermes17HermesRuntimeImplENS4_12_GLOBAL__N_111HermesMutexEEES5_NS0_17ThreadSafeRuntimeEE14setPrototypeOfERKNS0_6ObjectERKNS0_5ValueE, symObjAddr: 0xFF08, symBinAddr: 0x168D8, symSize: 0x60 }
  - { offsetInCU: 0x1410E8, offset: 0x1410E8, size: 0x8, addend: 0x0, symName: __ZN8facebook3jsi20WithRuntimeDecoratorINS0_6detail8WithLockINS_6hermes17HermesRuntimeImplENS4_12_GLOBAL__N_111HermesMutexEEES5_NS0_17ThreadSafeRuntimeEE14getPrototypeOfERKNS0_6ObjectE, symObjAddr: 0xFF68, symBinAddr: 0x16938, symSize: 0x60 }
  - { offsetInCU: 0x14130E, offset: 0x14130E, size: 0x8, addend: 0x0, symName: __ZN8facebook3jsi20WithRuntimeDecoratorINS0_6detail8WithLockINS_6hermes17HermesRuntimeImplENS4_12_GLOBAL__N_111HermesMutexEEES5_NS0_17ThreadSafeRuntimeEE11getPropertyERKNS0_6ObjectERKNS0_10PropNameIDE, symObjAddr: 0xFFC8, symBinAddr: 0x16998, symSize: 0x70 }
  - { offsetInCU: 0x141555, offset: 0x141555, size: 0x8, addend: 0x0, symName: __ZN8facebook3jsi20WithRuntimeDecoratorINS0_6detail8WithLockINS_6hermes17HermesRuntimeImplENS4_12_GLOBAL__N_111HermesMutexEEES5_NS0_17ThreadSafeRuntimeEE11getPropertyERKNS0_6ObjectERKNS0_6StringE, symObjAddr: 0x10038, symBinAddr: 0x16A08, symSize: 0x70 }
  - { offsetInCU: 0x14179C, offset: 0x14179C, size: 0x8, addend: 0x0, symName: __ZN8facebook3jsi20WithRuntimeDecoratorINS0_6detail8WithLockINS_6hermes17HermesRuntimeImplENS4_12_GLOBAL__N_111HermesMutexEEES5_NS0_17ThreadSafeRuntimeEE11hasPropertyERKNS0_6ObjectERKNS0_10PropNameIDE, symObjAddr: 0x100A8, symBinAddr: 0x16A78, symSize: 0x6C }
  - { offsetInCU: 0x1419D8, offset: 0x1419D8, size: 0x8, addend: 0x0, symName: __ZN8facebook3jsi20WithRuntimeDecoratorINS0_6detail8WithLockINS_6hermes17HermesRuntimeImplENS4_12_GLOBAL__N_111HermesMutexEEES5_NS0_17ThreadSafeRuntimeEE11hasPropertyERKNS0_6ObjectERKNS0_6StringE, symObjAddr: 0x10114, symBinAddr: 0x16AE4, symSize: 0x6C }
  - { offsetInCU: 0x141C22, offset: 0x141C22, size: 0x8, addend: 0x0, symName: __ZN8facebook3jsi20WithRuntimeDecoratorINS0_6detail8WithLockINS_6hermes17HermesRuntimeImplENS4_12_GLOBAL__N_111HermesMutexEEES5_NS0_17ThreadSafeRuntimeEE16setPropertyValueERKNS0_6ObjectERKNS0_10PropNameIDERKNS0_5ValueE, symObjAddr: 0x10180, symBinAddr: 0x16B50, symSize: 0x70 }
  - { offsetInCU: 0x141E91, offset: 0x141E91, size: 0x8, addend: 0x0, symName: __ZN8facebook3jsi20WithRuntimeDecoratorINS0_6detail8WithLockINS_6hermes17HermesRuntimeImplENS4_12_GLOBAL__N_111HermesMutexEEES5_NS0_17ThreadSafeRuntimeEE16setPropertyValueERKNS0_6ObjectERKNS0_6StringERKNS0_5ValueE, symObjAddr: 0x101F0, symBinAddr: 0x16BC0, symSize: 0x70 }
  - { offsetInCU: 0x14210F, offset: 0x14210F, size: 0x8, addend: 0x0, symName: __ZNK8facebook3jsi20WithRuntimeDecoratorINS0_6detail8WithLockINS_6hermes17HermesRuntimeImplENS4_12_GLOBAL__N_111HermesMutexEEES5_NS0_17ThreadSafeRuntimeEE7isArrayERKNS0_6ObjectE, symObjAddr: 0x10260, symBinAddr: 0x16C30, symSize: 0x60 }
  - { offsetInCU: 0x142431, offset: 0x142431, size: 0x8, addend: 0x0, symName: __ZNK8facebook3jsi20WithRuntimeDecoratorINS0_6detail8WithLockINS_6hermes17HermesRuntimeImplENS4_12_GLOBAL__N_111HermesMutexEEES5_NS0_17ThreadSafeRuntimeEE13isArrayBufferERKNS0_6ObjectE, symObjAddr: 0x102C0, symBinAddr: 0x16C90, symSize: 0x60 }
  - { offsetInCU: 0x142752, offset: 0x142752, size: 0x8, addend: 0x0, symName: __ZNK8facebook3jsi20WithRuntimeDecoratorINS0_6detail8WithLockINS_6hermes17HermesRuntimeImplENS4_12_GLOBAL__N_111HermesMutexEEES5_NS0_17ThreadSafeRuntimeEE10isFunctionERKNS0_6ObjectE, symObjAddr: 0x10320, symBinAddr: 0x16CF0, symSize: 0x6C }
  - { offsetInCU: 0x142AA7, offset: 0x142AA7, size: 0x8, addend: 0x0, symName: __ZNK8facebook3jsi20WithRuntimeDecoratorINS0_6detail8WithLockINS_6hermes17HermesRuntimeImplENS4_12_GLOBAL__N_111HermesMutexEEES5_NS0_17ThreadSafeRuntimeEE12isHostObjectERKNS0_6ObjectE, symObjAddr: 0x1038C, symBinAddr: 0x16D5C, symSize: 0x60 }
  - { offsetInCU: 0x142DC8, offset: 0x142DC8, size: 0x8, addend: 0x0, symName: __ZNK8facebook3jsi20WithRuntimeDecoratorINS0_6detail8WithLockINS_6hermes17HermesRuntimeImplENS4_12_GLOBAL__N_111HermesMutexEEES5_NS0_17ThreadSafeRuntimeEE14isHostFunctionERKNS0_8FunctionE, symObjAddr: 0x103EC, symBinAddr: 0x16DBC, symSize: 0x60 }
  - { offsetInCU: 0x1430C4, offset: 0x1430C4, size: 0x8, addend: 0x0, symName: __ZN8facebook3jsi20WithRuntimeDecoratorINS0_6detail8WithLockINS_6hermes17HermesRuntimeImplENS4_12_GLOBAL__N_111HermesMutexEEES5_NS0_17ThreadSafeRuntimeEE16getPropertyNamesERKNS0_6ObjectE, symObjAddr: 0x1044C, symBinAddr: 0x16E1C, symSize: 0x60 }
  - { offsetInCU: 0x1432DC, offset: 0x1432DC, size: 0x8, addend: 0x0, symName: __ZN8facebook3jsi20WithRuntimeDecoratorINS0_6detail8WithLockINS_6hermes17HermesRuntimeImplENS4_12_GLOBAL__N_111HermesMutexEEES5_NS0_17ThreadSafeRuntimeEE16createWeakObjectERKNS0_6ObjectE, symObjAddr: 0x104AC, symBinAddr: 0x16E7C, symSize: 0x60 }
  - { offsetInCU: 0x1434F4, offset: 0x1434F4, size: 0x8, addend: 0x0, symName: __ZN8facebook3jsi20WithRuntimeDecoratorINS0_6detail8WithLockINS_6hermes17HermesRuntimeImplENS4_12_GLOBAL__N_111HermesMutexEEES5_NS0_17ThreadSafeRuntimeEE14lockWeakObjectERKNS0_10WeakObjectE, symObjAddr: 0x1050C, symBinAddr: 0x16EDC, symSize: 0x60 }
  - { offsetInCU: 0x14370C, offset: 0x14370C, size: 0x8, addend: 0x0, symName: __ZN8facebook3jsi20WithRuntimeDecoratorINS0_6detail8WithLockINS_6hermes17HermesRuntimeImplENS4_12_GLOBAL__N_111HermesMutexEEES5_NS0_17ThreadSafeRuntimeEE11createArrayEm, symObjAddr: 0x1056C, symBinAddr: 0x16F3C, symSize: 0x60 }
  - { offsetInCU: 0x14391A, offset: 0x14391A, size: 0x8, addend: 0x0, symName: __ZN8facebook3jsi20WithRuntimeDecoratorINS0_6detail8WithLockINS_6hermes17HermesRuntimeImplENS4_12_GLOBAL__N_111HermesMutexEEES5_NS0_17ThreadSafeRuntimeEE17createArrayBufferENSt3__110shared_ptrINS0_13MutableBufferEEE, symObjAddr: 0x105CC, symBinAddr: 0x16F9C, symSize: 0x80 }
  - { offsetInCU: 0x143AAC, offset: 0x143AAC, size: 0x8, addend: 0x0, symName: __ZN8facebook3jsi16RuntimeDecoratorINS_6hermes17HermesRuntimeImplENS0_17ThreadSafeRuntimeEE17createArrayBufferENSt3__110shared_ptrINS0_13MutableBufferEEE, symObjAddr: 0x114A0, symBinAddr: 0x17E70, symSize: 0x90 }
  - { offsetInCU: 0x143C42, offset: 0x143C42, size: 0x8, addend: 0x0, symName: __ZN8facebook3jsi20WithRuntimeDecoratorINS0_6detail8WithLockINS_6hermes17HermesRuntimeImplENS4_12_GLOBAL__N_111HermesMutexEEES5_NS0_17ThreadSafeRuntimeEE4sizeERKNS0_5ArrayE, symObjAddr: 0x1064C, symBinAddr: 0x1701C, symSize: 0x90 }
  - { offsetInCU: 0x143FD4, offset: 0x143FD4, size: 0x8, addend: 0x0, symName: __ZN8facebook3jsi20WithRuntimeDecoratorINS0_6detail8WithLockINS_6hermes17HermesRuntimeImplENS4_12_GLOBAL__N_111HermesMutexEEES5_NS0_17ThreadSafeRuntimeEE4sizeERKNS0_11ArrayBufferE, symObjAddr: 0x106DC, symBinAddr: 0x170AC, symSize: 0x54 }
  - { offsetInCU: 0x1441D9, offset: 0x1441D9, size: 0x8, addend: 0x0, symName: __ZN8facebook3jsi20WithRuntimeDecoratorINS0_6detail8WithLockINS_6hermes17HermesRuntimeImplENS4_12_GLOBAL__N_111HermesMutexEEES5_NS0_17ThreadSafeRuntimeEE4dataERKNS0_11ArrayBufferE, symObjAddr: 0x10730, symBinAddr: 0x17100, symSize: 0x64 }
  - { offsetInCU: 0x1443F4, offset: 0x1443F4, size: 0x8, addend: 0x0, symName: __ZN8facebook3jsi20WithRuntimeDecoratorINS0_6detail8WithLockINS_6hermes17HermesRuntimeImplENS4_12_GLOBAL__N_111HermesMutexEEES5_NS0_17ThreadSafeRuntimeEE15getValueAtIndexERKNS0_5ArrayEm, symObjAddr: 0x10794, symBinAddr: 0x17164, symSize: 0x70 }
  - { offsetInCU: 0x144649, offset: 0x144649, size: 0x8, addend: 0x0, symName: __ZN8facebook3jsi20WithRuntimeDecoratorINS0_6detail8WithLockINS_6hermes17HermesRuntimeImplENS4_12_GLOBAL__N_111HermesMutexEEES5_NS0_17ThreadSafeRuntimeEE19setValueAtIndexImplERKNS0_5ArrayEmRKNS0_5ValueE, symObjAddr: 0x10804, symBinAddr: 0x171D4, symSize: 0x70 }
  - { offsetInCU: 0x144878, offset: 0x144878, size: 0x8, addend: 0x0, symName: __ZN8facebook3jsi20WithRuntimeDecoratorINS0_6detail8WithLockINS_6hermes17HermesRuntimeImplENS4_12_GLOBAL__N_111HermesMutexEEES5_NS0_17ThreadSafeRuntimeEE30createFunctionFromHostFunctionERKNS0_10PropNameIDEjNSt3__18functionIFNS0_5ValueERNS0_7RuntimeERKSG_PSJ_mEEE, symObjAddr: 0x10874, symBinAddr: 0x17244, symSize: 0x120 }
  - { offsetInCU: 0x144C34, offset: 0x144C34, size: 0x8, addend: 0x0, symName: __ZN8facebook3jsi16RuntimeDecoratorINS_6hermes17HermesRuntimeImplENS0_17ThreadSafeRuntimeEE30createFunctionFromHostFunctionERKNS0_10PropNameIDEjNSt3__18functionIFNS0_5ValueERNS0_7RuntimeERKSB_PSE_mEEE, symObjAddr: 0x11530, symBinAddr: 0x17F00, symSize: 0x208 }
  - { offsetInCU: 0x1455B4, offset: 0x1455B4, size: 0x8, addend: 0x0, symName: __ZN8facebook3jsi20WithRuntimeDecoratorINS0_6detail8WithLockINS_6hermes17HermesRuntimeImplENS4_12_GLOBAL__N_111HermesMutexEEES5_NS0_17ThreadSafeRuntimeEE4callERKNS0_8FunctionERKNS0_5ValueEPSF_m, symObjAddr: 0x10994, symBinAddr: 0x17364, symSize: 0x88 }
  - { offsetInCU: 0x14584B, offset: 0x14584B, size: 0x8, addend: 0x0, symName: __ZN8facebook3jsi20WithRuntimeDecoratorINS0_6detail8WithLockINS_6hermes17HermesRuntimeImplENS4_12_GLOBAL__N_111HermesMutexEEES5_NS0_17ThreadSafeRuntimeEE17callAsConstructorERKNS0_8FunctionEPKNS0_5ValueEm, symObjAddr: 0x10A1C, symBinAddr: 0x173EC, symSize: 0x78 }
  - { offsetInCU: 0x145A81, offset: 0x145A81, size: 0x8, addend: 0x0, symName: __ZN8facebook3jsi20WithRuntimeDecoratorINS0_6detail8WithLockINS_6hermes17HermesRuntimeImplENS4_12_GLOBAL__N_111HermesMutexEEES5_NS0_17ThreadSafeRuntimeEE9pushScopeEv, symObjAddr: 0x10A94, symBinAddr: 0x17464, symSize: 0x30 }
  - { offsetInCU: 0x145BAA, offset: 0x145BAA, size: 0x8, addend: 0x0, symName: __ZN8facebook3jsi20WithRuntimeDecoratorINS0_6detail8WithLockINS_6hermes17HermesRuntimeImplENS4_12_GLOBAL__N_111HermesMutexEEES5_NS0_17ThreadSafeRuntimeEE8popScopeEPNS0_7Runtime10ScopeStateE, symObjAddr: 0x10AC4, symBinAddr: 0x17494, symSize: 0x28 }
  - { offsetInCU: 0x145D49, offset: 0x145D49, size: 0x8, addend: 0x0, symName: __ZNK8facebook3jsi20WithRuntimeDecoratorINS0_6detail8WithLockINS_6hermes17HermesRuntimeImplENS4_12_GLOBAL__N_111HermesMutexEEES5_NS0_17ThreadSafeRuntimeEE12strictEqualsERKNS0_6SymbolESD_, symObjAddr: 0x10AEC, symBinAddr: 0x174BC, symSize: 0x58 }
  - { offsetInCU: 0x146027, offset: 0x146027, size: 0x8, addend: 0x0, symName: __ZNK8facebook3jsi20WithRuntimeDecoratorINS0_6detail8WithLockINS_6hermes17HermesRuntimeImplENS4_12_GLOBAL__N_111HermesMutexEEES5_NS0_17ThreadSafeRuntimeEE12strictEqualsERKNS0_6BigIntESD_, symObjAddr: 0x10B44, symBinAddr: 0x17514, symSize: 0x88 }
  - { offsetInCU: 0x146485, offset: 0x146485, size: 0x8, addend: 0x0, symName: __ZNK8facebook3jsi20WithRuntimeDecoratorINS0_6detail8WithLockINS_6hermes17HermesRuntimeImplENS4_12_GLOBAL__N_111HermesMutexEEES5_NS0_17ThreadSafeRuntimeEE12strictEqualsERKNS0_6StringESD_, symObjAddr: 0x10BCC, symBinAddr: 0x1759C, symSize: 0x74 }
  - { offsetInCU: 0x1467F6, offset: 0x1467F6, size: 0x8, addend: 0x0, symName: __ZNK8facebook3jsi20WithRuntimeDecoratorINS0_6detail8WithLockINS_6hermes17HermesRuntimeImplENS4_12_GLOBAL__N_111HermesMutexEEES5_NS0_17ThreadSafeRuntimeEE12strictEqualsERKNS0_6ObjectESD_, symObjAddr: 0x10C40, symBinAddr: 0x17610, symSize: 0x58 }
  - { offsetInCU: 0x146A83, offset: 0x146A83, size: 0x8, addend: 0x0, symName: __ZN8facebook3jsi20WithRuntimeDecoratorINS0_6detail8WithLockINS_6hermes17HermesRuntimeImplENS4_12_GLOBAL__N_111HermesMutexEEES5_NS0_17ThreadSafeRuntimeEE10instanceOfERKNS0_6ObjectERKNS0_8FunctionE, symObjAddr: 0x10C98, symBinAddr: 0x17668, symSize: 0x6C }
  - { offsetInCU: 0x146CBF, offset: 0x146CBF, size: 0x8, addend: 0x0, symName: __ZN8facebook3jsi20WithRuntimeDecoratorINS0_6detail8WithLockINS_6hermes17HermesRuntimeImplENS4_12_GLOBAL__N_111HermesMutexEEES5_NS0_17ThreadSafeRuntimeEE25setExternalMemoryPressureERKNS0_6ObjectEm, symObjAddr: 0x10D04, symBinAddr: 0x176D4, symSize: 0x60 }
  - { offsetInCU: 0x146EF0, offset: 0x146EF0, size: 0x8, addend: 0x0, symName: __ZN8facebook3jsi20WithRuntimeDecoratorINS0_6detail8WithLockINS_6hermes17HermesRuntimeImplENS4_12_GLOBAL__N_111HermesMutexEEES5_NS0_17ThreadSafeRuntimeEE5utf16ERKNS0_6StringE, symObjAddr: 0x10D64, symBinAddr: 0x17734, symSize: 0x58 }
  - { offsetInCU: 0x1470FF, offset: 0x1470FF, size: 0x8, addend: 0x0, symName: __ZN8facebook3jsi20WithRuntimeDecoratorINS0_6detail8WithLockINS_6hermes17HermesRuntimeImplENS4_12_GLOBAL__N_111HermesMutexEEES5_NS0_17ThreadSafeRuntimeEE5utf16ERKNS0_10PropNameIDE, symObjAddr: 0x10DBC, symBinAddr: 0x1778C, symSize: 0x60 }
  - { offsetInCU: 0x147330, offset: 0x147330, size: 0x8, addend: 0x0, symName: __ZN8facebook3jsi20WithRuntimeDecoratorINS0_6detail8WithLockINS_6hermes17HermesRuntimeImplENS4_12_GLOBAL__N_111HermesMutexEEES5_NS0_17ThreadSafeRuntimeEE13getStringDataERKNS0_6StringEPvPFvSE_bPKvmE, symObjAddr: 0x10E1C, symBinAddr: 0x177EC, symSize: 0x60 }
  - { offsetInCU: 0x147594, offset: 0x147594, size: 0x8, addend: 0x0, symName: __ZN8facebook3jsi20WithRuntimeDecoratorINS0_6detail8WithLockINS_6hermes17HermesRuntimeImplENS4_12_GLOBAL__N_111HermesMutexEEES5_NS0_17ThreadSafeRuntimeEE17getPropNameIdDataERKNS0_10PropNameIDEPvPFvSE_bPKvmE, symObjAddr: 0x10E7C, symBinAddr: 0x1784C, symSize: 0x70 }
  - { offsetInCU: 0x1477C3, offset: 0x1477C3, size: 0x8, addend: 0x0, symName: __ZNK8facebook3jsi6detail21ThreadSafeRuntimeImplINS_6hermes17HermesRuntimeImplENS3_12_GLOBAL__N_111HermesMutexEE4lockEv, symObjAddr: 0x10EEC, symBinAddr: 0x178BC, symSize: 0x8 }
  - { offsetInCU: 0x147809, offset: 0x147809, size: 0x8, addend: 0x0, symName: __ZNK8facebook3jsi6detail21ThreadSafeRuntimeImplINS_6hermes17HermesRuntimeImplENS3_12_GLOBAL__N_111HermesMutexEE6unlockEv, symObjAddr: 0x10EF4, symBinAddr: 0x178C4, symSize: 0x8 }
  - { offsetInCU: 0x14784F, offset: 0x14784F, size: 0x8, addend: 0x0, symName: __ZN8facebook3jsi16RuntimeDecoratorINS_6hermes17HermesRuntimeImplENS0_17ThreadSafeRuntimeEE18getRecordedGCStatsEv, symObjAddr: 0x10EFC, symBinAddr: 0x178CC, symSize: 0x10 }
  - { offsetInCU: 0x147875, offset: 0x147875, size: 0x8, addend: 0x0, symName: __ZN8facebook3jsi16RuntimeDecoratorINS_6hermes17HermesRuntimeImplENS0_17ThreadSafeRuntimeEE18getRecordedGCStatsEv, symObjAddr: 0x10EFC, symBinAddr: 0x178CC, symSize: 0x10 }
  - { offsetInCU: 0x1478A7, offset: 0x1478A7, size: 0x8, addend: 0x0, symName: __ZN8facebook3jsi16RuntimeDecoratorINS_6hermes17HermesRuntimeImplENS0_17ThreadSafeRuntimeEE11getHeapInfoEb, symObjAddr: 0x10F0C, symBinAddr: 0x178DC, symSize: 0x10 }
  - { offsetInCU: 0x1478DA, offset: 0x1478DA, size: 0x8, addend: 0x0, symName: __ZN8facebook3jsi16RuntimeDecoratorINS_6hermes17HermesRuntimeImplENS0_17ThreadSafeRuntimeEE11getHeapInfoEb, symObjAddr: 0x10F0C, symBinAddr: 0x178DC, symSize: 0x10 }
  - { offsetInCU: 0x147914, offset: 0x147914, size: 0x8, addend: 0x0, symName: __ZN8facebook3jsi16RuntimeDecoratorINS_6hermes17HermesRuntimeImplENS0_17ThreadSafeRuntimeEE14collectGarbageENSt3__112basic_stringIcNS6_11char_traitsIcEENS6_9allocatorIcEEEE, symObjAddr: 0x10F1C, symBinAddr: 0x178EC, symSize: 0x78 }
  - { offsetInCU: 0x147D58, offset: 0x147D58, size: 0x8, addend: 0x0, symName: __ZN8facebook3jsi16RuntimeDecoratorINS_6hermes17HermesRuntimeImplENS0_17ThreadSafeRuntimeEE34startTrackingHeapObjectStackTracesENSt3__18functionIFvyNS6_6chrono8durationIxNS6_5ratioILl1ELl1000000EEEEENS6_6vectorINS6_5tupleIJyyyEEENS6_9allocatorISF_EEEEEEE, symObjAddr: 0x10F94, symBinAddr: 0x17964, symSize: 0xD4 }
  - { offsetInCU: 0x147F88, offset: 0x147F88, size: 0x8, addend: 0x0, symName: __ZNSt3__110__function12__value_funcIFvyNS_6chrono8durationIxNS_5ratioILl1ELl1000000EEEEENS_6vectorINS_5tupleIJyyyEEENS_9allocatorIS9_EEEEEEC2B7v160006EOSE_, symObjAddr: 0x11BD8, symBinAddr: 0x185A8, symSize: 0x64 }
  - { offsetInCU: 0x147FD8, offset: 0x147FD8, size: 0x8, addend: 0x0, symName: __ZN8facebook3jsi16RuntimeDecoratorINS_6hermes17HermesRuntimeImplENS0_17ThreadSafeRuntimeEE33stopTrackingHeapObjectStackTracesEv, symObjAddr: 0x11068, symBinAddr: 0x17A38, symSize: 0x10 }
  - { offsetInCU: 0x147FFE, offset: 0x147FFE, size: 0x8, addend: 0x0, symName: __ZN8facebook3jsi16RuntimeDecoratorINS_6hermes17HermesRuntimeImplENS0_17ThreadSafeRuntimeEE33stopTrackingHeapObjectStackTracesEv, symObjAddr: 0x11068, symBinAddr: 0x17A38, symSize: 0x10 }
  - { offsetInCU: 0x148027, offset: 0x148027, size: 0x8, addend: 0x0, symName: __ZN8facebook3jsi16RuntimeDecoratorINS_6hermes17HermesRuntimeImplENS0_17ThreadSafeRuntimeEE17startHeapSamplingEm, symObjAddr: 0x11078, symBinAddr: 0x17A48, symSize: 0x10 }
  - { offsetInCU: 0x148055, offset: 0x148055, size: 0x8, addend: 0x0, symName: __ZN8facebook3jsi16RuntimeDecoratorINS_6hermes17HermesRuntimeImplENS0_17ThreadSafeRuntimeEE17startHeapSamplingEm, symObjAddr: 0x11078, symBinAddr: 0x17A48, symSize: 0x10 }
  - { offsetInCU: 0x148087, offset: 0x148087, size: 0x8, addend: 0x0, symName: __ZN8facebook3jsi16RuntimeDecoratorINS_6hermes17HermesRuntimeImplENS0_17ThreadSafeRuntimeEE16stopHeapSamplingERNSt3__113basic_ostreamIcNS6_11char_traitsIcEEEE, symObjAddr: 0x11088, symBinAddr: 0x17A58, symSize: 0x10 }
  - { offsetInCU: 0x1480B5, offset: 0x1480B5, size: 0x8, addend: 0x0, symName: __ZN8facebook3jsi16RuntimeDecoratorINS_6hermes17HermesRuntimeImplENS0_17ThreadSafeRuntimeEE16stopHeapSamplingERNSt3__113basic_ostreamIcNS6_11char_traitsIcEEEE, symObjAddr: 0x11088, symBinAddr: 0x17A58, symSize: 0x10 }
  - { offsetInCU: 0x1480E7, offset: 0x1480E7, size: 0x8, addend: 0x0, symName: __ZN8facebook3jsi16RuntimeDecoratorINS_6hermes17HermesRuntimeImplENS0_17ThreadSafeRuntimeEE20createSnapshotToFileERKNSt3__112basic_stringIcNS6_11char_traitsIcEENS6_9allocatorIcEEEERKNS0_15Instrumentation19HeapSnapshotOptionsE, symObjAddr: 0x11098, symBinAddr: 0x17A68, symSize: 0x10 }
  - { offsetInCU: 0x14811D, offset: 0x14811D, size: 0x8, addend: 0x0, symName: __ZN8facebook3jsi16RuntimeDecoratorINS_6hermes17HermesRuntimeImplENS0_17ThreadSafeRuntimeEE20createSnapshotToFileERKNSt3__112basic_stringIcNS6_11char_traitsIcEENS6_9allocatorIcEEEERKNS0_15Instrumentation19HeapSnapshotOptionsE, symObjAddr: 0x11098, symBinAddr: 0x17A68, symSize: 0x10 }
  - { offsetInCU: 0x148157, offset: 0x148157, size: 0x8, addend: 0x0, symName: __ZN8facebook3jsi16RuntimeDecoratorINS_6hermes17HermesRuntimeImplENS0_17ThreadSafeRuntimeEE22createSnapshotToStreamERNSt3__113basic_ostreamIcNS6_11char_traitsIcEEEERKNS0_15Instrumentation19HeapSnapshotOptionsE, symObjAddr: 0x110A8, symBinAddr: 0x17A78, symSize: 0x10 }
  - { offsetInCU: 0x14818D, offset: 0x14818D, size: 0x8, addend: 0x0, symName: __ZN8facebook3jsi16RuntimeDecoratorINS_6hermes17HermesRuntimeImplENS0_17ThreadSafeRuntimeEE22createSnapshotToStreamERNSt3__113basic_ostreamIcNS6_11char_traitsIcEEEERKNS0_15Instrumentation19HeapSnapshotOptionsE, symObjAddr: 0x110A8, symBinAddr: 0x17A78, symSize: 0x10 }
  - { offsetInCU: 0x1481C7, offset: 0x1481C7, size: 0x8, addend: 0x0, symName: __ZN8facebook3jsi16RuntimeDecoratorINS_6hermes17HermesRuntimeImplENS0_17ThreadSafeRuntimeEE33flushAndDisableBridgeTrafficTraceEv, symObjAddr: 0x110B8, symBinAddr: 0x17A88, symSize: 0x10 }
  - { offsetInCU: 0x1481ED, offset: 0x1481ED, size: 0x8, addend: 0x0, symName: __ZN8facebook3jsi16RuntimeDecoratorINS_6hermes17HermesRuntimeImplENS0_17ThreadSafeRuntimeEE33flushAndDisableBridgeTrafficTraceEv, symObjAddr: 0x110B8, symBinAddr: 0x17A88, symSize: 0x10 }
  - { offsetInCU: 0x148235, offset: 0x148235, size: 0x8, addend: 0x0, symName: __ZNK8facebook3jsi16RuntimeDecoratorINS_6hermes17HermesRuntimeImplENS0_17ThreadSafeRuntimeEE33writeBasicBlockProfileTraceToFileERKNSt3__112basic_stringIcNS6_11char_traitsIcEENS6_9allocatorIcEEEE, symObjAddr: 0x110C8, symBinAddr: 0x17A98, symSize: 0x10 }
  - { offsetInCU: 0x148263, offset: 0x148263, size: 0x8, addend: 0x0, symName: __ZNK8facebook3jsi16RuntimeDecoratorINS_6hermes17HermesRuntimeImplENS0_17ThreadSafeRuntimeEE33writeBasicBlockProfileTraceToFileERKNSt3__112basic_stringIcNS6_11char_traitsIcEENS6_9allocatorIcEEEE, symObjAddr: 0x110C8, symBinAddr: 0x17A98, symSize: 0x10 }
  - { offsetInCU: 0x148295, offset: 0x148295, size: 0x8, addend: 0x0, symName: __ZNK8facebook3jsi16RuntimeDecoratorINS_6hermes17HermesRuntimeImplENS0_17ThreadSafeRuntimeEE25dumpProfilerSymbolsToFileERKNSt3__112basic_stringIcNS6_11char_traitsIcEENS6_9allocatorIcEEEE, symObjAddr: 0x110D8, symBinAddr: 0x17AA8, symSize: 0x10 }
  - { offsetInCU: 0x1482C3, offset: 0x1482C3, size: 0x8, addend: 0x0, symName: __ZNK8facebook3jsi16RuntimeDecoratorINS_6hermes17HermesRuntimeImplENS0_17ThreadSafeRuntimeEE25dumpProfilerSymbolsToFileERKNSt3__112basic_stringIcNS6_11char_traitsIcEENS6_9allocatorIcEEEE, symObjAddr: 0x110D8, symBinAddr: 0x17AA8, symSize: 0x10 }
  - { offsetInCU: 0x1482F5, offset: 0x1482F5, size: 0x8, addend: 0x0, symName: __ZThn8_N8facebook3jsi6detail21ThreadSafeRuntimeImplINS_6hermes17HermesRuntimeImplENS3_12_GLOBAL__N_111HermesMutexEED1Ev, symObjAddr: 0x110E8, symBinAddr: 0x17AB8, symSize: 0x34 }
  - { offsetInCU: 0x148480, offset: 0x148480, size: 0x8, addend: 0x0, symName: __ZThn8_N8facebook3jsi6detail21ThreadSafeRuntimeImplINS_6hermes17HermesRuntimeImplENS3_12_GLOBAL__N_111HermesMutexEED0Ev, symObjAddr: 0x1111C, symBinAddr: 0x17AEC, symSize: 0x38 }
  - { offsetInCU: 0x148629, offset: 0x148629, size: 0x8, addend: 0x0, symName: __ZThn8_N8facebook3jsi16RuntimeDecoratorINS_6hermes17HermesRuntimeImplENS0_17ThreadSafeRuntimeEE18getRecordedGCStatsEv, symObjAddr: 0x11154, symBinAddr: 0x17B24, symSize: 0x10 }
  - { offsetInCU: 0x148645, offset: 0x148645, size: 0x8, addend: 0x0, symName: __ZThn8_N8facebook3jsi16RuntimeDecoratorINS_6hermes17HermesRuntimeImplENS0_17ThreadSafeRuntimeEE18getRecordedGCStatsEv, symObjAddr: 0x11154, symBinAddr: 0x17B24, symSize: 0x10 }
  - { offsetInCU: 0x148664, offset: 0x148664, size: 0x8, addend: 0x0, symName: __ZThn8_N8facebook3jsi16RuntimeDecoratorINS_6hermes17HermesRuntimeImplENS0_17ThreadSafeRuntimeEE18getRecordedGCStatsEv, symObjAddr: 0x11154, symBinAddr: 0x17B24, symSize: 0x10 }
  - { offsetInCU: 0x1486BD, offset: 0x1486BD, size: 0x8, addend: 0x0, symName: __ZThn8_N8facebook3jsi16RuntimeDecoratorINS_6hermes17HermesRuntimeImplENS0_17ThreadSafeRuntimeEE11getHeapInfoEb, symObjAddr: 0x11164, symBinAddr: 0x17B34, symSize: 0x10 }
  - { offsetInCU: 0x1486D9, offset: 0x1486D9, size: 0x8, addend: 0x0, symName: __ZThn8_N8facebook3jsi16RuntimeDecoratorINS_6hermes17HermesRuntimeImplENS0_17ThreadSafeRuntimeEE11getHeapInfoEb, symObjAddr: 0x11164, symBinAddr: 0x17B34, symSize: 0x10 }
  - { offsetInCU: 0x148705, offset: 0x148705, size: 0x8, addend: 0x0, symName: __ZThn8_N8facebook3jsi16RuntimeDecoratorINS_6hermes17HermesRuntimeImplENS0_17ThreadSafeRuntimeEE11getHeapInfoEb, symObjAddr: 0x11164, symBinAddr: 0x17B34, symSize: 0x10 }
  - { offsetInCU: 0x148742, offset: 0x148742, size: 0x8, addend: 0x0, symName: __ZThn8_N8facebook3jsi16RuntimeDecoratorINS_6hermes17HermesRuntimeImplENS0_17ThreadSafeRuntimeEE14collectGarbageENSt3__112basic_stringIcNS6_11char_traitsIcEENS6_9allocatorIcEEEE, symObjAddr: 0x11174, symBinAddr: 0x17B44, symSize: 0x8 }
  - { offsetInCU: 0x148772, offset: 0x148772, size: 0x8, addend: 0x0, symName: __ZThn8_N8facebook3jsi16RuntimeDecoratorINS_6hermes17HermesRuntimeImplENS0_17ThreadSafeRuntimeEE34startTrackingHeapObjectStackTracesENSt3__18functionIFvyNS6_6chrono8durationIxNS6_5ratioILl1ELl1000000EEEEENS6_6vectorINS6_5tupleIJyyyEEENS6_9allocatorISF_EEEEEEE, symObjAddr: 0x1117C, symBinAddr: 0x17B4C, symSize: 0x8 }
  - { offsetInCU: 0x1487B8, offset: 0x1487B8, size: 0x8, addend: 0x0, symName: __ZThn8_N8facebook3jsi16RuntimeDecoratorINS_6hermes17HermesRuntimeImplENS0_17ThreadSafeRuntimeEE33stopTrackingHeapObjectStackTracesEv, symObjAddr: 0x11184, symBinAddr: 0x17B54, symSize: 0x10 }
  - { offsetInCU: 0x1487D4, offset: 0x1487D4, size: 0x8, addend: 0x0, symName: __ZThn8_N8facebook3jsi16RuntimeDecoratorINS_6hermes17HermesRuntimeImplENS0_17ThreadSafeRuntimeEE33stopTrackingHeapObjectStackTracesEv, symObjAddr: 0x11184, symBinAddr: 0x17B54, symSize: 0x10 }
  - { offsetInCU: 0x1487F3, offset: 0x1487F3, size: 0x8, addend: 0x0, symName: __ZThn8_N8facebook3jsi16RuntimeDecoratorINS_6hermes17HermesRuntimeImplENS0_17ThreadSafeRuntimeEE33stopTrackingHeapObjectStackTracesEv, symObjAddr: 0x11184, symBinAddr: 0x17B54, symSize: 0x10 }
  - { offsetInCU: 0x148843, offset: 0x148843, size: 0x8, addend: 0x0, symName: __ZThn8_N8facebook3jsi16RuntimeDecoratorINS_6hermes17HermesRuntimeImplENS0_17ThreadSafeRuntimeEE17startHeapSamplingEm, symObjAddr: 0x11194, symBinAddr: 0x17B64, symSize: 0x10 }
  - { offsetInCU: 0x14885F, offset: 0x14885F, size: 0x8, addend: 0x0, symName: __ZThn8_N8facebook3jsi16RuntimeDecoratorINS_6hermes17HermesRuntimeImplENS0_17ThreadSafeRuntimeEE17startHeapSamplingEm, symObjAddr: 0x11194, symBinAddr: 0x17B64, symSize: 0x10 }
  - { offsetInCU: 0x148886, offset: 0x148886, size: 0x8, addend: 0x0, symName: __ZThn8_N8facebook3jsi16RuntimeDecoratorINS_6hermes17HermesRuntimeImplENS0_17ThreadSafeRuntimeEE17startHeapSamplingEm, symObjAddr: 0x11194, symBinAddr: 0x17B64, symSize: 0x10 }
  - { offsetInCU: 0x1488DF, offset: 0x1488DF, size: 0x8, addend: 0x0, symName: __ZThn8_N8facebook3jsi16RuntimeDecoratorINS_6hermes17HermesRuntimeImplENS0_17ThreadSafeRuntimeEE16stopHeapSamplingERNSt3__113basic_ostreamIcNS6_11char_traitsIcEEEE, symObjAddr: 0x111A4, symBinAddr: 0x17B74, symSize: 0x10 }
  - { offsetInCU: 0x1488FB, offset: 0x1488FB, size: 0x8, addend: 0x0, symName: __ZThn8_N8facebook3jsi16RuntimeDecoratorINS_6hermes17HermesRuntimeImplENS0_17ThreadSafeRuntimeEE16stopHeapSamplingERNSt3__113basic_ostreamIcNS6_11char_traitsIcEEEE, symObjAddr: 0x111A4, symBinAddr: 0x17B74, symSize: 0x10 }
  - { offsetInCU: 0x148922, offset: 0x148922, size: 0x8, addend: 0x0, symName: __ZThn8_N8facebook3jsi16RuntimeDecoratorINS_6hermes17HermesRuntimeImplENS0_17ThreadSafeRuntimeEE16stopHeapSamplingERNSt3__113basic_ostreamIcNS6_11char_traitsIcEEEE, symObjAddr: 0x111A4, symBinAddr: 0x17B74, symSize: 0x10 }
  - { offsetInCU: 0x148989, offset: 0x148989, size: 0x8, addend: 0x0, symName: __ZThn8_N8facebook3jsi16RuntimeDecoratorINS_6hermes17HermesRuntimeImplENS0_17ThreadSafeRuntimeEE20createSnapshotToFileERKNSt3__112basic_stringIcNS6_11char_traitsIcEENS6_9allocatorIcEEEERKNS0_15Instrumentation19HeapSnapshotOptionsE, symObjAddr: 0x111B4, symBinAddr: 0x17B84, symSize: 0x10 }
  - { offsetInCU: 0x1489A5, offset: 0x1489A5, size: 0x8, addend: 0x0, symName: __ZThn8_N8facebook3jsi16RuntimeDecoratorINS_6hermes17HermesRuntimeImplENS0_17ThreadSafeRuntimeEE20createSnapshotToFileERKNSt3__112basic_stringIcNS6_11char_traitsIcEENS6_9allocatorIcEEEERKNS0_15Instrumentation19HeapSnapshotOptionsE, symObjAddr: 0x111B4, symBinAddr: 0x17B84, symSize: 0x10 }
  - { offsetInCU: 0x1489D4, offset: 0x1489D4, size: 0x8, addend: 0x0, symName: __ZThn8_N8facebook3jsi16RuntimeDecoratorINS_6hermes17HermesRuntimeImplENS0_17ThreadSafeRuntimeEE20createSnapshotToFileERKNSt3__112basic_stringIcNS6_11char_traitsIcEENS6_9allocatorIcEEEERKNS0_15Instrumentation19HeapSnapshotOptionsE, symObjAddr: 0x111B4, symBinAddr: 0x17B84, symSize: 0x10 }
  - { offsetInCU: 0x148A43, offset: 0x148A43, size: 0x8, addend: 0x0, symName: __ZThn8_N8facebook3jsi16RuntimeDecoratorINS_6hermes17HermesRuntimeImplENS0_17ThreadSafeRuntimeEE22createSnapshotToStreamERNSt3__113basic_ostreamIcNS6_11char_traitsIcEEEERKNS0_15Instrumentation19HeapSnapshotOptionsE, symObjAddr: 0x111C4, symBinAddr: 0x17B94, symSize: 0x10 }
  - { offsetInCU: 0x148A5F, offset: 0x148A5F, size: 0x8, addend: 0x0, symName: __ZThn8_N8facebook3jsi16RuntimeDecoratorINS_6hermes17HermesRuntimeImplENS0_17ThreadSafeRuntimeEE22createSnapshotToStreamERNSt3__113basic_ostreamIcNS6_11char_traitsIcEEEERKNS0_15Instrumentation19HeapSnapshotOptionsE, symObjAddr: 0x111C4, symBinAddr: 0x17B94, symSize: 0x10 }
  - { offsetInCU: 0x148A8E, offset: 0x148A8E, size: 0x8, addend: 0x0, symName: __ZThn8_N8facebook3jsi16RuntimeDecoratorINS_6hermes17HermesRuntimeImplENS0_17ThreadSafeRuntimeEE22createSnapshotToStreamERNSt3__113basic_ostreamIcNS6_11char_traitsIcEEEERKNS0_15Instrumentation19HeapSnapshotOptionsE, symObjAddr: 0x111C4, symBinAddr: 0x17B94, symSize: 0x10 }
  - { offsetInCU: 0x148AE1, offset: 0x148AE1, size: 0x8, addend: 0x0, symName: __ZThn8_N8facebook3jsi16RuntimeDecoratorINS_6hermes17HermesRuntimeImplENS0_17ThreadSafeRuntimeEE33flushAndDisableBridgeTrafficTraceEv, symObjAddr: 0x111D4, symBinAddr: 0x17BA4, symSize: 0x10 }
  - { offsetInCU: 0x148AFD, offset: 0x148AFD, size: 0x8, addend: 0x0, symName: __ZThn8_N8facebook3jsi16RuntimeDecoratorINS_6hermes17HermesRuntimeImplENS0_17ThreadSafeRuntimeEE33flushAndDisableBridgeTrafficTraceEv, symObjAddr: 0x111D4, symBinAddr: 0x17BA4, symSize: 0x10 }
  - { offsetInCU: 0x148B1C, offset: 0x148B1C, size: 0x8, addend: 0x0, symName: __ZThn8_N8facebook3jsi16RuntimeDecoratorINS_6hermes17HermesRuntimeImplENS0_17ThreadSafeRuntimeEE33flushAndDisableBridgeTrafficTraceEv, symObjAddr: 0x111D4, symBinAddr: 0x17BA4, symSize: 0x10 }
  - { offsetInCU: 0x148B75, offset: 0x148B75, size: 0x8, addend: 0x0, symName: __ZThn8_NK8facebook3jsi16RuntimeDecoratorINS_6hermes17HermesRuntimeImplENS0_17ThreadSafeRuntimeEE33writeBasicBlockProfileTraceToFileERKNSt3__112basic_stringIcNS6_11char_traitsIcEENS6_9allocatorIcEEEE, symObjAddr: 0x111E4, symBinAddr: 0x17BB4, symSize: 0x10 }
  - { offsetInCU: 0x148B91, offset: 0x148B91, size: 0x8, addend: 0x0, symName: __ZThn8_NK8facebook3jsi16RuntimeDecoratorINS_6hermes17HermesRuntimeImplENS0_17ThreadSafeRuntimeEE33writeBasicBlockProfileTraceToFileERKNSt3__112basic_stringIcNS6_11char_traitsIcEENS6_9allocatorIcEEEE, symObjAddr: 0x111E4, symBinAddr: 0x17BB4, symSize: 0x10 }
  - { offsetInCU: 0x148BB8, offset: 0x148BB8, size: 0x8, addend: 0x0, symName: __ZThn8_NK8facebook3jsi16RuntimeDecoratorINS_6hermes17HermesRuntimeImplENS0_17ThreadSafeRuntimeEE33writeBasicBlockProfileTraceToFileERKNSt3__112basic_stringIcNS6_11char_traitsIcEENS6_9allocatorIcEEEE, symObjAddr: 0x111E4, symBinAddr: 0x17BB4, symSize: 0x10 }
  - { offsetInCU: 0x148C11, offset: 0x148C11, size: 0x8, addend: 0x0, symName: __ZThn8_NK8facebook3jsi16RuntimeDecoratorINS_6hermes17HermesRuntimeImplENS0_17ThreadSafeRuntimeEE25dumpProfilerSymbolsToFileERKNSt3__112basic_stringIcNS6_11char_traitsIcEENS6_9allocatorIcEEEE, symObjAddr: 0x111F4, symBinAddr: 0x17BC4, symSize: 0x10 }
  - { offsetInCU: 0x148C2D, offset: 0x148C2D, size: 0x8, addend: 0x0, symName: __ZThn8_NK8facebook3jsi16RuntimeDecoratorINS_6hermes17HermesRuntimeImplENS0_17ThreadSafeRuntimeEE25dumpProfilerSymbolsToFileERKNSt3__112basic_stringIcNS6_11char_traitsIcEENS6_9allocatorIcEEEE, symObjAddr: 0x111F4, symBinAddr: 0x17BC4, symSize: 0x10 }
  - { offsetInCU: 0x148C54, offset: 0x148C54, size: 0x8, addend: 0x0, symName: __ZThn8_NK8facebook3jsi16RuntimeDecoratorINS_6hermes17HermesRuntimeImplENS0_17ThreadSafeRuntimeEE25dumpProfilerSymbolsToFileERKNSt3__112basic_stringIcNS6_11char_traitsIcEENS6_9allocatorIcEEEE, symObjAddr: 0x111F4, symBinAddr: 0x17BC4, symSize: 0x10 }
  - { offsetInCU: 0x148D57, offset: 0x148D57, size: 0x8, addend: 0x0, symName: __ZNSt3__110shared_ptrIN8facebook3jsi19DecoratedHostObjectEED2B7v160006Ev, symObjAddr: 0x11908, symBinAddr: 0x182D8, symSize: 0x58 }
  - { offsetInCU: 0x14956F, offset: 0x14956F, size: 0x8, addend: 0x0, symName: __ZNSt3__120__shared_ptr_emplaceIN8facebook3jsi19DecoratedHostObjectENS_9allocatorIS3_EEEC2B7v160006IJRNS2_16RuntimeDecoratorINS1_6hermes17HermesRuntimeImplENS2_17ThreadSafeRuntimeEEENS_10shared_ptrINS2_10HostObjectEEEEEES5_DpOT_, symObjAddr: 0x11798, symBinAddr: 0x18168, symSize: 0x90 }
  - { offsetInCU: 0x149880, offset: 0x149880, size: 0x8, addend: 0x0, symName: __ZNSt3__120__shared_ptr_emplaceIN8facebook3jsi19DecoratedHostObjectENS_9allocatorIS3_EEED1Ev, symObjAddr: 0x11828, symBinAddr: 0x181F8, symSize: 0x10 }
  - { offsetInCU: 0x1498A4, offset: 0x1498A4, size: 0x8, addend: 0x0, symName: __ZNSt3__120__shared_ptr_emplaceIN8facebook3jsi19DecoratedHostObjectENS_9allocatorIS3_EEED1Ev, symObjAddr: 0x11828, symBinAddr: 0x181F8, symSize: 0x10 }
  - { offsetInCU: 0x1498DD, offset: 0x1498DD, size: 0x8, addend: 0x0, symName: __ZNSt3__120__shared_ptr_emplaceIN8facebook3jsi19DecoratedHostObjectENS_9allocatorIS3_EEED0Ev, symObjAddr: 0x11838, symBinAddr: 0x18208, symSize: 0x20 }
  - { offsetInCU: 0x149955, offset: 0x149955, size: 0x8, addend: 0x0, symName: __ZNSt3__120__shared_ptr_emplaceIN8facebook3jsi19DecoratedHostObjectENS_9allocatorIS3_EEE16__on_zero_sharedEv, symObjAddr: 0x11858, symBinAddr: 0x18228, symSize: 0xC }
  - { offsetInCU: 0x149988, offset: 0x149988, size: 0x8, addend: 0x0, symName: __ZNSt3__120__shared_ptr_emplaceIN8facebook3jsi19DecoratedHostObjectENS_9allocatorIS3_EEE21__on_zero_shared_weakEv, symObjAddr: 0x11864, symBinAddr: 0x18234, symSize: 0x4 }
  - { offsetInCU: 0x1499BD, offset: 0x1499BD, size: 0x8, addend: 0x0, symName: __ZNSt3__120__shared_ptr_emplaceIN8facebook3jsi19DecoratedHostObjectENS_9allocatorIS3_EEE21__on_zero_shared_weakEv, symObjAddr: 0x11864, symBinAddr: 0x18234, symSize: 0x4 }
  - { offsetInCU: 0x1499E2, offset: 0x1499E2, size: 0x8, addend: 0x0, symName: __ZNSt3__120__shared_ptr_emplaceIN8facebook3jsi19DecoratedHostObjectENS_9allocatorIS3_EEE21__on_zero_shared_weakEv, symObjAddr: 0x11864, symBinAddr: 0x18234, symSize: 0x4 }
  - { offsetInCU: 0x149A07, offset: 0x149A07, size: 0x8, addend: 0x0, symName: __ZNSt3__120__shared_ptr_emplaceIN8facebook3jsi19DecoratedHostObjectENS_9allocatorIS3_EEE21__on_zero_shared_weakEv, symObjAddr: 0x11864, symBinAddr: 0x18234, symSize: 0x4 }
  - { offsetInCU: 0x149A37, offset: 0x149A37, size: 0x8, addend: 0x0, symName: __ZNSt3__120__shared_ptr_emplaceIN8facebook3jsi19DecoratedHostObjectENS_9allocatorIS3_EEE21__on_zero_shared_weakEv, symObjAddr: 0x11864, symBinAddr: 0x18234, symSize: 0x4 }
  - { offsetInCU: 0x149A61, offset: 0x149A61, size: 0x8, addend: 0x0, symName: __ZNSt3__120__shared_ptr_emplaceIN8facebook3jsi19DecoratedHostObjectENS_9allocatorIS3_EEE21__on_zero_shared_weakEv, symObjAddr: 0x11864, symBinAddr: 0x18234, symSize: 0x4 }
  - { offsetInCU: 0x149A84, offset: 0x149A84, size: 0x8, addend: 0x0, symName: __ZNSt3__120__shared_ptr_emplaceIN8facebook3jsi19DecoratedHostObjectENS_9allocatorIS3_EEE21__on_zero_shared_weakEv, symObjAddr: 0x11864, symBinAddr: 0x18234, symSize: 0x4 }
  - { offsetInCU: 0x149AC1, offset: 0x149AC1, size: 0x8, addend: 0x0, symName: __ZN8facebook3jsi19DecoratedHostObjectD1Ev, symObjAddr: 0x11868, symBinAddr: 0x18238, symSize: 0x30 }
  - { offsetInCU: 0x149B4F, offset: 0x149B4F, size: 0x8, addend: 0x0, symName: __ZN8facebook3jsi19DecoratedHostObjectD0Ev, symObjAddr: 0x11898, symBinAddr: 0x18268, symSize: 0x34 }
  - { offsetInCU: 0x149BF6, offset: 0x149BF6, size: 0x8, addend: 0x0, symName: __ZN8facebook3jsi19DecoratedHostObject3getERNS0_7RuntimeERKNS0_10PropNameIDE, symObjAddr: 0x118CC, symBinAddr: 0x1829C, symSize: 0x14 }
  - { offsetInCU: 0x149C3C, offset: 0x149C3C, size: 0x8, addend: 0x0, symName: __ZN8facebook3jsi19DecoratedHostObject3getERNS0_7RuntimeERKNS0_10PropNameIDE, symObjAddr: 0x118CC, symBinAddr: 0x1829C, symSize: 0x14 }
  - { offsetInCU: 0x149C77, offset: 0x149C77, size: 0x8, addend: 0x0, symName: __ZN8facebook3jsi19DecoratedHostObject3setERNS0_7RuntimeERKNS0_10PropNameIDERKNS0_5ValueE, symObjAddr: 0x118E0, symBinAddr: 0x182B0, symSize: 0x14 }
  - { offsetInCU: 0x149CCC, offset: 0x149CCC, size: 0x8, addend: 0x0, symName: __ZN8facebook3jsi19DecoratedHostObject3setERNS0_7RuntimeERKNS0_10PropNameIDERKNS0_5ValueE, symObjAddr: 0x118E0, symBinAddr: 0x182B0, symSize: 0x14 }
  - { offsetInCU: 0x149D07, offset: 0x149D07, size: 0x8, addend: 0x0, symName: __ZN8facebook3jsi19DecoratedHostObject16getPropertyNamesERNS0_7RuntimeE, symObjAddr: 0x118F4, symBinAddr: 0x182C4, symSize: 0x14 }
  - { offsetInCU: 0x149D3E, offset: 0x149D3E, size: 0x8, addend: 0x0, symName: __ZN8facebook3jsi19DecoratedHostObject16getPropertyNamesERNS0_7RuntimeE, symObjAddr: 0x118F4, symBinAddr: 0x182C4, symSize: 0x14 }
  - { offsetInCU: 0x149E1A, offset: 0x149E1A, size: 0x8, addend: 0x0, symName: __ZNSt3__110__function6__funcIN8facebook3jsi21DecoratedHostFunctionENS_9allocatorIS4_EEFNS3_5ValueERNS3_7RuntimeERKS7_PSA_mEED1Ev, symObjAddr: 0x11960, symBinAddr: 0x18330, symSize: 0x5C }
  - { offsetInCU: 0x149FEB, offset: 0x149FEB, size: 0x8, addend: 0x0, symName: __ZNSt3__110__function6__funcIN8facebook3jsi21DecoratedHostFunctionENS_9allocatorIS4_EEFNS3_5ValueERNS3_7RuntimeERKS7_PSA_mEED0Ev, symObjAddr: 0x119BC, symBinAddr: 0x1838C, symSize: 0x5C }
  - { offsetInCU: 0x14A57E, offset: 0x14A57E, size: 0x8, addend: 0x0, symName: __ZNKSt3__110__function6__funcIN8facebook3jsi21DecoratedHostFunctionENS_9allocatorIS4_EEFNS3_5ValueERNS3_7RuntimeERKS7_PSA_mEE7__cloneEv, symObjAddr: 0x11A18, symBinAddr: 0x183E8, symSize: 0x58 }
  - { offsetInCU: 0x14A928, offset: 0x14A928, size: 0x8, addend: 0x0, symName: __ZNSt3__110__function12__value_funcIFN8facebook3jsi5ValueERNS3_7RuntimeERKS4_PS7_mEEC2B7v160006ERKSB_, symObjAddr: 0x11B74, symBinAddr: 0x18544, symSize: 0x64 }
  - { offsetInCU: 0x14AAF8, offset: 0x14AAF8, size: 0x8, addend: 0x0, symName: __ZNKSt3__110__function6__funcIN8facebook3jsi21DecoratedHostFunctionENS_9allocatorIS4_EEFNS3_5ValueERNS3_7RuntimeERKS7_PSA_mEE7__cloneEPNS0_6__baseISD_EE, symObjAddr: 0x11A70, symBinAddr: 0x18440, symSize: 0x20 }
  - { offsetInCU: 0x14AB35, offset: 0x14AB35, size: 0x8, addend: 0x0, symName: __ZNKSt3__110__function6__funcIN8facebook3jsi21DecoratedHostFunctionENS_9allocatorIS4_EEFNS3_5ValueERNS3_7RuntimeERKS7_PSA_mEE7__cloneEPNS0_6__baseISD_EE, symObjAddr: 0x11A70, symBinAddr: 0x18440, symSize: 0x20 }
  - { offsetInCU: 0x14AB69, offset: 0x14AB69, size: 0x8, addend: 0x0, symName: __ZNKSt3__110__function6__funcIN8facebook3jsi21DecoratedHostFunctionENS_9allocatorIS4_EEFNS3_5ValueERNS3_7RuntimeERKS7_PSA_mEE7__cloneEPNS0_6__baseISD_EE, symObjAddr: 0x11A70, symBinAddr: 0x18440, symSize: 0x20 }
  - { offsetInCU: 0x14AD4D, offset: 0x14AD4D, size: 0x8, addend: 0x0, symName: __ZNSt3__110__function6__funcIN8facebook3jsi21DecoratedHostFunctionENS_9allocatorIS4_EEFNS3_5ValueERNS3_7RuntimeERKS7_PSA_mEE7destroyEv, symObjAddr: 0x11A90, symBinAddr: 0x18460, symSize: 0x34 }
  - { offsetInCU: 0x14AD79, offset: 0x14AD79, size: 0x8, addend: 0x0, symName: __ZNSt3__110__function6__funcIN8facebook3jsi21DecoratedHostFunctionENS_9allocatorIS4_EEFNS3_5ValueERNS3_7RuntimeERKS7_PSA_mEE7destroyEv, symObjAddr: 0x11A90, symBinAddr: 0x18460, symSize: 0x34 }
  - { offsetInCU: 0x14AD99, offset: 0x14AD99, size: 0x8, addend: 0x0, symName: __ZNSt3__110__function6__funcIN8facebook3jsi21DecoratedHostFunctionENS_9allocatorIS4_EEFNS3_5ValueERNS3_7RuntimeERKS7_PSA_mEE7destroyEv, symObjAddr: 0x11A90, symBinAddr: 0x18460, symSize: 0x34 }
  - { offsetInCU: 0x14ADB8, offset: 0x14ADB8, size: 0x8, addend: 0x0, symName: __ZNSt3__110__function6__funcIN8facebook3jsi21DecoratedHostFunctionENS_9allocatorIS4_EEFNS3_5ValueERNS3_7RuntimeERKS7_PSA_mEE7destroyEv, symObjAddr: 0x11A90, symBinAddr: 0x18460, symSize: 0x34 }
  - { offsetInCU: 0x14ADD7, offset: 0x14ADD7, size: 0x8, addend: 0x0, symName: __ZNSt3__110__function6__funcIN8facebook3jsi21DecoratedHostFunctionENS_9allocatorIS4_EEFNS3_5ValueERNS3_7RuntimeERKS7_PSA_mEE7destroyEv, symObjAddr: 0x11A90, symBinAddr: 0x18460, symSize: 0x34 }
  - { offsetInCU: 0x14ADF6, offset: 0x14ADF6, size: 0x8, addend: 0x0, symName: __ZNSt3__110__function6__funcIN8facebook3jsi21DecoratedHostFunctionENS_9allocatorIS4_EEFNS3_5ValueERNS3_7RuntimeERKS7_PSA_mEE7destroyEv, symObjAddr: 0x11A90, symBinAddr: 0x18460, symSize: 0x34 }
  - { offsetInCU: 0x14AE15, offset: 0x14AE15, size: 0x8, addend: 0x0, symName: __ZNSt3__110__function6__funcIN8facebook3jsi21DecoratedHostFunctionENS_9allocatorIS4_EEFNS3_5ValueERNS3_7RuntimeERKS7_PSA_mEE7destroyEv, symObjAddr: 0x11A90, symBinAddr: 0x18460, symSize: 0x34 }
  - { offsetInCU: 0x14AEC8, offset: 0x14AEC8, size: 0x8, addend: 0x0, symName: __ZNSt3__110__function6__funcIN8facebook3jsi21DecoratedHostFunctionENS_9allocatorIS4_EEFNS3_5ValueERNS3_7RuntimeERKS7_PSA_mEE18destroy_deallocateEv, symObjAddr: 0x11AC4, symBinAddr: 0x18494, symSize: 0x50 }
  - { offsetInCU: 0x14B22A, offset: 0x14B22A, size: 0x8, addend: 0x0, symName: __ZNSt3__110__function6__funcIN8facebook3jsi21DecoratedHostFunctionENS_9allocatorIS4_EEFNS3_5ValueERNS3_7RuntimeERKS7_PSA_mEEclES9_SB_OSC_Om, symObjAddr: 0x11B14, symBinAddr: 0x184E4, symSize: 0x18 }
  - { offsetInCU: 0x14B298, offset: 0x14B298, size: 0x8, addend: 0x0, symName: __ZNSt3__110__function6__funcIN8facebook3jsi21DecoratedHostFunctionENS_9allocatorIS4_EEFNS3_5ValueERNS3_7RuntimeERKS7_PSA_mEEclES9_SB_OSC_Om, symObjAddr: 0x11B14, symBinAddr: 0x184E4, symSize: 0x18 }
  - { offsetInCU: 0x14B2D4, offset: 0x14B2D4, size: 0x8, addend: 0x0, symName: __ZNSt3__110__function6__funcIN8facebook3jsi21DecoratedHostFunctionENS_9allocatorIS4_EEFNS3_5ValueERNS3_7RuntimeERKS7_PSA_mEEclES9_SB_OSC_Om, symObjAddr: 0x11B14, symBinAddr: 0x184E4, symSize: 0x18 }
  - { offsetInCU: 0x14B30F, offset: 0x14B30F, size: 0x8, addend: 0x0, symName: __ZNSt3__110__function6__funcIN8facebook3jsi21DecoratedHostFunctionENS_9allocatorIS4_EEFNS3_5ValueERNS3_7RuntimeERKS7_PSA_mEEclES9_SB_OSC_Om, symObjAddr: 0x11B14, symBinAddr: 0x184E4, symSize: 0x18 }
  - { offsetInCU: 0x14B3C6, offset: 0x14B3C6, size: 0x8, addend: 0x0, symName: __ZNKSt3__110__function6__funcIN8facebook3jsi21DecoratedHostFunctionENS_9allocatorIS4_EEFNS3_5ValueERNS3_7RuntimeERKS7_PSA_mEE6targetERKSt9type_info, symObjAddr: 0x11B2C, symBinAddr: 0x184FC, symSize: 0x3C }
  - { offsetInCU: 0x14B417, offset: 0x14B417, size: 0x8, addend: 0x0, symName: __ZNKSt3__110__function6__funcIN8facebook3jsi21DecoratedHostFunctionENS_9allocatorIS4_EEFNS3_5ValueERNS3_7RuntimeERKS7_PSA_mEE11target_typeEv, symObjAddr: 0x11B68, symBinAddr: 0x18538, symSize: 0xC }
  - { offsetInCU: 0x14B474, offset: 0x14B474, size: 0x8, addend: 0x0, symName: _OUTLINED_FUNCTION_0, symObjAddr: 0x11D48, symBinAddr: 0x1860C, symSize: 0xC }
  - { offsetInCU: 0x2057, offset: 0x14D722, size: 0x8, addend: 0x0, symName: __ZN8facebook3jsi12_GLOBAL__N_112kindToStringERKNS0_5ValueEPNS0_7RuntimeE, symObjAddr: 0x1644, symBinAddr: 0x19C5C, symSize: 0x168 }
  - { offsetInCU: 0x23ED, offset: 0x14DAB8, size: 0x8, addend: 0x0, symName: __ZN8facebook3jsi12_GLOBAL__N_118convertUTF8ToUTF16ERKNSt3__112basic_stringIcNS2_11char_traitsIcEENS2_9allocatorIcEEEE, symObjAddr: 0x9F4, symBinAddr: 0x1900C, symSize: 0x1D8 }
  - { offsetInCU: 0x27EB, offset: 0x14DEB6, size: 0x8, addend: 0x0, symName: __ZN8facebook3jsi12_GLOBAL__N_118callGlobalFunctionERNS0_7RuntimeEPKcRKNS0_5ValueE, symObjAddr: 0x4630, symBinAddr: 0x1CBC8, symSize: 0x5B8 }
  - { offsetInCU: 0xB4C7, offset: 0x156B92, size: 0x8, addend: 0x0, symName: __ZNSt3__115allocate_sharedB7v160006IN8facebook3jsi5ValueENS_9allocatorIS3_EEJS3_EvEENS_10shared_ptrIT_EERKT0_DpOT1_, symObjAddr: 0x5A7C, symBinAddr: 0x1DCE0, symSize: 0x58 }
  - { offsetInCU: 0xC400, offset: 0x157ACB, size: 0x8, addend: 0x0, symName: __ZN8facebook3jsi7Runtime15instrumentationEv, symObjAddr: 0x198, symBinAddr: 0x187B0, symSize: 0x48 }
  - { offsetInCU: 0xC426, offset: 0x157AF1, size: 0x8, addend: 0x0, symName: __ZZN8facebook3jsi7Runtime15instrumentationEvE14sharedInstance, symObjAddr: 0x7040, symBinAddr: 0x20C3C8, symSize: 0x0 }
  - { offsetInCU: 0xE4FB, offset: 0x159BC6, size: 0x8, addend: 0x0, symName: __ZN8facebook3jsi6BufferD2Ev, symObjAddr: 0x0, symBinAddr: 0x18618, symSize: 0x4 }
  - { offsetInCU: 0xE526, offset: 0x159BF1, size: 0x8, addend: 0x0, symName: __ZN8facebook3jsi6BufferD1Ev, symObjAddr: 0x4, symBinAddr: 0x1861C, symSize: 0x4 }
  - { offsetInCU: 0xE54F, offset: 0x159C1A, size: 0x8, addend: 0x0, symName: __ZN8facebook3jsi6BufferD0Ev, symObjAddr: 0x8, symBinAddr: 0x18620, symSize: 0x4 }
  - { offsetInCU: 0xE578, offset: 0x159C43, size: 0x8, addend: 0x0, symName: __ZN8facebook3jsi13MutableBufferD2Ev, symObjAddr: 0xC, symBinAddr: 0x18624, symSize: 0x4 }
  - { offsetInCU: 0xE5A3, offset: 0x159C6E, size: 0x8, addend: 0x0, symName: __ZN8facebook3jsi13MutableBufferD1Ev, symObjAddr: 0x10, symBinAddr: 0x18628, symSize: 0x4 }
  - { offsetInCU: 0xE5CC, offset: 0x159C97, size: 0x8, addend: 0x0, symName: __ZN8facebook3jsi13MutableBufferD0Ev, symObjAddr: 0x14, symBinAddr: 0x1862C, symSize: 0x4 }
  - { offsetInCU: 0xE5F5, offset: 0x159CC0, size: 0x8, addend: 0x0, symName: __ZN8facebook3jsi18PreparedJavaScriptD2Ev, symObjAddr: 0x18, symBinAddr: 0x18630, symSize: 0x4 }
  - { offsetInCU: 0xE620, offset: 0x159CEB, size: 0x8, addend: 0x0, symName: __ZN8facebook3jsi18PreparedJavaScriptD1Ev, symObjAddr: 0x1C, symBinAddr: 0x18634, symSize: 0x4 }
  - { offsetInCU: 0xE64B, offset: 0x159D16, size: 0x8, addend: 0x0, symName: __ZN8facebook3jsi18PreparedJavaScriptD0Ev, symObjAddr: 0x20, symBinAddr: 0x18638, symSize: 0x4 }
  - { offsetInCU: 0xE6DE, offset: 0x159DA9, size: 0x8, addend: 0x0, symName: __ZN8facebook3jsi10HostObject3getERNS0_7RuntimeERKNS0_10PropNameIDE, symObjAddr: 0x24, symBinAddr: 0x1863C, symSize: 0x8 }
  - { offsetInCU: 0xE715, offset: 0x159DE0, size: 0x8, addend: 0x0, symName: __ZN8facebook3jsi10HostObject3getERNS0_7RuntimeERKNS0_10PropNameIDE, symObjAddr: 0x24, symBinAddr: 0x1863C, symSize: 0x8 }
  - { offsetInCU: 0xE732, offset: 0x159DFD, size: 0x8, addend: 0x0, symName: __ZN8facebook3jsi10HostObject3getERNS0_7RuntimeERKNS0_10PropNameIDE, symObjAddr: 0x24, symBinAddr: 0x1863C, symSize: 0x8 }
  - { offsetInCU: 0xE757, offset: 0x159E22, size: 0x8, addend: 0x0, symName: __ZN8facebook3jsi10HostObject3getERNS0_7RuntimeERKNS0_10PropNameIDE, symObjAddr: 0x24, symBinAddr: 0x1863C, symSize: 0x8 }
  - { offsetInCU: 0xE98F, offset: 0x15A05A, size: 0x8, addend: 0x0, symName: __ZN8facebook3jsi10HostObject3setERNS0_7RuntimeERKNS0_10PropNameIDERKNS0_5ValueE, symObjAddr: 0x2C, symBinAddr: 0x18644, symSize: 0x140 }
  - { offsetInCU: 0xF2B3, offset: 0x15A97E, size: 0x8, addend: 0x0, symName: __ZN8facebook3jsi7JSErrorC2ERNS0_7RuntimeENSt3__112basic_stringIcNS4_11char_traitsIcEENS4_9allocatorIcEEEE, symObjAddr: 0x41EC, symBinAddr: 0x1C784, symSize: 0x444 }
  - { offsetInCU: 0x10AB6, offset: 0x15C181, size: 0x8, addend: 0x0, symName: __ZN8facebook3jsi7JSErrorC1ERNS0_7RuntimeENSt3__112basic_stringIcNS4_11char_traitsIcEENS4_9allocatorIcEEEE, symObjAddr: 0x16C, symBinAddr: 0x18784, symSize: 0x4 }
  - { offsetInCU: 0x10AEA, offset: 0x15C1B5, size: 0x8, addend: 0x0, symName: __ZN8facebook3jsi7JSErrorC1ERNS0_7RuntimeENSt3__112basic_stringIcNS4_11char_traitsIcEENS4_9allocatorIcEEEE, symObjAddr: 0x16C, symBinAddr: 0x18784, symSize: 0x4 }
  - { offsetInCU: 0x10B0F, offset: 0x15C1DA, size: 0x8, addend: 0x0, symName: __ZN8facebook3jsi7JSErrorD1Ev, symObjAddr: 0x170, symBinAddr: 0x18788, symSize: 0x4 }
  - { offsetInCU: 0x10B32, offset: 0x15C1FD, size: 0x8, addend: 0x0, symName: __ZN8facebook3jsi7JSErrorD1Ev, symObjAddr: 0x170, symBinAddr: 0x18788, symSize: 0x4 }
  - { offsetInCU: 0x10B47, offset: 0x15C212, size: 0x8, addend: 0x0, symName: __ZN8facebook3jsi7JSErrorD2Ev, symObjAddr: 0x536C, symBinAddr: 0x1D904, symSize: 0x54 }
  - { offsetInCU: 0x10E38, offset: 0x15C503, size: 0x8, addend: 0x0, symName: __ZN8facebook3jsi10HostObjectD2Ev, symObjAddr: 0x174, symBinAddr: 0x1878C, symSize: 0x4 }
  - { offsetInCU: 0x10E63, offset: 0x15C52E, size: 0x8, addend: 0x0, symName: __ZN8facebook3jsi10HostObjectD1Ev, symObjAddr: 0x178, symBinAddr: 0x18790, symSize: 0x4 }
  - { offsetInCU: 0x10E8E, offset: 0x15C559, size: 0x8, addend: 0x0, symName: __ZN8facebook3jsi10HostObjectD0Ev, symObjAddr: 0x17C, symBinAddr: 0x18794, symSize: 0x4 }
  - { offsetInCU: 0x10EB9, offset: 0x15C584, size: 0x8, addend: 0x0, symName: __ZN8facebook3jsi11NativeStateD2Ev, symObjAddr: 0x180, symBinAddr: 0x18798, symSize: 0x4 }
  - { offsetInCU: 0x10EE4, offset: 0x15C5AF, size: 0x8, addend: 0x0, symName: __ZN8facebook3jsi11NativeStateD1Ev, symObjAddr: 0x184, symBinAddr: 0x1879C, symSize: 0x4 }
  - { offsetInCU: 0x10F0F, offset: 0x15C5DA, size: 0x8, addend: 0x0, symName: __ZN8facebook3jsi11NativeStateD0Ev, symObjAddr: 0x188, symBinAddr: 0x187A0, symSize: 0x4 }
  - { offsetInCU: 0x10F3A, offset: 0x15C605, size: 0x8, addend: 0x0, symName: __ZN8facebook3jsi7RuntimeD2Ev, symObjAddr: 0x18C, symBinAddr: 0x187A4, symSize: 0x4 }
  - { offsetInCU: 0x10F65, offset: 0x15C630, size: 0x8, addend: 0x0, symName: __ZN8facebook3jsi7RuntimeD1Ev, symObjAddr: 0x190, symBinAddr: 0x187A8, symSize: 0x4 }
  - { offsetInCU: 0x10F8E, offset: 0x15C659, size: 0x8, addend: 0x0, symName: __ZN8facebook3jsi7RuntimeD0Ev, symObjAddr: 0x194, symBinAddr: 0x187AC, symSize: 0x4 }
  - { offsetInCU: 0x10FB7, offset: 0x15C682, size: 0x8, addend: 0x0, symName: __ZZN8facebook3jsi7Runtime15instrumentationEvEN17NoInstrumentationD1Ev, symObjAddr: 0x1E0, symBinAddr: 0x187F8, symSize: 0x4 }
  - { offsetInCU: 0x1129F, offset: 0x15C96A, size: 0x8, addend: 0x0, symName: __ZN8facebook3jsi7Runtime23createValueFromJsonUtf8EPKhm, symObjAddr: 0x1E4, symBinAddr: 0x187FC, symSize: 0x23C }
  - { offsetInCU: 0x11BB5, offset: 0x15D280, size: 0x8, addend: 0x0, symName: __ZNK8facebook3jsi6Object19getPropertyAsObjectERNS0_7RuntimeEPKc, symObjAddr: 0x420, symBinAddr: 0x18A38, symSize: 0x2E8 }
  - { offsetInCU: 0x12AC4, offset: 0x15E18F, size: 0x8, addend: 0x0, symName: __ZNK8facebook3jsi6Object21getPropertyAsFunctionERNS0_7RuntimeEPKc, symObjAddr: 0x708, symBinAddr: 0x18D20, symSize: 0x280 }
  - { offsetInCU: 0x13947, offset: 0x15F012, size: 0x8, addend: 0x0, symName: __ZN8facebook3jsi7Runtime23createValueFromJsonUtf8EPKhm.cold.1, symObjAddr: 0x5B88, symBinAddr: 0x1B43FC, symSize: 0x1C }
  - { offsetInCU: 0x13CFA, offset: 0x15F3C5, size: 0x8, addend: 0x0, symName: __ZN8facebook3jsi7Runtime5utf16ERKNS0_10PropNameIDE, symObjAddr: 0x988, symBinAddr: 0x18FA0, symSize: 0x6C }
  - { offsetInCU: 0x14122, offset: 0x15F7ED, size: 0x8, addend: 0x0, symName: __ZNSt3__112basic_stringIDsNS_11char_traitsIDsEENS_9allocatorIDsEEE9push_backEDs, symObjAddr: 0x55B0, symBinAddr: 0x1DB2C, symSize: 0xA4 }
  - { offsetInCU: 0x142C8, offset: 0x15F993, size: 0x8, addend: 0x0, symName: __ZN8facebook3jsi7Runtime5utf16ERKNS0_6StringE, symObjAddr: 0xBCC, symBinAddr: 0x191E4, symSize: 0x6C }
  - { offsetInCU: 0x145F2, offset: 0x15FCBD, size: 0x8, addend: 0x0, symName: __ZN8facebook3jsi7Runtime13getStringDataERKNS0_6StringEPvPFvS5_bPKvmE, symObjAddr: 0xC38, symBinAddr: 0x19250, symSize: 0x94 }
  - { offsetInCU: 0x14972, offset: 0x16003D, size: 0x8, addend: 0x0, symName: __ZN8facebook3jsi7Runtime17getPropNameIdDataERKNS0_10PropNameIDEPvPFvS5_bPKvmE, symObjAddr: 0xCCC, symBinAddr: 0x192E4, symSize: 0x94 }
  - { offsetInCU: 0x14CF2, offset: 0x1603BD, size: 0x8, addend: 0x0, symName: __ZN8facebook3jsi7Runtime14setPrototypeOfERKNS0_6ObjectERKNS0_5ValueE, symObjAddr: 0xD60, symBinAddr: 0x19378, symSize: 0x180 }
  - { offsetInCU: 0x1523D, offset: 0x160908, size: 0x8, addend: 0x0, symName: __ZNK8facebook3jsi8Function4callIJRKNS0_6ObjectERKNS0_5ValueEEEES6_RNS0_7RuntimeEDpOT_, symObjAddr: 0xEE0, symBinAddr: 0x194F8, symSize: 0x16C }
  - { offsetInCU: 0x15772, offset: 0x160E3D, size: 0x8, addend: 0x0, symName: __ZNO8facebook3jsi5Value8asObjectERNS0_7RuntimeE, symObjAddr: 0x104C, symBinAddr: 0x19664, symSize: 0x168 }
  - { offsetInCU: 0x15DBA, offset: 0x161485, size: 0x8, addend: 0x0, symName: __ZN8facebook3jsi5ValueC1ERNS0_7RuntimeERKS1_, symObjAddr: 0x2084, symBinAddr: 0x1A690, symSize: 0xFC }
  - { offsetInCU: 0x15EDC, offset: 0x1615A7, size: 0x8, addend: 0x0, symName: __ZNK8facebook3jsi8Function4callIJRKNS0_6ObjectERKNS0_5ValueEEEES6_RNS0_7RuntimeEDpOT_.cold.1, symObjAddr: 0x5BA4, symBinAddr: 0x1B4418, symSize: 0x1C }
  - { offsetInCU: 0x15F93, offset: 0x16165E, size: 0x8, addend: 0x0, symName: __ZNK8facebook3jsi8Function4callIJRKNS0_6ObjectERKNS0_5ValueEEEES6_RNS0_7RuntimeEDpOT_.cold.2, symObjAddr: 0x5BC0, symBinAddr: 0x1B4434, symSize: 0x48 }
  - { offsetInCU: 0x16060, offset: 0x16172B, size: 0x8, addend: 0x0, symName: __ZN8facebook3jsi5ValueD1Ev, symObjAddr: 0x11B4, symBinAddr: 0x197CC, symSize: 0x40 }
  - { offsetInCU: 0x1612B, offset: 0x1617F6, size: 0x8, addend: 0x0, symName: __ZN8facebook3jsi7Runtime14getPrototypeOfERKNS0_6ObjectE, symObjAddr: 0x11F4, symBinAddr: 0x1980C, symSize: 0x1EC }
  - { offsetInCU: 0x168F4, offset: 0x161FBF, size: 0x8, addend: 0x0, symName: __ZN8facebook3jsi7Runtime14getPrototypeOfERKNS0_6ObjectE.cold.1, symObjAddr: 0x5C08, symBinAddr: 0x1B447C, symSize: 0x1C }
  - { offsetInCU: 0x169FD, offset: 0x1620C8, size: 0x8, addend: 0x0, symName: __ZN8facebook3jsi7Runtime25createObjectWithPrototypeERKNS0_5ValueE, symObjAddr: 0x13E0, symBinAddr: 0x199F8, symSize: 0x220 }
  - { offsetInCU: 0x17193, offset: 0x16285E, size: 0x8, addend: 0x0, symName: __ZN8facebook3jsi7Runtime25createObjectWithPrototypeERKNS0_5ValueE.cold.1, symObjAddr: 0x5C24, symBinAddr: 0x1B4498, symSize: 0x1C }
  - { offsetInCU: 0x17261, offset: 0x16292C, size: 0x8, addend: 0x0, symName: __ZN8facebook3jsi7Runtime25createObjectWithPrototypeERKNS0_5ValueE.cold.2, symObjAddr: 0x5C40, symBinAddr: 0x1B44B4, symSize: 0x28 }
  - { offsetInCU: 0x17301, offset: 0x1629CC, size: 0x8, addend: 0x0, symName: __ZN8facebook3jsi7PointeraSEOS1_, symObjAddr: 0x1600, symBinAddr: 0x19C18, symSize: 0x44 }
  - { offsetInCU: 0x1740F, offset: 0x162ADA, size: 0x8, addend: 0x0, symName: __ZNKR8facebook3jsi6Object7asArrayERNS0_7RuntimeE, symObjAddr: 0x17AC, symBinAddr: 0x19DC4, symSize: 0x1C4 }
  - { offsetInCU: 0x17C82, offset: 0x16334D, size: 0x8, addend: 0x0, symName: __ZNO8facebook3jsi6Object7asArrayERNS0_7RuntimeE, symObjAddr: 0x1970, symBinAddr: 0x19F88, symSize: 0x1B8 }
  - { offsetInCU: 0x184D7, offset: 0x163BA2, size: 0x8, addend: 0x0, symName: __ZNKR8facebook3jsi6Object10asFunctionERNS0_7RuntimeE, symObjAddr: 0x1B28, symBinAddr: 0x1A140, symSize: 0x1C4 }
  - { offsetInCU: 0x18D1A, offset: 0x1643E5, size: 0x8, addend: 0x0, symName: __ZNO8facebook3jsi6Object10asFunctionERNS0_7RuntimeE, symObjAddr: 0x1CEC, symBinAddr: 0x1A304, symSize: 0x1B8 }
  - { offsetInCU: 0x19572, offset: 0x164C3D, size: 0x8, addend: 0x0, symName: __ZN8facebook3jsi5ValueC2EOS1_, symObjAddr: 0x1EA4, symBinAddr: 0x1A4BC, symSize: 0x4C }
  - { offsetInCU: 0x1962A, offset: 0x164CF5, size: 0x8, addend: 0x0, symName: __ZN8facebook3jsi5ValueC1EOS1_, symObjAddr: 0x1EFC, symBinAddr: 0x1A508, symSize: 0x4C }
  - { offsetInCU: 0x196F7, offset: 0x164DC2, size: 0x8, addend: 0x0, symName: __ZN8facebook3jsi5ValueC2ERNS0_7RuntimeERKS1_, symObjAddr: 0x1F48, symBinAddr: 0x1A554, symSize: 0xFC }
  - { offsetInCU: 0x197D3, offset: 0x164E9E, size: 0x8, addend: 0x0, symName: __ZN8facebook3jsi5ValueC2ERNS0_7RuntimeERKS1_.cold.1, symObjAddr: 0x5C68, symBinAddr: 0x1B44DC, symSize: 0x10 }
  - { offsetInCU: 0x197EE, offset: 0x164EB9, size: 0x8, addend: 0x0, symName: __ZN8facebook3jsi5ValueC2ERNS0_7RuntimeERKS1_.cold.1, symObjAddr: 0x5C68, symBinAddr: 0x1B44DC, symSize: 0x10 }
  - { offsetInCU: 0x19804, offset: 0x164ECF, size: 0x8, addend: 0x0, symName: __ZN8facebook3jsi5ValueC2ERNS0_7RuntimeERKS1_.cold.1, symObjAddr: 0x5C68, symBinAddr: 0x1B44DC, symSize: 0x10 }
  - { offsetInCU: 0x19824, offset: 0x164EEF, size: 0x8, addend: 0x0, symName: __ZN8facebook3jsi5ValueC2ERNS0_7RuntimeERKS1_.cold.1, symObjAddr: 0x5C68, symBinAddr: 0x1B44DC, symSize: 0x10 }
  - { offsetInCU: 0x19845, offset: 0x164F10, size: 0x8, addend: 0x0, symName: __ZN8facebook3jsi5ValueD2Ev, symObjAddr: 0x2044, symBinAddr: 0x1A650, symSize: 0x40 }
  - { offsetInCU: 0x198B6, offset: 0x164F81, size: 0x8, addend: 0x0, symName: __ZN8facebook3jsi5ValueC1ERNS0_7RuntimeERKS1_.cold.1, symObjAddr: 0x5C78, symBinAddr: 0x1B44EC, symSize: 0x10 }
  - { offsetInCU: 0x198D1, offset: 0x164F9C, size: 0x8, addend: 0x0, symName: __ZN8facebook3jsi5ValueC1ERNS0_7RuntimeERKS1_.cold.1, symObjAddr: 0x5C78, symBinAddr: 0x1B44EC, symSize: 0x10 }
  - { offsetInCU: 0x198E7, offset: 0x164FB2, size: 0x8, addend: 0x0, symName: __ZN8facebook3jsi5ValueC1ERNS0_7RuntimeERKS1_.cold.1, symObjAddr: 0x5C78, symBinAddr: 0x1B44EC, symSize: 0x10 }
  - { offsetInCU: 0x198FD, offset: 0x164FC8, size: 0x8, addend: 0x0, symName: __ZN8facebook3jsi5ValueC1ERNS0_7RuntimeERKS1_.cold.1, symObjAddr: 0x5C78, symBinAddr: 0x1B44EC, symSize: 0x10 }
  - { offsetInCU: 0x1991D, offset: 0x164FE8, size: 0x8, addend: 0x0, symName: __ZN8facebook3jsi5ValueC1ERNS0_7RuntimeERKS1_.cold.1, symObjAddr: 0x5C78, symBinAddr: 0x1B44EC, symSize: 0x10 }
  - { offsetInCU: 0x1993F, offset: 0x16500A, size: 0x8, addend: 0x0, symName: __ZN8facebook3jsi5Value12strictEqualsERNS0_7RuntimeERKS1_S5_, symObjAddr: 0x2180, symBinAddr: 0x1A78C, symSize: 0xB4 }
  - { offsetInCU: 0x19A51, offset: 0x16511C, size: 0x8, addend: 0x0, symName: __ZNK8facebook3jsi5Value6asBoolEv, symObjAddr: 0x2234, symBinAddr: 0x1A840, symSize: 0x198 }
  - { offsetInCU: 0x19F20, offset: 0x1655EB, size: 0x8, addend: 0x0, symName: __ZN8facebook3jsi18JSINativeExceptionD1Ev, symObjAddr: 0x23CC, symBinAddr: 0x1A9D8, symSize: 0x4 }
  - { offsetInCU: 0x19F43, offset: 0x16560E, size: 0x8, addend: 0x0, symName: __ZN8facebook3jsi18JSINativeExceptionD1Ev, symObjAddr: 0x23CC, symBinAddr: 0x1A9D8, symSize: 0x4 }
  - { offsetInCU: 0x19F62, offset: 0x16562D, size: 0x8, addend: 0x0, symName: __ZN8facebook3jsi18JSINativeExceptionD1Ev, symObjAddr: 0x23CC, symBinAddr: 0x1A9D8, symSize: 0x4 }
  - { offsetInCU: 0x19F77, offset: 0x165642, size: 0x8, addend: 0x0, symName: __ZN8facebook3jsi12JSIExceptionD2Ev, symObjAddr: 0x41AC, symBinAddr: 0x1C744, symSize: 0x3C }
  - { offsetInCU: 0x1A10A, offset: 0x1657D5, size: 0x8, addend: 0x0, symName: __ZNK8facebook3jsi5Value8asNumberEv, symObjAddr: 0x23D0, symBinAddr: 0x1A9DC, symSize: 0x198 }
  - { offsetInCU: 0x1A5BC, offset: 0x165C87, size: 0x8, addend: 0x0, symName: __ZNKR8facebook3jsi5Value8asObjectERNS0_7RuntimeE, symObjAddr: 0x2568, symBinAddr: 0x1AB74, symSize: 0x178 }
  - { offsetInCU: 0x1AC7F, offset: 0x16634A, size: 0x8, addend: 0x0, symName: __ZNKR8facebook3jsi5Value8asSymbolERNS0_7RuntimeE, symObjAddr: 0x26E0, symBinAddr: 0x1ACEC, symSize: 0x178 }
  - { offsetInCU: 0x1B2EB, offset: 0x1669B6, size: 0x8, addend: 0x0, symName: __ZNO8facebook3jsi5Value8asSymbolERNS0_7RuntimeE, symObjAddr: 0x2858, symBinAddr: 0x1AE64, symSize: 0x168 }
  - { offsetInCU: 0x1B99A, offset: 0x167065, size: 0x8, addend: 0x0, symName: __ZNKR8facebook3jsi5Value8asBigIntERNS0_7RuntimeE, symObjAddr: 0x29C0, symBinAddr: 0x1AFCC, symSize: 0x178 }
  - { offsetInCU: 0x1C006, offset: 0x1676D1, size: 0x8, addend: 0x0, symName: __ZNO8facebook3jsi5Value8asBigIntERNS0_7RuntimeE, symObjAddr: 0x2B38, symBinAddr: 0x1B144, symSize: 0x168 }
  - { offsetInCU: 0x1C66B, offset: 0x167D36, size: 0x8, addend: 0x0, symName: __ZNKR8facebook3jsi5Value8asStringERNS0_7RuntimeE, symObjAddr: 0x2CA0, symBinAddr: 0x1B2AC, symSize: 0x178 }
  - { offsetInCU: 0x1CCD7, offset: 0x1683A2, size: 0x8, addend: 0x0, symName: __ZNO8facebook3jsi5Value8asStringERNS0_7RuntimeE, symObjAddr: 0x2E18, symBinAddr: 0x1B424, symSize: 0x168 }
  - { offsetInCU: 0x1D303, offset: 0x1689CE, size: 0x8, addend: 0x0, symName: __ZNK8facebook3jsi5Value8toStringERNS0_7RuntimeE, symObjAddr: 0x2F80, symBinAddr: 0x1B58C, symSize: 0x188 }
  - { offsetInCU: 0x1D923, offset: 0x168FEE, size: 0x8, addend: 0x0, symName: __ZNK8facebook3jsi5Value8toStringERNS0_7RuntimeE.cold.1, symObjAddr: 0x5C88, symBinAddr: 0x1B44FC, symSize: 0x1C }
  - { offsetInCU: 0x1D9F1, offset: 0x1690BC, size: 0x8, addend: 0x0, symName: __ZNK8facebook3jsi5Value8toStringERNS0_7RuntimeE.cold.2, symObjAddr: 0x5CA4, symBinAddr: 0x1B4518, symSize: 0x28 }
  - { offsetInCU: 0x1DADD, offset: 0x1691A8, size: 0x8, addend: 0x0, symName: __ZNK8facebook3jsi6BigInt8asUint64ERNS0_7RuntimeE, symObjAddr: 0x3108, symBinAddr: 0x1B714, symSize: 0x90 }
  - { offsetInCU: 0x1DDF2, offset: 0x1694BD, size: 0x8, addend: 0x0, symName: __ZNK8facebook3jsi6BigInt7asInt64ERNS0_7RuntimeE, symObjAddr: 0x320C, symBinAddr: 0x1B7A4, symSize: 0x90 }
  - { offsetInCU: 0x1DF80, offset: 0x16964B, size: 0x8, addend: 0x0, symName: __ZN8facebook3jsi5Array18createWithElementsERNS0_7RuntimeESt16initializer_listINS0_5ValueEE, symObjAddr: 0x329C, symBinAddr: 0x1B834, symSize: 0xAC }
  - { offsetInCU: 0x1E1D7, offset: 0x1698A2, size: 0x8, addend: 0x0, symName: __ZNK8facebook3jsi5Array15setValueAtIndexIRKNS0_5ValueEEEvRNS0_7RuntimeEmOT_, symObjAddr: 0x3348, symBinAddr: 0x1B8E0, symSize: 0x9C }
  - { offsetInCU: 0x1E3EE, offset: 0x169AB9, size: 0x8, addend: 0x0, symName: __ZNK8facebook3jsi5Array15setValueAtIndexIRKNS0_5ValueEEEvRNS0_7RuntimeEmOT_.cold.1, symObjAddr: 0x5CCC, symBinAddr: 0x1B4540, symSize: 0x1C }
  - { offsetInCU: 0x1E4B0, offset: 0x169B7B, size: 0x8, addend: 0x0, symName: __ZN8facebook3jsi10HostObject16getPropertyNamesERNS0_7RuntimeE, symObjAddr: 0x33E4, symBinAddr: 0x1B97C, symSize: 0xC }
  - { offsetInCU: 0x1E4E1, offset: 0x169BAC, size: 0x8, addend: 0x0, symName: __ZN8facebook3jsi10HostObject16getPropertyNamesERNS0_7RuntimeE, symObjAddr: 0x33E4, symBinAddr: 0x1B97C, symSize: 0xC }
  - { offsetInCU: 0x1E4FF, offset: 0x169BCA, size: 0x8, addend: 0x0, symName: __ZN8facebook3jsi10HostObject16getPropertyNamesERNS0_7RuntimeE, symObjAddr: 0x33E4, symBinAddr: 0x1B97C, symSize: 0xC }
  - { offsetInCU: 0x1E51D, offset: 0x169BE8, size: 0x8, addend: 0x0, symName: __ZN8facebook3jsi7Runtime9pushScopeEv, symObjAddr: 0x33F0, symBinAddr: 0x1B988, symSize: 0x8 }
  - { offsetInCU: 0x1E543, offset: 0x169C0E, size: 0x8, addend: 0x0, symName: __ZN8facebook3jsi7Runtime8popScopeEPNS1_10ScopeStateE, symObjAddr: 0x33F8, symBinAddr: 0x1B990, symSize: 0x4 }
  - { offsetInCU: 0x1E5E0, offset: 0x169CAB, size: 0x8, addend: 0x0, symName: __ZN8facebook3jsi7JSErrorC2ERNS0_7RuntimeEONS0_5ValueE, symObjAddr: 0x33FC, symBinAddr: 0x1B994, symSize: 0x8C }
  - { offsetInCU: 0x1E9DF, offset: 0x16A0AA, size: 0x8, addend: 0x0, symName: __ZN8facebook3jsi7JSError8setValueERNS0_7RuntimeEONS0_5ValueE, symObjAddr: 0x3488, symBinAddr: 0x1BA20, symSize: 0xD24 }
  - { offsetInCU: 0x235DE, offset: 0x16ECA9, size: 0x8, addend: 0x0, symName: __ZNSt3__110shared_ptrIN8facebook3jsi5ValueEED2B7v160006Ev, symObjAddr: 0x58F8, symBinAddr: 0x1DBD0, symSize: 0x58 }
  - { offsetInCU: 0x23973, offset: 0x16F03E, size: 0x8, addend: 0x0, symName: __ZNSt3__110shared_ptrIN8facebook3jsi5ValueEEaSB7v160006EOS4_, symObjAddr: 0x52D8, symBinAddr: 0x1D870, symSize: 0x64 }
  - { offsetInCU: 0x23BE9, offset: 0x16F2B4, size: 0x8, addend: 0x0, symName: __ZNSt3__115allocate_sharedB7v160006IN8facebook3jsi5ValueENS_9allocatorIS3_EEJS3_EvEENS_10shared_ptrIT_EERKT0_DpOT1_, symObjAddr: 0x5A7C, symBinAddr: 0x1DCE0, symSize: 0x58 }
  - { offsetInCU: 0x23BFB, offset: 0x16F2C6, size: 0x8, addend: 0x0, symName: __ZN8facebook3jsi7JSErrorC1ERNS0_7RuntimeEONS0_5ValueE, symObjAddr: 0x41E8, symBinAddr: 0x1C780, symSize: 0x4 }
  - { offsetInCU: 0x23C47, offset: 0x16F312, size: 0x8, addend: 0x0, symName: __ZN8facebook3jsi7JSErrorC1ERNS0_7RuntimeEONS0_5ValueE, symObjAddr: 0x41E8, symBinAddr: 0x1C780, symSize: 0x4 }
  - { offsetInCU: 0x23D42, offset: 0x16F40D, size: 0x8, addend: 0x0, symName: __ZN8facebook3jsi7JSErrorC2ERNS0_7RuntimeENSt3__112basic_stringIcNS4_11char_traitsIcEENS4_9allocatorIcEEEE.cold.1, symObjAddr: 0x5CE8, symBinAddr: 0x1B455C, symSize: 0x1C }
  - { offsetInCU: 0x23DB6, offset: 0x16F481, size: 0x8, addend: 0x0, symName: __ZN8facebook3jsi12_GLOBAL__N_118callGlobalFunctionERNS0_7RuntimeEPKcRKNS0_5ValueE.cold.1, symObjAddr: 0x5D04, symBinAddr: 0x1B4578, symSize: 0x1C }
  - { offsetInCU: 0x23E83, offset: 0x16F54E, size: 0x8, addend: 0x0, symName: __ZN8facebook3jsi12_GLOBAL__N_118callGlobalFunctionERNS0_7RuntimeEPKcRKNS0_5ValueE.cold.2, symObjAddr: 0x5D20, symBinAddr: 0x1B4594, symSize: 0x28 }
  - { offsetInCU: 0x23F49, offset: 0x16F614, size: 0x8, addend: 0x0, symName: __ZN8facebook3jsi7JSErrorC2ERNS0_7RuntimeENSt3__112basic_stringIcNS4_11char_traitsIcEENS4_9allocatorIcEEEESA_, symObjAddr: 0x4BE8, symBinAddr: 0x1D180, symSize: 0x398 }
  - { offsetInCU: 0x2503E, offset: 0x170709, size: 0x8, addend: 0x0, symName: __ZNK8facebook3jsi6Object11setPropertyINS0_6StringEEEvRNS0_7RuntimeEPKcOT_, symObjAddr: 0x4F80, symBinAddr: 0x1D518, symSize: 0xA4 }
  - { offsetInCU: 0x2521C, offset: 0x1708E7, size: 0x8, addend: 0x0, symName: __ZN8facebook3jsi7JSErrorC2ERNS0_7RuntimeENSt3__112basic_stringIcNS4_11char_traitsIcEENS4_9allocatorIcEEEESA_.cold.2, symObjAddr: 0x5D64, symBinAddr: 0x1B45D8, symSize: 0x1C }
  - { offsetInCU: 0x25290, offset: 0x17095B, size: 0x8, addend: 0x0, symName: __ZN8facebook3jsi7JSErrorC2ERNS0_7RuntimeENSt3__112basic_stringIcNS4_11char_traitsIcEENS4_9allocatorIcEEEESA_.cold.1, symObjAddr: 0x5D48, symBinAddr: 0x1B45BC, symSize: 0x1C }
  - { offsetInCU: 0x25304, offset: 0x1709CF, size: 0x8, addend: 0x0, symName: __ZNK8facebook3jsi6Object11setPropertyINS0_6StringEEEvRNS0_7RuntimeERKS3_OT_, symObjAddr: 0x5950, symBinAddr: 0x1DC28, symSize: 0xB8 }
  - { offsetInCU: 0x255D4, offset: 0x170C9F, size: 0x8, addend: 0x0, symName: __ZN8facebook3jsi7JSErrorC1ERNS0_7RuntimeENSt3__112basic_stringIcNS4_11char_traitsIcEENS4_9allocatorIcEEEESA_, symObjAddr: 0x5024, symBinAddr: 0x1D5BC, symSize: 0x4 }
  - { offsetInCU: 0x25631, offset: 0x170CFC, size: 0x8, addend: 0x0, symName: __ZN8facebook3jsi7JSErrorC1ERNS0_7RuntimeENSt3__112basic_stringIcNS4_11char_traitsIcEENS4_9allocatorIcEEEESA_, symObjAddr: 0x5024, symBinAddr: 0x1D5BC, symSize: 0x4 }
  - { offsetInCU: 0x2565E, offset: 0x170D29, size: 0x8, addend: 0x0, symName: __ZN8facebook3jsi7JSErrorC2ENSt3__112basic_stringIcNS2_11char_traitsIcEENS2_9allocatorIcEEEERNS0_7RuntimeEONS0_5ValueE, symObjAddr: 0x5028, symBinAddr: 0x1D5C0, symSize: 0xF4 }
  - { offsetInCU: 0x25ACA, offset: 0x171195, size: 0x8, addend: 0x0, symName: __ZN8facebook3jsi7JSErrorC1ENSt3__112basic_stringIcNS2_11char_traitsIcEENS2_9allocatorIcEEEERNS0_7RuntimeEONS0_5ValueE, symObjAddr: 0x511C, symBinAddr: 0x1D6B4, symSize: 0x4 }
  - { offsetInCU: 0x25B26, offset: 0x1711F1, size: 0x8, addend: 0x0, symName: __ZN8facebook3jsi7JSErrorC1ENSt3__112basic_stringIcNS2_11char_traitsIcEENS2_9allocatorIcEEEERNS0_7RuntimeEONS0_5ValueE, symObjAddr: 0x511C, symBinAddr: 0x1D6B4, symSize: 0x4 }
  - { offsetInCU: 0x25B53, offset: 0x17121E, size: 0x8, addend: 0x0, symName: __ZN8facebook3jsi7JSErrorC2EONS0_5ValueENSt3__112basic_stringIcNS4_11char_traitsIcEENS4_9allocatorIcEEEESA_, symObjAddr: 0x5120, symBinAddr: 0x1D6B8, symSize: 0x1B4 }
  - { offsetInCU: 0x265BB, offset: 0x171C86, size: 0x8, addend: 0x0, symName: __ZN8facebook3jsi7JSErrorC1EONS0_5ValueENSt3__112basic_stringIcNS4_11char_traitsIcEENS4_9allocatorIcEEEESA_, symObjAddr: 0x52D4, symBinAddr: 0x1D86C, symSize: 0x4 }
  - { offsetInCU: 0x26618, offset: 0x171CE3, size: 0x8, addend: 0x0, symName: __ZN8facebook3jsi7JSErrorC1EONS0_5ValueENSt3__112basic_stringIcNS4_11char_traitsIcEENS4_9allocatorIcEEEESA_, symObjAddr: 0x52D4, symBinAddr: 0x1D86C, symSize: 0x4 }
  - { offsetInCU: 0x266C2, offset: 0x171D8D, size: 0x8, addend: 0x0, symName: __ZN8facebook3jsi12JSIExceptionD1Ev, symObjAddr: 0x533C, symBinAddr: 0x1D8D4, symSize: 0x4 }
  - { offsetInCU: 0x266E5, offset: 0x171DB0, size: 0x8, addend: 0x0, symName: __ZN8facebook3jsi12JSIExceptionD1Ev, symObjAddr: 0x533C, symBinAddr: 0x1D8D4, symSize: 0x4 }
  - { offsetInCU: 0x26717, offset: 0x171DE2, size: 0x8, addend: 0x0, symName: __ZN8facebook3jsi12JSIExceptionD0Ev, symObjAddr: 0x5340, symBinAddr: 0x1D8D8, symSize: 0x14 }
  - { offsetInCU: 0x26779, offset: 0x171E44, size: 0x8, addend: 0x0, symName: __ZN8facebook3jsi18JSINativeExceptionD2Ev, symObjAddr: 0x5354, symBinAddr: 0x1D8EC, symSize: 0x4 }
  - { offsetInCU: 0x2679C, offset: 0x171E67, size: 0x8, addend: 0x0, symName: __ZN8facebook3jsi18JSINativeExceptionD2Ev, symObjAddr: 0x5354, symBinAddr: 0x1D8EC, symSize: 0x4 }
  - { offsetInCU: 0x267CE, offset: 0x171E99, size: 0x8, addend: 0x0, symName: __ZN8facebook3jsi18JSINativeExceptionD0Ev, symObjAddr: 0x5358, symBinAddr: 0x1D8F0, symSize: 0x14 }
  - { offsetInCU: 0x2686C, offset: 0x171F37, size: 0x8, addend: 0x0, symName: __ZN8facebook3jsi7JSErrorD0Ev, symObjAddr: 0x53C0, symBinAddr: 0x1D958, symSize: 0x14 }
  - { offsetInCU: 0x268CE, offset: 0x171F99, size: 0x8, addend: 0x0, symName: __ZZN8facebook3jsi7Runtime15instrumentationEvEN17NoInstrumentationD0Ev, symObjAddr: 0x53F0, symBinAddr: 0x1D96C, symSize: 0x4 }
  - { offsetInCU: 0x268F9, offset: 0x171FC4, size: 0x8, addend: 0x0, symName: __ZZN8facebook3jsi7Runtime15instrumentationEvEN17NoInstrumentation18getRecordedGCStatsEv, symObjAddr: 0x53F4, symBinAddr: 0x1D970, symSize: 0x10 }
  - { offsetInCU: 0x26B3E, offset: 0x172209, size: 0x8, addend: 0x0, symName: __ZZN8facebook3jsi7Runtime15instrumentationEvEN17NoInstrumentation11getHeapInfoEb, symObjAddr: 0x5404, symBinAddr: 0x1D980, symSize: 0x14 }
  - { offsetInCU: 0x26B6F, offset: 0x17223A, size: 0x8, addend: 0x0, symName: __ZZN8facebook3jsi7Runtime15instrumentationEvEN17NoInstrumentation11getHeapInfoEb, symObjAddr: 0x5404, symBinAddr: 0x1D980, symSize: 0x14 }
  - { offsetInCU: 0x26B8C, offset: 0x172257, size: 0x8, addend: 0x0, symName: __ZZN8facebook3jsi7Runtime15instrumentationEvEN17NoInstrumentation11getHeapInfoEb, symObjAddr: 0x5404, symBinAddr: 0x1D980, symSize: 0x14 }
  - { offsetInCU: 0x26BAA, offset: 0x172275, size: 0x8, addend: 0x0, symName: __ZZN8facebook3jsi7Runtime15instrumentationEvEN17NoInstrumentation11getHeapInfoEb, symObjAddr: 0x5404, symBinAddr: 0x1D980, symSize: 0x14 }
  - { offsetInCU: 0x26BC8, offset: 0x172293, size: 0x8, addend: 0x0, symName: __ZZN8facebook3jsi7Runtime15instrumentationEvEN17NoInstrumentation11getHeapInfoEb, symObjAddr: 0x5404, symBinAddr: 0x1D980, symSize: 0x14 }
  - { offsetInCU: 0x26BE6, offset: 0x1722B1, size: 0x8, addend: 0x0, symName: __ZZN8facebook3jsi7Runtime15instrumentationEvEN17NoInstrumentation11getHeapInfoEb, symObjAddr: 0x5404, symBinAddr: 0x1D980, symSize: 0x14 }
  - { offsetInCU: 0x26C06, offset: 0x1722D1, size: 0x8, addend: 0x0, symName: __ZZN8facebook3jsi7Runtime15instrumentationEvEN17NoInstrumentation11getHeapInfoEb, symObjAddr: 0x5404, symBinAddr: 0x1D980, symSize: 0x14 }
  - { offsetInCU: 0x26C25, offset: 0x1722F0, size: 0x8, addend: 0x0, symName: __ZZN8facebook3jsi7Runtime15instrumentationEvEN17NoInstrumentation11getHeapInfoEb, symObjAddr: 0x5404, symBinAddr: 0x1D980, symSize: 0x14 }
  - { offsetInCU: 0x26C44, offset: 0x17230F, size: 0x8, addend: 0x0, symName: __ZZN8facebook3jsi7Runtime15instrumentationEvEN17NoInstrumentation11getHeapInfoEb, symObjAddr: 0x5404, symBinAddr: 0x1D980, symSize: 0x14 }
  - { offsetInCU: 0x26C63, offset: 0x17232E, size: 0x8, addend: 0x0, symName: __ZZN8facebook3jsi7Runtime15instrumentationEvEN17NoInstrumentation11getHeapInfoEb, symObjAddr: 0x5404, symBinAddr: 0x1D980, symSize: 0x14 }
  - { offsetInCU: 0x26CEA, offset: 0x1723B5, size: 0x8, addend: 0x0, symName: __ZZN8facebook3jsi7Runtime15instrumentationEvEN17NoInstrumentation14collectGarbageENSt3__112basic_stringIcNS3_11char_traitsIcEENS3_9allocatorIcEEEE, symObjAddr: 0x5418, symBinAddr: 0x1D994, symSize: 0x4 }
  - { offsetInCU: 0x26D19, offset: 0x1723E4, size: 0x8, addend: 0x0, symName: __ZZN8facebook3jsi7Runtime15instrumentationEvEN17NoInstrumentation34startTrackingHeapObjectStackTracesENSt3__18functionIFvyNS3_6chrono8durationIxNS3_5ratioILl1ELl1000000EEEEENS3_6vectorINS3_5tupleIJyyyEEENS3_9allocatorISC_EEEEEEE, symObjAddr: 0x541C, symBinAddr: 0x1D998, symSize: 0x4 }
  - { offsetInCU: 0x26D48, offset: 0x172413, size: 0x8, addend: 0x0, symName: __ZZN8facebook3jsi7Runtime15instrumentationEvEN17NoInstrumentation33stopTrackingHeapObjectStackTracesEv, symObjAddr: 0x5420, symBinAddr: 0x1D99C, symSize: 0x4 }
  - { offsetInCU: 0x26D6F, offset: 0x17243A, size: 0x8, addend: 0x0, symName: __ZZN8facebook3jsi7Runtime15instrumentationEvEN17NoInstrumentation17startHeapSamplingEm, symObjAddr: 0x5424, symBinAddr: 0x1D9A0, symSize: 0x4 }
  - { offsetInCU: 0x26D9E, offset: 0x172469, size: 0x8, addend: 0x0, symName: __ZZN8facebook3jsi7Runtime15instrumentationEvEN17NoInstrumentation16stopHeapSamplingERNSt3__113basic_ostreamIcNS3_11char_traitsIcEEEE, symObjAddr: 0x5428, symBinAddr: 0x1D9A4, symSize: 0x4 }
  - { offsetInCU: 0x26DCD, offset: 0x172498, size: 0x8, addend: 0x0, symName: __ZZN8facebook3jsi7Runtime15instrumentationEvEN17NoInstrumentation20createSnapshotToFileERKNSt3__112basic_stringIcNS3_11char_traitsIcEENS3_9allocatorIcEEEERKNS0_15Instrumentation19HeapSnapshotOptionsE, symObjAddr: 0x542C, symBinAddr: 0x1D9A8, symSize: 0xB0 }
  - { offsetInCU: 0x2706B, offset: 0x172736, size: 0x8, addend: 0x0, symName: __ZZN8facebook3jsi7Runtime15instrumentationEvEN17NoInstrumentation22createSnapshotToStreamERNSt3__113basic_ostreamIcNS3_11char_traitsIcEEEERKNS0_15Instrumentation19HeapSnapshotOptionsE, symObjAddr: 0x54DC, symBinAddr: 0x1DA58, symSize: 0xB0 }
  - { offsetInCU: 0x27309, offset: 0x1729D4, size: 0x8, addend: 0x0, symName: __ZZN8facebook3jsi7Runtime15instrumentationEvEN17NoInstrumentation33flushAndDisableBridgeTrafficTraceEv, symObjAddr: 0x558C, symBinAddr: 0x1DB08, symSize: 0xC }
  - { offsetInCU: 0x27330, offset: 0x1729FB, size: 0x8, addend: 0x0, symName: __ZZN8facebook3jsi7Runtime15instrumentationEvENK17NoInstrumentation33writeBasicBlockProfileTraceToFileERKNSt3__112basic_stringIcNS3_11char_traitsIcEENS3_9allocatorIcEEEE, symObjAddr: 0x5598, symBinAddr: 0x1DB14, symSize: 0xC }
  - { offsetInCU: 0x2735F, offset: 0x172A2A, size: 0x8, addend: 0x0, symName: __ZZN8facebook3jsi7Runtime15instrumentationEvENK17NoInstrumentation25dumpProfilerSymbolsToFileERKNSt3__112basic_stringIcNS3_11char_traitsIcEENS3_9allocatorIcEEEE, symObjAddr: 0x55A4, symBinAddr: 0x1DB20, symSize: 0xC }
  - { offsetInCU: 0x27A50, offset: 0x17311B, size: 0x8, addend: 0x0, symName: __ZNSt3__110shared_ptrIN8facebook3jsi5ValueEED2B7v160006Ev, symObjAddr: 0x58F8, symBinAddr: 0x1DBD0, symSize: 0x58 }
  - { offsetInCU: 0x27A98, offset: 0x173163, size: 0x8, addend: 0x0, symName: __ZNK8facebook3jsi6Object11setPropertyINS0_6StringEEEvRNS0_7RuntimeERKS3_OT_.cold.1, symObjAddr: 0x5D80, symBinAddr: 0x1B45F4, symSize: 0x1C }
  - { offsetInCU: 0x27D62, offset: 0x17342D, size: 0x8, addend: 0x0, symName: __ZNSt3__120__shared_ptr_emplaceIN8facebook3jsi5ValueENS_9allocatorIS3_EEEC2B7v160006IJS3_EEES5_DpOT_, symObjAddr: 0x5AD4, symBinAddr: 0x1DD38, symSize: 0x5C }
  - { offsetInCU: 0x27F37, offset: 0x173602, size: 0x8, addend: 0x0, symName: __ZNSt3__120__shared_ptr_emplaceIN8facebook3jsi5ValueENS_9allocatorIS3_EEED1Ev, symObjAddr: 0x5B30, symBinAddr: 0x1DD94, symSize: 0x10 }
  - { offsetInCU: 0x27F5A, offset: 0x173625, size: 0x8, addend: 0x0, symName: __ZNSt3__120__shared_ptr_emplaceIN8facebook3jsi5ValueENS_9allocatorIS3_EEED1Ev, symObjAddr: 0x5B30, symBinAddr: 0x1DD94, symSize: 0x10 }
  - { offsetInCU: 0x27F94, offset: 0x17365F, size: 0x8, addend: 0x0, symName: __ZNSt3__120__shared_ptr_emplaceIN8facebook3jsi5ValueENS_9allocatorIS3_EEED0Ev, symObjAddr: 0x5B40, symBinAddr: 0x1DDA4, symSize: 0x20 }
  - { offsetInCU: 0x27FFE, offset: 0x1736C9, size: 0x8, addend: 0x0, symName: __ZNSt3__120__shared_ptr_emplaceIN8facebook3jsi5ValueENS_9allocatorIS3_EEE16__on_zero_sharedEv, symObjAddr: 0x5B60, symBinAddr: 0x1DDC4, symSize: 0x24 }
  - { offsetInCU: 0x28027, offset: 0x1736F2, size: 0x8, addend: 0x0, symName: __ZNSt3__120__shared_ptr_emplaceIN8facebook3jsi5ValueENS_9allocatorIS3_EEE16__on_zero_sharedEv, symObjAddr: 0x5B60, symBinAddr: 0x1DDC4, symSize: 0x24 }
  - { offsetInCU: 0x28047, offset: 0x173712, size: 0x8, addend: 0x0, symName: __ZNSt3__120__shared_ptr_emplaceIN8facebook3jsi5ValueENS_9allocatorIS3_EEE16__on_zero_sharedEv, symObjAddr: 0x5B60, symBinAddr: 0x1DDC4, symSize: 0x24 }
  - { offsetInCU: 0x280B5, offset: 0x173780, size: 0x8, addend: 0x0, symName: __ZNSt3__120__shared_ptr_emplaceIN8facebook3jsi5ValueENS_9allocatorIS3_EEE21__on_zero_shared_weakEv, symObjAddr: 0x5B84, symBinAddr: 0x1DDE8, symSize: 0x4 }
  - { offsetInCU: 0x280E9, offset: 0x1737B4, size: 0x8, addend: 0x0, symName: __ZNSt3__120__shared_ptr_emplaceIN8facebook3jsi5ValueENS_9allocatorIS3_EEE21__on_zero_shared_weakEv, symObjAddr: 0x5B84, symBinAddr: 0x1DDE8, symSize: 0x4 }
  - { offsetInCU: 0x2810E, offset: 0x1737D9, size: 0x8, addend: 0x0, symName: __ZNSt3__120__shared_ptr_emplaceIN8facebook3jsi5ValueENS_9allocatorIS3_EEE21__on_zero_shared_weakEv, symObjAddr: 0x5B84, symBinAddr: 0x1DDE8, symSize: 0x4 }
  - { offsetInCU: 0x28133, offset: 0x1737FE, size: 0x8, addend: 0x0, symName: __ZNSt3__120__shared_ptr_emplaceIN8facebook3jsi5ValueENS_9allocatorIS3_EEE21__on_zero_shared_weakEv, symObjAddr: 0x5B84, symBinAddr: 0x1DDE8, symSize: 0x4 }
  - { offsetInCU: 0x28163, offset: 0x17382E, size: 0x8, addend: 0x0, symName: __ZNSt3__120__shared_ptr_emplaceIN8facebook3jsi5ValueENS_9allocatorIS3_EEE21__on_zero_shared_weakEv, symObjAddr: 0x5B84, symBinAddr: 0x1DDE8, symSize: 0x4 }
  - { offsetInCU: 0x2818D, offset: 0x173858, size: 0x8, addend: 0x0, symName: __ZNSt3__120__shared_ptr_emplaceIN8facebook3jsi5ValueENS_9allocatorIS3_EEE21__on_zero_shared_weakEv, symObjAddr: 0x5B84, symBinAddr: 0x1DDE8, symSize: 0x4 }
  - { offsetInCU: 0x281BA, offset: 0x173885, size: 0x8, addend: 0x0, symName: _OUTLINED_FUNCTION_0, symObjAddr: 0x5D9C, symBinAddr: 0x1DDEC, symSize: 0xC }
  - { offsetInCU: 0x281D2, offset: 0x17389D, size: 0x8, addend: 0x0, symName: _OUTLINED_FUNCTION_1, symObjAddr: 0x5DA8, symBinAddr: 0x1DDF8, symSize: 0xC }
  - { offsetInCU: 0x26, offset: 0x173910, size: 0x8, addend: 0x0, symName: __ZN6hermes2vm16ArrayStorageBaseINS0_11HermesValueEE17_trimSizeCallbackEPKNS0_6GCCellE, symObjAddr: 0x0, symBinAddr: 0x1DE04, symSize: 0x10 }
  - { offsetInCU: 0x44, offset: 0x17392E, size: 0x8, addend: 0x0, symName: __ZN6hermes2vm16ArrayStorageBaseINS0_11HermesValueEE2vtE, symObjAddr: 0x1790, symBinAddr: 0x201D90, symSize: 0x0 }
  - { offsetInCU: 0x8249, offset: 0x17BB33, size: 0x8, addend: 0x0, symName: __ZN6hermes2vm16ArrayStorageBaseINS0_13HermesValue32EE2vtE, symObjAddr: 0x17B8, symBinAddr: 0x201DB8, symSize: 0x0 }
  - { offsetInCU: 0x909D, offset: 0x17C987, size: 0x8, addend: 0x0, symName: __ZN6hermes2vm21ArrayStorageBuildMetaEPKNS0_6GCCellERNS0_8Metadata7BuilderE, symObjAddr: 0x15A8, symBinAddr: 0x1ECBC, symSize: 0x30 }
  - { offsetInCU: 0x91AA, offset: 0x17CA94, size: 0x8, addend: 0x0, symName: __ZN6hermes2vm26ArrayStorageSmallBuildMetaEPKNS0_6GCCellERNS0_8Metadata7BuilderE, symObjAddr: 0x15D8, symBinAddr: 0x1ECEC, symSize: 0x30 }
  - { offsetInCU: 0x3018A, offset: 0x1A3A74, size: 0x8, addend: 0x0, symName: __ZN6hermes2vm16ArrayStorageBaseINS0_11HermesValueEE17_trimSizeCallbackEPKNS0_6GCCellE, symObjAddr: 0x0, symBinAddr: 0x1DE04, symSize: 0x10 }
  - { offsetInCU: 0x301C4, offset: 0x1A3AAE, size: 0x8, addend: 0x0, symName: __ZN6hermes2vm16ArrayStorageBaseINS0_11HermesValueEE17_trimSizeCallbackEPKNS0_6GCCellE, symObjAddr: 0x0, symBinAddr: 0x1DE04, symSize: 0x10 }
  - { offsetInCU: 0x301E1, offset: 0x1A3ACB, size: 0x8, addend: 0x0, symName: __ZN6hermes2vm16ArrayStorageBaseINS0_11HermesValueEE17_trimSizeCallbackEPKNS0_6GCCellE, symObjAddr: 0x0, symBinAddr: 0x1DE04, symSize: 0x10 }
  - { offsetInCU: 0x30207, offset: 0x1A3AF1, size: 0x8, addend: 0x0, symName: __ZN6hermes2vm16ArrayStorageBaseINS0_11HermesValueEE17_trimSizeCallbackEPKNS0_6GCCellE, symObjAddr: 0x0, symBinAddr: 0x1DE04, symSize: 0x10 }
  - { offsetInCU: 0x305E6, offset: 0x1A3ED0, size: 0x8, addend: 0x0, symName: __ZN6hermes2vm16ArrayStorageBaseINS0_11HermesValueEE27throwExcessiveCapacityErrorERNS0_7RuntimeEj, symObjAddr: 0x8C, symBinAddr: 0x1DE14, symSize: 0x12C }
  - { offsetInCU: 0x30CC6, offset: 0x1A45B0, size: 0x8, addend: 0x0, symName: __ZN6hermes2vm16ArrayStorageBaseINS0_11HermesValueEE20resizeWithinCapacityEPS3_RNS0_7HadesGCEj, symObjAddr: 0x8E8, symBinAddr: 0x1E424, symSize: 0x9C }
  - { offsetInCU: 0x31220, offset: 0x1A4B0A, size: 0x8, addend: 0x0, symName: __ZN6hermes2vm16ArrayStorageBaseINS0_11HermesValueEE16pushBackSlowPathERNS0_13MutableHandleIS3_EERNS0_7RuntimeENS0_6HandleIS2_EE, symObjAddr: 0x330, symBinAddr: 0x1DF40, symSize: 0x98 }
  - { offsetInCU: 0x31806, offset: 0x1A50F0, size: 0x8, addend: 0x0, symName: __ZN6hermes2vm16ArrayStorageBaseINS0_11HermesValueEE5shiftERNS0_13MutableHandleIS3_EERNS0_7RuntimeEjjj, symObjAddr: 0x600, symBinAddr: 0x1E15C, symSize: 0x2C8 }
  - { offsetInCU: 0x320A4, offset: 0x1A598E, size: 0x8, addend: 0x0, symName: __ZN6hermes2vm16ArrayStorageBaseINS0_11HermesValueEE18reallocateToLargerERNS0_13MutableHandleIS3_EERNS0_7RuntimeEjjjj, symObjAddr: 0x46C, symBinAddr: 0x1DFD8, symSize: 0x184 }
  - { offsetInCU: 0x32EB5, offset: 0x1A679F, size: 0x8, addend: 0x0, symName: __ZN6hermes2vm16ArrayStorageBaseINS0_13HermesValue32EE17_trimSizeCallbackEPKNS0_6GCCellE, symObjAddr: 0x984, symBinAddr: 0x1E4C0, symSize: 0x10 }
  - { offsetInCU: 0x32EEF, offset: 0x1A67D9, size: 0x8, addend: 0x0, symName: __ZN6hermes2vm16ArrayStorageBaseINS0_13HermesValue32EE17_trimSizeCallbackEPKNS0_6GCCellE, symObjAddr: 0x984, symBinAddr: 0x1E4C0, symSize: 0x10 }
  - { offsetInCU: 0x32F0C, offset: 0x1A67F6, size: 0x8, addend: 0x0, symName: __ZN6hermes2vm16ArrayStorageBaseINS0_13HermesValue32EE17_trimSizeCallbackEPKNS0_6GCCellE, symObjAddr: 0x984, symBinAddr: 0x1E4C0, symSize: 0x10 }
  - { offsetInCU: 0x32F32, offset: 0x1A681C, size: 0x8, addend: 0x0, symName: __ZN6hermes2vm16ArrayStorageBaseINS0_13HermesValue32EE17_trimSizeCallbackEPKNS0_6GCCellE, symObjAddr: 0x984, symBinAddr: 0x1E4C0, symSize: 0x10 }
  - { offsetInCU: 0x33252, offset: 0x1A6B3C, size: 0x8, addend: 0x0, symName: __ZN6hermes2vm16ArrayStorageBaseINS0_13HermesValue32EE27throwExcessiveCapacityErrorERNS0_7RuntimeEj, symObjAddr: 0xA18, symBinAddr: 0x1E4D0, symSize: 0x12C }
  - { offsetInCU: 0x33737, offset: 0x1A7021, size: 0x8, addend: 0x0, symName: __ZN6hermes2vm16ArrayStorageBaseINS0_13HermesValue32EE20resizeWithinCapacityEPS3_RNS0_7HadesGCEj, symObjAddr: 0x150C, symBinAddr: 0x1EC20, symSize: 0x9C }
  - { offsetInCU: 0x34185, offset: 0x1A7A6F, size: 0x8, addend: 0x0, symName: __ZN6hermes2vm16ArrayStorageBaseINS0_13HermesValue32EE16pushBackSlowPathERNS0_13MutableHandleIS3_EERNS0_7RuntimeENS0_6HandleINS0_11HermesValueEEE, symObjAddr: 0xE14, symBinAddr: 0x1E5FC, symSize: 0x1B8 }
  - { offsetInCU: 0x3508C, offset: 0x1A8976, size: 0x8, addend: 0x0, symName: __ZN6hermes2vm16ArrayStorageBaseINS0_13HermesValue32EE5shiftERNS0_13MutableHandleIS3_EERNS0_7RuntimeEjjj, symObjAddr: 0x1204, symBinAddr: 0x1E938, symSize: 0x2E8 }
  - { offsetInCU: 0x3591C, offset: 0x1A9206, size: 0x8, addend: 0x0, symName: __ZN6hermes2vm16ArrayStorageBaseINS0_13HermesValue32EE18reallocateToLargerERNS0_13MutableHandleIS3_EERNS0_7RuntimeEjjjj, symObjAddr: 0x1070, symBinAddr: 0x1E7B4, symSize: 0x184 }
  - { offsetInCU: 0x26, offset: 0x1AA227, size: 0x8, addend: 0x0, symName: __ZN6hermes2vm24BigIntPrimitiveBuildMetaEPKNS0_6GCCellERNS0_8Metadata7BuilderE, symObjAddr: 0x0, symBinAddr: 0x1ED1C, symSize: 0x10 }
  - { offsetInCU: 0x44, offset: 0x1AA245, size: 0x8, addend: 0x0, symName: __ZN6hermes2vm15BigIntPrimitive2vtE, symObjAddr: 0x1258, symBinAddr: 0x1B97A8, symSize: 0x0 }
  - { offsetInCU: 0x77C5, offset: 0x1B19C6, size: 0x8, addend: 0x0, symName: __ZN6hermes2vm24BigIntPrimitiveBuildMetaEPKNS0_6GCCellERNS0_8Metadata7BuilderE, symObjAddr: 0x0, symBinAddr: 0x1ED1C, symSize: 0x10 }
  - { offsetInCU: 0x77FF, offset: 0x1B1A00, size: 0x8, addend: 0x0, symName: __ZN6hermes2vm24BigIntPrimitiveBuildMetaEPKNS0_6GCCellERNS0_8Metadata7BuilderE, symObjAddr: 0x0, symBinAddr: 0x1ED1C, symSize: 0x10 }
  - { offsetInCU: 0x2EB38, offset: 0x1D8D39, size: 0x8, addend: 0x0, symName: __ZN6hermes2vm15BigIntPrimitive19calcCellSizeInBytesEj, symObjAddr: 0x10, symBinAddr: 0x1ED2C, symSize: 0xC }
  - { offsetInCU: 0x2EB7F, offset: 0x1D8D80, size: 0x8, addend: 0x0, symName: __ZN6hermes2vm15BigIntPrimitiveC1Ej, symObjAddr: 0x24, symBinAddr: 0x1ED38, symSize: 0x8 }
  - { offsetInCU: 0x2EBAA, offset: 0x1D8DAB, size: 0x8, addend: 0x0, symName: __ZN6hermes2vm15BigIntPrimitiveC1Ej, symObjAddr: 0x24, symBinAddr: 0x1ED38, symSize: 0x8 }
  - { offsetInCU: 0x2ED24, offset: 0x1D8F25, size: 0x8, addend: 0x0, symName: __ZN6hermes2vm15BigIntPrimitive10fromDoubleERNS0_7RuntimeEd, symObjAddr: 0x2C, symBinAddr: 0x1ED40, symSize: 0xD8 }
  - { offsetInCU: 0x2F6CC, offset: 0x1D98CD, size: 0x8, addend: 0x0, symName: __ZN6hermes2vm15BigIntPrimitive8toStringERNS0_7RuntimeENS0_12PseudoHandleIS1_EEh, symObjAddr: 0x240, symBinAddr: 0x1EE18, symSize: 0x84 }
  - { offsetInCU: 0x2FB10, offset: 0x1D9D11, size: 0x8, addend: 0x0, symName: __ZN6hermes2vm15BigIntPrimitive6asIntNERNS0_7RuntimeEyNS0_6HandleIS1_EE, symObjAddr: 0x2C4, symBinAddr: 0x1EE9C, symSize: 0xC8 }
  - { offsetInCU: 0x3009C, offset: 0x1DA29D, size: 0x8, addend: 0x0, symName: __ZN6hermes2vm15BigIntPrimitive7asUintNERNS0_7RuntimeEyNS0_6HandleIS1_EE, symObjAddr: 0x38C, symBinAddr: 0x1EF64, symSize: 0xDC }
  - { offsetInCU: 0x3061F, offset: 0x1DA820, size: 0x8, addend: 0x0, symName: __ZN6hermes2vm15BigIntPrimitive10unaryMinusERNS0_7RuntimeENS0_6HandleIS1_EE, symObjAddr: 0x468, symBinAddr: 0x1F040, symSize: 0xBC }
  - { offsetInCU: 0x30B63, offset: 0x1DAD64, size: 0x8, addend: 0x0, symName: __ZN6hermes2vm15BigIntPrimitive8unaryNOTERNS0_7RuntimeENS0_6HandleIS1_EE, symObjAddr: 0x524, symBinAddr: 0x1F0FC, symSize: 0x98 }
  - { offsetInCU: 0x30FE0, offset: 0x1DB1E1, size: 0x8, addend: 0x0, symName: __ZN6hermes2vm15BigIntPrimitive3addERNS0_7RuntimeENS0_6HandleIS1_EES5_, symObjAddr: 0x65C, symBinAddr: 0x1F194, symSize: 0xBC }
  - { offsetInCU: 0x3167B, offset: 0x1DB87C, size: 0x8, addend: 0x0, symName: __ZN6hermes2vm15BigIntPrimitive8subtractERNS0_7RuntimeENS0_6HandleIS1_EES5_, symObjAddr: 0x718, symBinAddr: 0x1F250, symSize: 0xBC }
  - { offsetInCU: 0x31D16, offset: 0x1DBF17, size: 0x8, addend: 0x0, symName: __ZN6hermes2vm15BigIntPrimitive8multiplyERNS0_7RuntimeENS0_6HandleIS1_EES5_, symObjAddr: 0x7D4, symBinAddr: 0x1F30C, symSize: 0xBC }
  - { offsetInCU: 0x323B1, offset: 0x1DC5B2, size: 0x8, addend: 0x0, symName: __ZN6hermes2vm15BigIntPrimitive6divideERNS0_7RuntimeENS0_6HandleIS1_EES5_, symObjAddr: 0x890, symBinAddr: 0x1F3C8, symSize: 0xBC }
  - { offsetInCU: 0x32A4C, offset: 0x1DCC4D, size: 0x8, addend: 0x0, symName: __ZN6hermes2vm15BigIntPrimitive9remainderERNS0_7RuntimeENS0_6HandleIS1_EES5_, symObjAddr: 0x94C, symBinAddr: 0x1F484, symSize: 0xBC }
  - { offsetInCU: 0x333CD, offset: 0x1DD5CE, size: 0x8, addend: 0x0, symName: __ZN6hermes2vm15BigIntPrimitive12exponentiateERNS0_7RuntimeENS0_6HandleIS1_EES5_, symObjAddr: 0xA08, symBinAddr: 0x1F540, symSize: 0x100 }
  - { offsetInCU: 0x339D3, offset: 0x1DDBD4, size: 0x8, addend: 0x0, symName: __ZN4llvh15SmallVectorImplIyE6assignEmRKy, symObjAddr: 0x1160, symBinAddr: 0x1FBC4, symSize: 0x74 }
  - { offsetInCU: 0x33B90, offset: 0x1DDD91, size: 0x8, addend: 0x0, symName: __ZN6hermes2vm15BigIntPrimitive10bitwiseANDERNS0_7RuntimeENS0_6HandleIS1_EES5_, symObjAddr: 0xB7C, symBinAddr: 0x1F640, symSize: 0xBC }
  - { offsetInCU: 0x34231, offset: 0x1DE432, size: 0x8, addend: 0x0, symName: __ZN6hermes2vm15BigIntPrimitive9bitwiseORERNS0_7RuntimeENS0_6HandleIS1_EES5_, symObjAddr: 0xC38, symBinAddr: 0x1F6FC, symSize: 0xBC }
  - { offsetInCU: 0x348D6, offset: 0x1DEAD7, size: 0x8, addend: 0x0, symName: __ZN6hermes2vm15BigIntPrimitive10bitwiseXORERNS0_7RuntimeENS0_6HandleIS1_EES5_, symObjAddr: 0xCF4, symBinAddr: 0x1F7B8, symSize: 0xBC }
  - { offsetInCU: 0x34F7B, offset: 0x1DF17C, size: 0x8, addend: 0x0, symName: __ZN6hermes2vm15BigIntPrimitive9leftShiftERNS0_7RuntimeENS0_6HandleIS1_EES5_, symObjAddr: 0xDB0, symBinAddr: 0x1F874, symSize: 0xBC }
  - { offsetInCU: 0x35620, offset: 0x1DF821, size: 0x8, addend: 0x0, symName: __ZN6hermes2vm15BigIntPrimitive16signedRightShiftERNS0_7RuntimeENS0_6HandleIS1_EES5_, symObjAddr: 0xE6C, symBinAddr: 0x1F930, symSize: 0xBC }
  - { offsetInCU: 0x35CC5, offset: 0x1DFEC6, size: 0x8, addend: 0x0, symName: __ZN6hermes2vm15BigIntPrimitive18unsignedRightShiftERNS0_7RuntimeENS0_6HandleIS1_EES5_, symObjAddr: 0xF28, symBinAddr: 0x1F9EC, symSize: 0x4C }
  - { offsetInCU: 0x35D7F, offset: 0x1DFF80, size: 0x8, addend: 0x0, symName: __ZN6hermes2vm15BigIntPrimitive3incERNS0_7RuntimeENS0_6HandleIS1_EE, symObjAddr: 0xF74, symBinAddr: 0x1FA38, symSize: 0xA0 }
  - { offsetInCU: 0x362CA, offset: 0x1E04CB, size: 0x8, addend: 0x0, symName: __ZN6hermes2vm15BigIntPrimitive3decERNS0_7RuntimeENS0_6HandleIS1_EE, symObjAddr: 0x1014, symBinAddr: 0x1FAD8, symSize: 0xA0 }
  - { offsetInCU: 0x3680F, offset: 0x1E0A10, size: 0x8, addend: 0x0, symName: __ZNK6hermes2vm15BigIntPrimitive8toDoubleERNS0_7RuntimeE, symObjAddr: 0x10B4, symBinAddr: 0x1FB78, symSize: 0x4C }
  - { offsetInCU: 0x26, offset: 0x1E0E69, size: 0x8, addend: 0x0, symName: __ZN6hermes2vm20BoxedDoubleBuildMetaEPKNS0_6GCCellERNS0_8Metadata7BuilderE, symObjAddr: 0x0, symBinAddr: 0x1FC38, symSize: 0x10 }
  - { offsetInCU: 0x44, offset: 0x1E0E87, size: 0x8, addend: 0x0, symName: __ZN6hermes2vm11BoxedDouble2vtE, symObjAddr: 0x10, symBinAddr: 0x1B97D0, symSize: 0x0 }
  - { offsetInCU: 0x3987, offset: 0x1E47CA, size: 0x8, addend: 0x0, symName: __ZN6hermes2vm20BoxedDoubleBuildMetaEPKNS0_6GCCellERNS0_8Metadata7BuilderE, symObjAddr: 0x0, symBinAddr: 0x1FC38, symSize: 0x10 }
  - { offsetInCU: 0x39C1, offset: 0x1E4804, size: 0x8, addend: 0x0, symName: __ZN6hermes2vm20BoxedDoubleBuildMetaEPKNS0_6GCCellERNS0_8Metadata7BuilderE, symObjAddr: 0x0, symBinAddr: 0x1FC38, symSize: 0x10 }
  - { offsetInCU: 0x3E, offset: 0x1F34C3, size: 0x8, addend: 0x0, symName: __ZN6hermes2vm18buildMetadataTableEv, symObjAddr: 0x88, symBinAddr: 0x1FC48, symSize: 0x54 }
  - { offsetInCU: 0x64, offset: 0x1F34E9, size: 0x8, addend: 0x0, symName: __ZZN6hermes2vm18buildMetadataTableEvE4flag, symObjAddr: 0x42900, symBinAddr: 0x20CD20, symSize: 0x0 }
  - { offsetInCU: 0x3A72, offset: 0x1F6EF7, size: 0x8, addend: 0x0, symName: '__ZNSt3__117__call_once_proxyB7v160006INS_5tupleIJOZN6hermes2vm18buildMetadataTableEvE3$_0EEEEEvPv', symObjAddr: 0x11C, symBinAddr: 0x1FCDC, symSize: 0x4 }
  - { offsetInCU: 0x3AAF, offset: 0x1F6F34, size: 0x8, addend: 0x0, symName: '__ZNSt3__117__call_once_proxyB7v160006INS_5tupleIJOZN6hermes2vm18buildMetadataTableEvE3$_0EEEEEvPv', symObjAddr: 0x11C, symBinAddr: 0x1FCDC, symSize: 0x4 }
  - { offsetInCU: 0x3ACD, offset: 0x1F6F52, size: 0x8, addend: 0x0, symName: '__ZNSt3__117__call_once_proxyB7v160006INS_5tupleIJOZN6hermes2vm18buildMetadataTableEvE3$_0EEEEEvPv', symObjAddr: 0x11C, symBinAddr: 0x1FCDC, symSize: 0x4 }
  - { offsetInCU: 0x3AEB, offset: 0x1F6F70, size: 0x8, addend: 0x0, symName: '__ZNSt3__117__call_once_proxyB7v160006INS_5tupleIJOZN6hermes2vm18buildMetadataTableEvE3$_0EEEEEvPv', symObjAddr: 0x11C, symBinAddr: 0x1FCDC, symSize: 0x4 }
  - { offsetInCU: 0x3B03, offset: 0x1F6F88, size: 0x8, addend: 0x0, symName: '__ZNSt3__117__call_once_proxyB7v160006INS_5tupleIJOZN6hermes2vm18buildMetadataTableEvE3$_0EEEEEvPv', symObjAddr: 0x11C, symBinAddr: 0x1FCDC, symSize: 0x4 }
  - { offsetInCU: 0x5FF5, offset: 0x1F947A, size: 0x8, addend: 0x0, symName: __ZNSt3__16__treeINS_12__value_typeIhPKcEENS_19__map_value_compareIhS4_NS_4lessIhEELb1EEENS_9allocatorIS4_EEE7destroyEPNS_11__tree_nodeIS4_PvEE, symObjAddr: 0xDC, symBinAddr: 0x1FC9C, symSize: 0x40 }
  - { offsetInCU: 0x63F4, offset: 0x1F9879, size: 0x8, addend: 0x0, symName: '__ZZN6hermes2vm18buildMetadataTableEvENK3$_0clEv', symObjAddr: 0x120, symBinAddr: 0x1FCE0, symSize: 0x1E34 }
  - { offsetInCU: 0x26, offset: 0x2097D8, size: 0x8, addend: 0x0, symName: __ZN6hermes2vm17NativeConstructor15creatorFunctionINS0_8JSObjectEEENS0_10CallResultINS0_12PseudoHandleIS3_EELNS0_6detail20CallResultSpecializeE6EEERNS0_7RuntimeENS0_6HandleIS3_EEPv, symObjAddr: 0x0, symBinAddr: 0x21B14, symSize: 0x4 }
  - { offsetInCU: 0x44, offset: 0x2097F6, size: 0x8, addend: 0x0, symName: __ZN6hermes2vm11Environment2vtE, symObjAddr: 0x3E08, symBinAddr: 0x1B9840, symSize: 0x0 }
  - { offsetInCU: 0xC944, offset: 0x2160F6, size: 0x8, addend: 0x0, symName: __ZN6hermes2vm13BoundFunction2vtE, symObjAddr: 0x3FA8, symBinAddr: 0x201DE0, symSize: 0x0 }
  - { offsetInCU: 0xCC54, offset: 0x216406, size: 0x8, addend: 0x0, symName: __ZN6hermes2vm14NativeFunction2vtE, symObjAddr: 0x4018, symBinAddr: 0x201E50, symSize: 0x0 }
  - { offsetInCU: 0xCC68, offset: 0x21641A, size: 0x8, addend: 0x0, symName: __ZN6hermes2vm17NativeConstructor2vtE, symObjAddr: 0x4088, symBinAddr: 0x201EC0, symSize: 0x0 }
  - { offsetInCU: 0xD76F, offset: 0x216F21, size: 0x8, addend: 0x0, symName: __ZN6hermes2vm10JSFunction2vtE, symObjAddr: 0x40F8, symBinAddr: 0x201F30, symSize: 0x0 }
  - { offsetInCU: 0xDF99, offset: 0x21774B, size: 0x8, addend: 0x0, symName: __ZN6hermes2vm15JSAsyncFunction2vtE, symObjAddr: 0x4168, symBinAddr: 0x201FA0, symSize: 0x0 }
  - { offsetInCU: 0xE4D5, offset: 0x217C87, size: 0x8, addend: 0x0, symName: __ZN6hermes2vm19JSGeneratorFunction2vtE, symObjAddr: 0x41D8, symBinAddr: 0x202010, symSize: 0x0 }
  - { offsetInCU: 0xEA11, offset: 0x2181C3, size: 0x8, addend: 0x0, symName: __ZN6hermes2vm22GeneratorInnerFunction2vtE, symObjAddr: 0x4248, symBinAddr: 0x202080, symSize: 0x0 }
  - { offsetInCU: 0x177F3, offset: 0x220FA5, size: 0x8, addend: 0x0, symName: __ZN6hermes2vm20EnvironmentBuildMetaEPKNS0_6GCCellERNS0_8Metadata7BuilderE, symObjAddr: 0x330, symBinAddr: 0x21E44, symSize: 0x58 }
  - { offsetInCU: 0x178F8, offset: 0x2210AA, size: 0x8, addend: 0x0, symName: __ZN6hermes2vm17CallableBuildMetaEPKNS0_6GCCellERNS0_8Metadata7BuilderE, symObjAddr: 0x388, symBinAddr: 0x21E9C, symSize: 0x5C }
  - { offsetInCU: 0x181C7, offset: 0x221979, size: 0x8, addend: 0x0, symName: __ZN6hermes2vm22BoundFunctionBuildMetaEPKNS0_6GCCellERNS0_8Metadata7BuilderE, symObjAddr: 0x1890, symBinAddr: 0x233A4, symSize: 0x74 }
  - { offsetInCU: 0x183AA, offset: 0x221B5C, size: 0x8, addend: 0x0, symName: __ZN6hermes2vm23NativeFunctionBuildMetaEPKNS0_6GCCellERNS0_8Metadata7BuilderE, symObjAddr: 0x1E8C, symBinAddr: 0x2391C, symSize: 0x48 }
  - { offsetInCU: 0x184AB, offset: 0x221C5D, size: 0x8, addend: 0x0, symName: __ZN6hermes2vm26NativeConstructorBuildMetaEPKNS0_6GCCellERNS0_8Metadata7BuilderE, symObjAddr: 0x2204, symBinAddr: 0x23BBC, symSize: 0x48 }
  - { offsetInCU: 0x18585, offset: 0x221D37, size: 0x8, addend: 0x0, symName: __ZN6hermes2vm19JSFunctionBuildMetaEPKNS0_6GCCellERNS0_8Metadata7BuilderE, symObjAddr: 0x228C, symBinAddr: 0x23C44, symSize: 0x64 }
  - { offsetInCU: 0x18661, offset: 0x221E13, size: 0x8, addend: 0x0, symName: __ZN6hermes2vm24JSAsyncFunctionBuildMetaEPKNS0_6GCCellERNS0_8Metadata7BuilderE, symObjAddr: 0x2354, symBinAddr: 0x23D0C, symSize: 0x48 }
  - { offsetInCU: 0x18725, offset: 0x221ED7, size: 0x8, addend: 0x0, symName: __ZN6hermes2vm28JSGeneratorFunctionBuildMetaEPKNS0_6GCCellERNS0_8Metadata7BuilderE, symObjAddr: 0x2400, symBinAddr: 0x23DB8, symSize: 0x48 }
  - { offsetInCU: 0x187E9, offset: 0x221F9B, size: 0x8, addend: 0x0, symName: __ZN6hermes2vm31GeneratorInnerFunctionBuildMetaEPKNS0_6GCCellERNS0_8Metadata7BuilderE, symObjAddr: 0x2500, symBinAddr: 0x23EB8, symSize: 0x74 }
  - { offsetInCU: 0x47056, offset: 0x250808, size: 0x8, addend: 0x0, symName: __ZN6hermes2vm17NativeConstructor15creatorFunctionINS0_8JSObjectEEENS0_10CallResultINS0_12PseudoHandleIS3_EELNS0_6detail20CallResultSpecializeE6EEERNS0_7RuntimeENS0_6HandleIS3_EEPv, symObjAddr: 0x0, symBinAddr: 0x21B14, symSize: 0x4 }
  - { offsetInCU: 0x4709D, offset: 0x25084F, size: 0x8, addend: 0x0, symName: __ZN6hermes2vm17NativeConstructor15creatorFunctionINS0_10JSFunctionEEENS0_10CallResultINS0_12PseudoHandleINS0_8JSObjectEEELNS0_6detail20CallResultSpecializeE6EEERNS0_7RuntimeENS0_6HandleIS6_EEPv, symObjAddr: 0x4, symBinAddr: 0x21B18, symSize: 0x4 }
  - { offsetInCU: 0x470DE, offset: 0x250890, size: 0x8, addend: 0x0, symName: __ZN6hermes2vm17NativeConstructor15creatorFunctionINS0_10JSFunctionEEENS0_10CallResultINS0_12PseudoHandleINS0_8JSObjectEEELNS0_6detail20CallResultSpecializeE6EEERNS0_7RuntimeENS0_6HandleIS6_EEPv, symObjAddr: 0x4, symBinAddr: 0x21B18, symSize: 0x4 }
  - { offsetInCU: 0x47103, offset: 0x2508B5, size: 0x8, addend: 0x0, symName: __ZN6hermes2vm10JSFunction6createERNS0_7RuntimeENS0_6HandleINS0_8JSObjectEEE, symObjAddr: 0x8, symBinAddr: 0x21B1C, symSize: 0x68 }
  - { offsetInCU: 0x47620, offset: 0x250DD2, size: 0x8, addend: 0x0, symName: __ZN6hermes2vm10JSFunction6createERNS0_7RuntimeENS0_6HandleINS0_6DomainEEENS4_INS0_8JSObjectEEENS4_INS0_11EnvironmentEEEPNS0_9CodeBlockE, symObjAddr: 0x22F0, symBinAddr: 0x23CA8, symSize: 0x64 }
  - { offsetInCU: 0x4790B, offset: 0x2510BD, size: 0x8, addend: 0x0, symName: __ZN6hermes2vm17NativeConstructor15creatorFunctionINS0_7JSArrayEEENS0_10CallResultINS0_12PseudoHandleINS0_8JSObjectEEELNS0_6detail20CallResultSpecializeE6EEERNS0_7RuntimeENS0_6HandleIS6_EEPv, symObjAddr: 0x70, symBinAddr: 0x21B84, symSize: 0x2C }
  - { offsetInCU: 0x47A85, offset: 0x251237, size: 0x8, addend: 0x0, symName: __ZN6hermes2vm7JSArray6createERNS0_7RuntimeENS0_6HandleINS0_8JSObjectEEEjj, symObjAddr: 0x2C70, symBinAddr: 0x24628, symSize: 0x74 }
  - { offsetInCU: 0x47BC0, offset: 0x251372, size: 0x8, addend: 0x0, symName: __ZN6hermes2vm17NativeConstructor15creatorFunctionINS0_13JSArrayBufferEEENS0_10CallResultINS0_12PseudoHandleINS0_8JSObjectEEELNS0_6detail20CallResultSpecializeE6EEERNS0_7RuntimeENS0_6HandleIS6_EEPv, symObjAddr: 0x9C, symBinAddr: 0x21BB0, symSize: 0x4 }
  - { offsetInCU: 0x47C67, offset: 0x251419, size: 0x8, addend: 0x0, symName: __ZN6hermes2vm17NativeConstructor15creatorFunctionINS0_9JSBooleanEEENS0_10CallResultINS0_12PseudoHandleINS0_8JSObjectEEELNS0_6detail20CallResultSpecializeE6EEERNS0_7RuntimeENS0_6HandleIS6_EEPv, symObjAddr: 0xA0, symBinAddr: 0x21BB4, symSize: 0xC }
  - { offsetInCU: 0x47D33, offset: 0x2514E5, size: 0x8, addend: 0x0, symName: __ZN6hermes2vm17NativeConstructor15creatorFunctionINS0_10JSDataViewEEENS0_10CallResultINS0_12PseudoHandleINS0_8JSObjectEEELNS0_6detail20CallResultSpecializeE6EEERNS0_7RuntimeENS0_6HandleIS6_EEPv, symObjAddr: 0xAC, symBinAddr: 0x21BC0, symSize: 0x4 }
  - { offsetInCU: 0x47DCC, offset: 0x25157E, size: 0x8, addend: 0x0, symName: __ZN6hermes2vm17NativeConstructor15creatorFunctionINS0_6JSDateEEENS0_10CallResultINS0_12PseudoHandleINS0_8JSObjectEEELNS0_6detail20CallResultSpecializeE6EEERNS0_7RuntimeENS0_6HandleIS6_EEPv, symObjAddr: 0xB0, symBinAddr: 0x21BC4, symSize: 0xC }
  - { offsetInCU: 0x480AC, offset: 0x25185E, size: 0x8, addend: 0x0, symName: __ZN6hermes2vm17NativeConstructor15creatorFunctionINS0_7JSErrorEEENS0_10CallResultINS0_12PseudoHandleINS0_8JSObjectEEELNS0_6detail20CallResultSpecializeE6EEERNS0_7RuntimeENS0_6HandleIS6_EEPv, symObjAddr: 0xBC, symBinAddr: 0x21BD0, symSize: 0x4 }
  - { offsetInCU: 0x48201, offset: 0x2519B3, size: 0x8, addend: 0x0, symName: __ZN6hermes2vm17NativeConstructor15creatorFunctionINS0_9JSMapImplILNS0_8CellKindE48EEEEENS0_10CallResultINS0_12PseudoHandleINS0_8JSObjectEEELNS0_6detail20CallResultSpecializeE6EEERNS0_7RuntimeENS0_6HandleIS8_EEPv, symObjAddr: 0xC0, symBinAddr: 0x21BD4, symSize: 0x4 }
  - { offsetInCU: 0x482C6, offset: 0x251A78, size: 0x8, addend: 0x0, symName: __ZN6hermes2vm17NativeConstructor15creatorFunctionINS0_8JSBigIntEEENS0_10CallResultINS0_12PseudoHandleINS0_8JSObjectEEELNS0_6detail20CallResultSpecializeE6EEERNS0_7RuntimeENS0_6HandleIS6_EEPv, symObjAddr: 0xC4, symBinAddr: 0x21BD8, symSize: 0x24 }
  - { offsetInCU: 0x4840D, offset: 0x251BBF, size: 0x8, addend: 0x0, symName: __ZN6hermes2vm8JSBigInt6createERNS0_7RuntimeENS0_6HandleINS0_8JSObjectEEE, symObjAddr: 0xE8, symBinAddr: 0x21BFC, symSize: 0x84 }
  - { offsetInCU: 0x488C9, offset: 0x25207B, size: 0x8, addend: 0x0, symName: __ZN6hermes2vm17NativeConstructor15creatorFunctionINS0_8JSNumberEEENS0_10CallResultINS0_12PseudoHandleINS0_8JSObjectEEELNS0_6detail20CallResultSpecializeE6EEERNS0_7RuntimeENS0_6HandleIS6_EEPv, symObjAddr: 0x16C, symBinAddr: 0x21C80, symSize: 0x8 }
  - { offsetInCU: 0x4890A, offset: 0x2520BC, size: 0x8, addend: 0x0, symName: __ZN6hermes2vm17NativeConstructor15creatorFunctionINS0_8JSNumberEEENS0_10CallResultINS0_12PseudoHandleINS0_8JSObjectEEELNS0_6detail20CallResultSpecializeE6EEERNS0_7RuntimeENS0_6HandleIS6_EEPv, symObjAddr: 0x16C, symBinAddr: 0x21C80, symSize: 0x8 }
  - { offsetInCU: 0x4898B, offset: 0x25213D, size: 0x8, addend: 0x0, symName: __ZN6hermes2vm17NativeConstructor15creatorFunctionINS0_7JSProxyEEENS0_10CallResultINS0_12PseudoHandleINS0_8JSObjectEEELNS0_6detail20CallResultSpecializeE6EEERNS0_7RuntimeENS0_6HandleIS6_EEPv, symObjAddr: 0x174, symBinAddr: 0x21C88, symSize: 0x4 }
  - { offsetInCU: 0x489CC, offset: 0x25217E, size: 0x8, addend: 0x0, symName: __ZN6hermes2vm17NativeConstructor15creatorFunctionINS0_7JSProxyEEENS0_10CallResultINS0_12PseudoHandleINS0_8JSObjectEEELNS0_6detail20CallResultSpecializeE6EEERNS0_7RuntimeENS0_6HandleIS6_EEPv, symObjAddr: 0x174, symBinAddr: 0x21C88, symSize: 0x4 }
  - { offsetInCU: 0x48BBD, offset: 0x25236F, size: 0x8, addend: 0x0, symName: __ZN6hermes2vm17NativeConstructor15creatorFunctionINS0_8JSRegExpEEENS0_10CallResultINS0_12PseudoHandleINS0_8JSObjectEEELNS0_6detail20CallResultSpecializeE6EEERNS0_7RuntimeENS0_6HandleIS6_EEPv, symObjAddr: 0x178, symBinAddr: 0x21C8C, symSize: 0x4 }
  - { offsetInCU: 0x48C34, offset: 0x2523E6, size: 0x8, addend: 0x0, symName: __ZN6hermes2vm17NativeConstructor15creatorFunctionINS0_9JSMapImplILNS0_8CellKindE47EEEEENS0_10CallResultINS0_12PseudoHandleINS0_8JSObjectEEELNS0_6detail20CallResultSpecializeE6EEERNS0_7RuntimeENS0_6HandleIS8_EEPv, symObjAddr: 0x17C, symBinAddr: 0x21C90, symSize: 0x4 }
  - { offsetInCU: 0x48CDB, offset: 0x25248D, size: 0x8, addend: 0x0, symName: __ZN6hermes2vm17NativeConstructor15creatorFunctionINS0_8JSStringEEENS0_10CallResultINS0_12PseudoHandleINS0_8JSObjectEEELNS0_6detail20CallResultSpecializeE6EEERNS0_7RuntimeENS0_6HandleIS6_EEPv, symObjAddr: 0x180, symBinAddr: 0x21C94, symSize: 0x24 }
  - { offsetInCU: 0x48E22, offset: 0x2525D4, size: 0x8, addend: 0x0, symName: __ZN6hermes2vm8JSString6createERNS0_7RuntimeENS0_6HandleINS0_8JSObjectEEE, symObjAddr: 0x1A4, symBinAddr: 0x21CB8, symSize: 0x70 }
  - { offsetInCU: 0x4924F, offset: 0x252A01, size: 0x8, addend: 0x0, symName: __ZN6hermes2vm17NativeConstructor15creatorFunctionINS0_8JSSymbolEEENS0_10CallResultINS0_12PseudoHandleINS0_8JSObjectEEELNS0_6detail20CallResultSpecializeE6EEERNS0_7RuntimeENS0_6HandleIS6_EEPv, symObjAddr: 0x214, symBinAddr: 0x21D28, symSize: 0xC }
  - { offsetInCU: 0x4931B, offset: 0x252ACD, size: 0x8, addend: 0x0, symName: __ZN6hermes2vm17NativeConstructor15creatorFunctionINS0_13JSWeakMapImplILNS0_8CellKindE51EEEEENS0_10CallResultINS0_12PseudoHandleINS0_8JSObjectEEELNS0_6detail20CallResultSpecializeE6EEERNS0_7RuntimeENS0_6HandleIS8_EEPv, symObjAddr: 0x220, symBinAddr: 0x21D34, symSize: 0x4 }
  - { offsetInCU: 0x493BC, offset: 0x252B6E, size: 0x8, addend: 0x0, symName: __ZN6hermes2vm17NativeConstructor15creatorFunctionINS0_13JSWeakMapImplILNS0_8CellKindE52EEEEENS0_10CallResultINS0_12PseudoHandleINS0_8JSObjectEEELNS0_6detail20CallResultSpecializeE6EEERNS0_7RuntimeENS0_6HandleIS8_EEPv, symObjAddr: 0x224, symBinAddr: 0x21D38, symSize: 0x4 }
  - { offsetInCU: 0x4945D, offset: 0x252C0F, size: 0x8, addend: 0x0, symName: __ZN6hermes2vm17NativeConstructor15creatorFunctionINS0_9JSWeakRefEEENS0_10CallResultINS0_12PseudoHandleINS0_8JSObjectEEELNS0_6detail20CallResultSpecializeE6EEERNS0_7RuntimeENS0_6HandleIS6_EEPv, symObjAddr: 0x228, symBinAddr: 0x21D3C, symSize: 0x4 }
  - { offsetInCU: 0x494A4, offset: 0x252C56, size: 0x8, addend: 0x0, symName: __ZN6hermes2vm17NativeConstructor15creatorFunctionINS0_19JSGeneratorFunctionEEENS0_10CallResultINS0_12PseudoHandleINS0_8JSObjectEEELNS0_6detail20CallResultSpecializeE6EEERNS0_7RuntimeENS0_6HandleIS6_EEPv, symObjAddr: 0x22C, symBinAddr: 0x21D40, symSize: 0x4 }
  - { offsetInCU: 0x494E5, offset: 0x252C97, size: 0x8, addend: 0x0, symName: __ZN6hermes2vm17NativeConstructor15creatorFunctionINS0_19JSGeneratorFunctionEEENS0_10CallResultINS0_12PseudoHandleINS0_8JSObjectEEELNS0_6detail20CallResultSpecializeE6EEERNS0_7RuntimeENS0_6HandleIS6_EEPv, symObjAddr: 0x22C, symBinAddr: 0x21D40, symSize: 0x4 }
  - { offsetInCU: 0x4950A, offset: 0x252CBC, size: 0x8, addend: 0x0, symName: __ZN6hermes2vm19JSGeneratorFunction6createERNS0_7RuntimeENS0_6HandleINS0_8JSObjectEEE, symObjAddr: 0x230, symBinAddr: 0x21D44, symSize: 0x68 }
  - { offsetInCU: 0x4974A, offset: 0x252EFC, size: 0x8, addend: 0x0, symName: __ZN6hermes2vm19JSGeneratorFunction6createERNS0_7RuntimeENS0_6HandleINS0_6DomainEEENS4_INS0_8JSObjectEEENS4_INS0_11EnvironmentEEEPNS0_9CodeBlockE, symObjAddr: 0x2448, symBinAddr: 0x23E00, symSize: 0x64 }
  - { offsetInCU: 0x49938, offset: 0x2530EA, size: 0x8, addend: 0x0, symName: __ZN6hermes2vm17NativeConstructor15creatorFunctionINS0_15JSAsyncFunctionEEENS0_10CallResultINS0_12PseudoHandleINS0_8JSObjectEEELNS0_6detail20CallResultSpecializeE6EEERNS0_7RuntimeENS0_6HandleIS6_EEPv, symObjAddr: 0x298, symBinAddr: 0x21DAC, symSize: 0x4 }
  - { offsetInCU: 0x49979, offset: 0x25312B, size: 0x8, addend: 0x0, symName: __ZN6hermes2vm17NativeConstructor15creatorFunctionINS0_15JSAsyncFunctionEEENS0_10CallResultINS0_12PseudoHandleINS0_8JSObjectEEELNS0_6detail20CallResultSpecializeE6EEERNS0_7RuntimeENS0_6HandleIS6_EEPv, symObjAddr: 0x298, symBinAddr: 0x21DAC, symSize: 0x4 }
  - { offsetInCU: 0x4999E, offset: 0x253150, size: 0x8, addend: 0x0, symName: __ZN6hermes2vm15JSAsyncFunction6createERNS0_7RuntimeENS0_6HandleINS0_8JSObjectEEE, symObjAddr: 0x29C, symBinAddr: 0x21DB0, symSize: 0x68 }
  - { offsetInCU: 0x49BDE, offset: 0x253390, size: 0x8, addend: 0x0, symName: __ZN6hermes2vm15JSAsyncFunction6createERNS0_7RuntimeENS0_6HandleINS0_6DomainEEENS4_INS0_8JSObjectEEENS4_INS0_11EnvironmentEEEPNS0_9CodeBlockE, symObjAddr: 0x239C, symBinAddr: 0x23D54, symSize: 0x64 }
  - { offsetInCU: 0x49E26, offset: 0x2535D8, size: 0x8, addend: 0x0, symName: __ZN6hermes2vm17NativeConstructor15creatorFunctionINS0_12JSTypedArrayIaLNS0_8CellKindE35EEEEENS0_10CallResultINS0_12PseudoHandleINS0_8JSObjectEEELNS0_6detail20CallResultSpecializeE6EEERNS0_7RuntimeENS0_6HandleIS8_EEPv, symObjAddr: 0x304, symBinAddr: 0x21E18, symSize: 0x4 }
  - { offsetInCU: 0x49EA9, offset: 0x25365B, size: 0x8, addend: 0x0, symName: __ZN6hermes2vm17NativeConstructor15creatorFunctionINS0_12JSTypedArrayIsLNS0_8CellKindE36EEEEENS0_10CallResultINS0_12PseudoHandleINS0_8JSObjectEEELNS0_6detail20CallResultSpecializeE6EEERNS0_7RuntimeENS0_6HandleIS8_EEPv, symObjAddr: 0x308, symBinAddr: 0x21E1C, symSize: 0x4 }
  - { offsetInCU: 0x49F20, offset: 0x2536D2, size: 0x8, addend: 0x0, symName: __ZN6hermes2vm17NativeConstructor15creatorFunctionINS0_12JSTypedArrayIiLNS0_8CellKindE37EEEEENS0_10CallResultINS0_12PseudoHandleINS0_8JSObjectEEELNS0_6detail20CallResultSpecializeE6EEERNS0_7RuntimeENS0_6HandleIS8_EEPv, symObjAddr: 0x30C, symBinAddr: 0x21E20, symSize: 0x4 }
  - { offsetInCU: 0x49F97, offset: 0x253749, size: 0x8, addend: 0x0, symName: __ZN6hermes2vm17NativeConstructor15creatorFunctionINS0_12JSTypedArrayIhLNS0_8CellKindE38EEEEENS0_10CallResultINS0_12PseudoHandleINS0_8JSObjectEEELNS0_6detail20CallResultSpecializeE6EEERNS0_7RuntimeENS0_6HandleIS8_EEPv, symObjAddr: 0x310, symBinAddr: 0x21E24, symSize: 0x4 }
  - { offsetInCU: 0x4A00E, offset: 0x2537C0, size: 0x8, addend: 0x0, symName: __ZN6hermes2vm17NativeConstructor15creatorFunctionINS0_12JSTypedArrayIhLNS0_8CellKindE39EEEEENS0_10CallResultINS0_12PseudoHandleINS0_8JSObjectEEELNS0_6detail20CallResultSpecializeE6EEERNS0_7RuntimeENS0_6HandleIS8_EEPv, symObjAddr: 0x314, symBinAddr: 0x21E28, symSize: 0x4 }
  - { offsetInCU: 0x4A091, offset: 0x253843, size: 0x8, addend: 0x0, symName: __ZN6hermes2vm17NativeConstructor15creatorFunctionINS0_12JSTypedArrayItLNS0_8CellKindE40EEEEENS0_10CallResultINS0_12PseudoHandleINS0_8JSObjectEEELNS0_6detail20CallResultSpecializeE6EEERNS0_7RuntimeENS0_6HandleIS8_EEPv, symObjAddr: 0x318, symBinAddr: 0x21E2C, symSize: 0x4 }
  - { offsetInCU: 0x4A108, offset: 0x2538BA, size: 0x8, addend: 0x0, symName: __ZN6hermes2vm17NativeConstructor15creatorFunctionINS0_12JSTypedArrayIjLNS0_8CellKindE41EEEEENS0_10CallResultINS0_12PseudoHandleINS0_8JSObjectEEELNS0_6detail20CallResultSpecializeE6EEERNS0_7RuntimeENS0_6HandleIS8_EEPv, symObjAddr: 0x31C, symBinAddr: 0x21E30, symSize: 0x4 }
  - { offsetInCU: 0x4A185, offset: 0x253937, size: 0x8, addend: 0x0, symName: __ZN6hermes2vm17NativeConstructor15creatorFunctionINS0_12JSTypedArrayIfLNS0_8CellKindE42EEEEENS0_10CallResultINS0_12PseudoHandleINS0_8JSObjectEEELNS0_6detail20CallResultSpecializeE6EEERNS0_7RuntimeENS0_6HandleIS8_EEPv, symObjAddr: 0x320, symBinAddr: 0x21E34, symSize: 0x4 }
  - { offsetInCU: 0x4A202, offset: 0x2539B4, size: 0x8, addend: 0x0, symName: __ZN6hermes2vm17NativeConstructor15creatorFunctionINS0_12JSTypedArrayIdLNS0_8CellKindE43EEEEENS0_10CallResultINS0_12PseudoHandleINS0_8JSObjectEEELNS0_6detail20CallResultSpecializeE6EEERNS0_7RuntimeENS0_6HandleIS8_EEPv, symObjAddr: 0x324, symBinAddr: 0x21E38, symSize: 0x4 }
  - { offsetInCU: 0x4A285, offset: 0x253A37, size: 0x8, addend: 0x0, symName: __ZN6hermes2vm17NativeConstructor15creatorFunctionINS0_12JSTypedArrayIxLNS0_8CellKindE44EEEEENS0_10CallResultINS0_12PseudoHandleINS0_8JSObjectEEELNS0_6detail20CallResultSpecializeE6EEERNS0_7RuntimeENS0_6HandleIS8_EEPv, symObjAddr: 0x328, symBinAddr: 0x21E3C, symSize: 0x4 }
  - { offsetInCU: 0x4A2FC, offset: 0x253AAE, size: 0x8, addend: 0x0, symName: __ZN6hermes2vm17NativeConstructor15creatorFunctionINS0_12JSTypedArrayIyLNS0_8CellKindE45EEEEENS0_10CallResultINS0_12PseudoHandleINS0_8JSObjectEEELNS0_6detail20CallResultSpecializeE6EEERNS0_7RuntimeENS0_6HandleIS8_EEPv, symObjAddr: 0x32C, symBinAddr: 0x21E40, symSize: 0x4 }
  - { offsetInCU: 0x4A452, offset: 0x253C04, size: 0x8, addend: 0x0, symName: __ZN6hermes2vm8Callable14_newObjectImplENS0_6HandleIS1_EERNS0_7RuntimeENS2_INS0_8JSObjectEEE, symObjAddr: 0x3E4, symBinAddr: 0x21EF8, symSize: 0xC }
  - { offsetInCU: 0x4AB1F, offset: 0x2542D1, size: 0x8, addend: 0x0, symName: __ZN6hermes2vm8Callable20defineLazyPropertiesENS0_6HandleIS1_EERNS0_7RuntimeE, symObjAddr: 0x3F0, symBinAddr: 0x21F04, symSize: 0x1F4 }
  - { offsetInCU: 0x4B7A5, offset: 0x254F57, size: 0x8, addend: 0x0, symName: __ZN6hermes2vm13BoundFunction27initializeLengthAndName_RJSENS0_6HandleINS0_8CallableEEERNS0_7RuntimeES4_j, symObjAddr: 0x7FC, symBinAddr: 0x22310, symSize: 0x2AC }
  - { offsetInCU: 0x4C337, offset: 0x255AE9, size: 0x8, addend: 0x0, symName: __ZN6hermes2vm8Callable28defineNameLengthAndPrototypeENS0_6HandleIS1_EERNS0_7RuntimeENS0_8SymbolIDEjNS2_INS0_8JSObjectEEENS1_17WritablePrototypeEb, symObjAddr: 0x5E4, symBinAddr: 0x220F8, symSize: 0x218 }
  - { offsetInCU: 0x4D457, offset: 0x256C09, size: 0x8, addend: 0x0, symName: __ZN6hermes2vm8Callable28extractOwnLengthProperty_RJSENS0_6HandleIS1_EERNS0_7RuntimeE, symObjAddr: 0x15E4, symBinAddr: 0x230F8, symSize: 0x188 }
  - { offsetInCU: 0x4DBEE, offset: 0x2573A0, size: 0x8, addend: 0x0, symName: __ZN4llvh15SmallVectorImplIDsE6appendIPKhvEEvT_S5_, symObjAddr: 0x35F4, symBinAddr: 0x24968, symSize: 0x80 }
  - { offsetInCU: 0x4DEBC, offset: 0x25766E, size: 0x8, addend: 0x0, symName: __ZN4llvh15SmallVectorImplIDsE6appendIN6hermes2vm10StringView14const_iteratorEvEEvT_S7_, symObjAddr: 0x3674, symBinAddr: 0x249E8, symSize: 0xB8 }
  - { offsetInCU: 0x4E121, offset: 0x2578D3, size: 0x8, addend: 0x0, symName: __ZN6hermes2vm15IdentifierTable15getSymbolHandleERNS0_7RuntimeEN4llvh8ArrayRefIDsEE, symObjAddr: 0x1BDC, symBinAddr: 0x2366C, symSize: 0x2C }
  - { offsetInCU: 0x4E510, offset: 0x257CC2, size: 0x8, addend: 0x0, symName: __ZN6hermes2vm8Callable12executeCall0ENS0_6HandleIS1_EERNS0_7RuntimeENS2_INS0_11HermesValueEEEb, symObjAddr: 0xAA8, symBinAddr: 0x225BC, symSize: 0xD8 }
  - { offsetInCU: 0x4EA08, offset: 0x2581BA, size: 0x8, addend: 0x0, symName: __ZN6hermes2vm8Callable12executeCall1ENS0_6HandleIS1_EERNS0_7RuntimeENS2_INS0_11HermesValueEEES6_b, symObjAddr: 0xB80, symBinAddr: 0x22694, symSize: 0xE4 }
  - { offsetInCU: 0x4EE8B, offset: 0x25863D, size: 0x8, addend: 0x0, symName: __ZN6hermes2vm8Callable12executeCall2ENS0_6HandleIS1_EERNS0_7RuntimeENS2_INS0_11HermesValueEEES6_S6_b, symObjAddr: 0xC64, symBinAddr: 0x22778, symSize: 0xF0 }
  - { offsetInCU: 0x4F36C, offset: 0x258B1E, size: 0x8, addend: 0x0, symName: __ZN6hermes2vm8Callable12executeCall3ENS0_6HandleIS1_EERNS0_7RuntimeENS2_INS0_11HermesValueEEES6_S6_S6_b, symObjAddr: 0xD54, symBinAddr: 0x22868, symSize: 0xF8 }
  - { offsetInCU: 0x4F869, offset: 0x25901B, size: 0x8, addend: 0x0, symName: __ZN6hermes2vm8Callable12executeCall4ENS0_6HandleIS1_EERNS0_7RuntimeENS2_INS0_11HermesValueEEES6_S6_S6_S6_b, symObjAddr: 0xE4C, symBinAddr: 0x22960, symSize: 0x104 }
  - { offsetInCU: 0x4FF08, offset: 0x2596BA, size: 0x8, addend: 0x0, symName: __ZN6hermes2vm8Callable11executeCallENS0_6HandleIS1_EERNS0_7RuntimeENS2_INS0_11HermesValueEEES7_NS2_INS0_8JSObjectEEE, symObjAddr: 0xF50, symBinAddr: 0x22A64, symSize: 0x458 }
  - { offsetInCU: 0x51F15, offset: 0x25B6C7, size: 0x8, addend: 0x0, symName: __ZN6hermes2vm8Callable17executeConstruct0ENS0_6HandleIS1_EERNS0_7RuntimeE, symObjAddr: 0x13A8, symBinAddr: 0x22EBC, symSize: 0xB0 }
  - { offsetInCU: 0x521A8, offset: 0x25B95A, size: 0x8, addend: 0x0, symName: __ZN6hermes2vm8Callable26createThisForConstruct_RJSENS0_6HandleIS1_EERNS0_7RuntimeE, symObjAddr: 0x1458, symBinAddr: 0x22F6C, symSize: 0xD4 }
  - { offsetInCU: 0x5278F, offset: 0x25BF41, size: 0x8, addend: 0x0, symName: __ZN6hermes2vm8Callable17executeConstruct1ENS0_6HandleIS1_EERNS0_7RuntimeENS2_INS0_11HermesValueEEE, symObjAddr: 0x152C, symBinAddr: 0x23040, symSize: 0xB8 }
  - { offsetInCU: 0x52C81, offset: 0x25C433, size: 0x8, addend: 0x0, symName: __ZN6hermes2vm13BoundFunction18_newObjectImpl_RJSENS0_6HandleINS0_8CallableEEERNS0_7RuntimeENS2_INS0_8JSObjectEEE, symObjAddr: 0x176C, symBinAddr: 0x23280, symSize: 0x110 }
  - { offsetInCU: 0x53405, offset: 0x25CBB7, size: 0x8, addend: 0x0, symName: __ZN6hermes2vm13BoundFunction9_callImplENS0_6HandleINS0_8CallableEEERNS0_7RuntimeE, symObjAddr: 0x187C, symBinAddr: 0x23390, symSize: 0x14 }
  - { offsetInCU: 0x534D5, offset: 0x25CC87, size: 0x8, addend: 0x0, symName: __ZN6hermes2vm13BoundFunction10_boundCallEPS1_PKNS_4inst4InstERNS0_7RuntimeE, symObjAddr: 0x1C08, symBinAddr: 0x23698, symSize: 0x228 }
  - { offsetInCU: 0x5490F, offset: 0x25E0C1, size: 0x8, addend: 0x0, symName: __ZN6hermes2vm13BoundFunction6createERNS0_7RuntimeENS0_6HandleINS0_8CallableEEEjNSt3__116reverse_iteratorIPKNS0_17PinnedHermesValueEEE, symObjAddr: 0x1904, symBinAddr: 0x23418, symSize: 0x18C }
  - { offsetInCU: 0x551B4, offset: 0x25E966, size: 0x8, addend: 0x0, symName: __ZN6hermes2vm16ArrayStorageBaseINS0_11HermesValueEE6createERNS0_7RuntimeEj, symObjAddr: 0x1A90, symBinAddr: 0x235A4, symSize: 0x40 }
  - { offsetInCU: 0x5535F, offset: 0x25EB11, size: 0x8, addend: 0x0, symName: __ZN6hermes2vm16ArrayStorageBaseINS0_11HermesValueEE9push_backERNS0_13MutableHandleIS3_EERNS0_7RuntimeENS0_6HandleIS2_EE, symObjAddr: 0x1AD0, symBinAddr: 0x235E4, symSize: 0x88 }
  - { offsetInCU: 0x55717, offset: 0x25EEC9, size: 0x8, addend: 0x0, symName: __ZN6hermes2vm6GCBase5makeAINS0_13BoundFunctionELb1ELNS0_12HasFinalizerE0ELNS0_9LongLivedE0EJRNS0_7RuntimeENS0_6HandleINS0_8JSObjectEEENS8_INS0_11HiddenClassEEERNS8_INS0_8CallableEEERNS0_13MutableHandleINS0_16ArrayStorageBaseINS0_11HermesValueEEEEEEEEPT_jDpOT3_, symObjAddr: 0x33EC, symBinAddr: 0x24760, symSize: 0x90 }
  - { offsetInCU: 0x55AD3, offset: 0x25F285, size: 0x8, addend: 0x0, symName: __ZN6hermes2vm6GCBase13makeAVariableINS0_16ArrayStorageBaseINS0_11HermesValueEEELNS0_12HasFinalizerE0ELNS0_9LongLivedE0EJEEEPT_jDpOT2_, symObjAddr: 0x3394, symBinAddr: 0x24708, symSize: 0x58 }
  - { offsetInCU: 0x563B3, offset: 0x25FB65, size: 0x8, addend: 0x0, symName: __ZN6hermes2vm24ScopedNativeDepthTrackerC2ERNS0_7RuntimeE, symObjAddr: 0x31AC, symBinAddr: 0x2469C, symSize: 0x6C }
  - { offsetInCU: 0x5644F, offset: 0x25FC01, size: 0x8, addend: 0x0, symName: __ZN6hermes2vm14NativeFunction14_newObjectImplENS0_6HandleINS0_8CallableEEERNS0_7RuntimeENS2_INS0_8JSObjectEEE, symObjAddr: 0x1E30, symBinAddr: 0x238C0, symSize: 0x50 }
  - { offsetInCU: 0x564F9, offset: 0x25FCAB, size: 0x8, addend: 0x0, symName: __ZN6hermes2vm14NativeFunction9_callImplENS0_6HandleINS0_8CallableEEERNS0_7RuntimeE, symObjAddr: 0x1E80, symBinAddr: 0x23910, symSize: 0xC }
  - { offsetInCU: 0x56534, offset: 0x25FCE6, size: 0x8, addend: 0x0, symName: __ZN6hermes2vm14NativeFunction9_callImplENS0_6HandleINS0_8CallableEEERNS0_7RuntimeE, symObjAddr: 0x1E80, symBinAddr: 0x23910, symSize: 0xC }
  - { offsetInCU: 0x5654A, offset: 0x25FCFC, size: 0x8, addend: 0x0, symName: __ZN6hermes2vm14NativeFunction9_callImplENS0_6HandleINS0_8CallableEEERNS0_7RuntimeE, symObjAddr: 0x1E80, symBinAddr: 0x23910, symSize: 0xC }
  - { offsetInCU: 0x565C1, offset: 0x25FD73, size: 0x8, addend: 0x0, symName: __ZN6hermes2vm14NativeFunction11_nativeCallEPS1_RNS0_7RuntimeE, symObjAddr: 0x2100, symBinAddr: 0x23AB8, symSize: 0xE4 }
  - { offsetInCU: 0x56D79, offset: 0x26052B, size: 0x8, addend: 0x0, symName: __ZN6hermes2vm14NativeFunction6createERNS0_7RuntimeENS0_6HandleINS0_8JSObjectEEEPvPFNS0_10CallResultINS0_11HermesValueELNS0_6detail20CallResultSpecializeE2EEES7_S3_NS0_10NativeArgsEENS0_8SymbolIDEjS6_j, symObjAddr: 0x1ED4, symBinAddr: 0x23964, symSize: 0x154 }
  - { offsetInCU: 0x57553, offset: 0x260D05, size: 0x8, addend: 0x0, symName: __ZN6hermes2vm6GCBase5makeAINS0_14NativeFunctionELb1ELNS0_12HasFinalizerE0ELNS0_9LongLivedE0EJRNS0_7RuntimeERNS0_6HandleINS0_8JSObjectEEENS8_INS0_11HiddenClassEEERPvRPFNS0_10CallResultINS0_11HermesValueELNS0_6detail20CallResultSpecializeE2EEESE_S7_NS0_10NativeArgsEEEEEPT_jDpOT3_, symObjAddr: 0x372C, symBinAddr: 0x24AA0, symSize: 0x90 }
  - { offsetInCU: 0x57B11, offset: 0x2612C3, size: 0x8, addend: 0x0, symName: __ZN6hermes2vm17NativeConstructor14_newObjectImplENS0_6HandleINS0_8CallableEEERNS0_7RuntimeENS2_INS0_8JSObjectEEE, symObjAddr: 0x21E4, symBinAddr: 0x23B9C, symSize: 0x20 }
  - { offsetInCU: 0x57C28, offset: 0x2613DA, size: 0x8, addend: 0x0, symName: __ZN6hermes2vm10JSFunction9_callImplENS0_6HandleINS0_8CallableEEERNS0_7RuntimeE, symObjAddr: 0x224C, symBinAddr: 0x23C04, symSize: 0x40 }
  - { offsetInCU: 0x57EC5, offset: 0x261677, size: 0x8, addend: 0x0, symName: __ZN6hermes2vm6GCBase5makeAINS0_10JSFunctionELb1ELNS0_12HasFinalizerE0ELNS0_9LongLivedE0EJRNS0_7RuntimeERNS0_6HandleINS0_6DomainEEERNS8_INS0_8JSObjectEEENS8_INS0_11HiddenClassEEERNS8_INS0_11EnvironmentEEERPNS0_9CodeBlockEEEEPT_jDpOT3_, symObjAddr: 0x3994, symBinAddr: 0x24BFC, symSize: 0xA0 }
  - { offsetInCU: 0x58363, offset: 0x261B15, size: 0x8, addend: 0x0, symName: __ZN6hermes2vm6GCBase5makeAINS0_15JSAsyncFunctionELb1ELNS0_12HasFinalizerE0ELNS0_9LongLivedE0EJRNS0_7RuntimeERNS0_6HandleINS0_6DomainEEERNS8_INS0_8JSObjectEEENS8_INS0_11HiddenClassEEERNS8_INS0_11EnvironmentEEERPNS0_9CodeBlockEEEEPT_jDpOT3_, symObjAddr: 0x3B08, symBinAddr: 0x24D70, symSize: 0xA0 }
  - { offsetInCU: 0x5885A, offset: 0x26200C, size: 0x8, addend: 0x0, symName: __ZN6hermes2vm6GCBase5makeAINS0_19JSGeneratorFunctionELb1ELNS0_12HasFinalizerE0ELNS0_9LongLivedE0EJRNS0_7RuntimeERNS0_6HandleINS0_6DomainEEERNS8_INS0_8JSObjectEEENS8_INS0_11HiddenClassEEERNS8_INS0_11EnvironmentEEERPNS0_9CodeBlockEEEEPT_jDpOT3_, symObjAddr: 0x3BA8, symBinAddr: 0x24E10, symSize: 0xA0 }
  - { offsetInCU: 0x58C07, offset: 0x2623B9, size: 0x8, addend: 0x0, symName: __ZN6hermes2vm22GeneratorInnerFunction9_callImplENS0_6HandleINS0_8CallableEEERNS0_7RuntimeE, symObjAddr: 0x24AC, symBinAddr: 0x23E64, symSize: 0x54 }
  - { offsetInCU: 0x5916C, offset: 0x26291E, size: 0x8, addend: 0x0, symName: __ZN6hermes2vm22GeneratorInnerFunction6createERNS0_7RuntimeENS0_6HandleINS0_6DomainEEENS4_INS0_8JSObjectEEENS4_INS0_11EnvironmentEEEPNS0_9CodeBlockENS0_10NativeArgsE, symObjAddr: 0x2574, symBinAddr: 0x23F2C, symSize: 0x204 }
  - { offsetInCU: 0x59DCC, offset: 0x26357E, size: 0x8, addend: 0x0, symName: __ZN6hermes2vm6GCBase5makeAINS0_22GeneratorInnerFunctionELb1ELNS0_12HasFinalizerE0ELNS0_9LongLivedE0EJRNS0_7RuntimeERNS0_6HandleINS0_6DomainEEERNS8_INS0_8JSObjectEEENS8_INS0_11HiddenClassEEERNS8_INS0_11EnvironmentEEERPNS0_9CodeBlockEjEEEPT_jDpOT3_, symObjAddr: 0x3C48, symBinAddr: 0x24EB0, symSize: 0xC0 }
  - { offsetInCU: 0x5A24E, offset: 0x263A00, size: 0x8, addend: 0x0, symName: __ZN6hermes2vm16ArrayStorageBaseINS0_11HermesValueEE6createERNS0_7RuntimeEjj, symObjAddr: 0x2778, symBinAddr: 0x24130, symSize: 0x5C }
  - { offsetInCU: 0x5A343, offset: 0x263AF5, size: 0x8, addend: 0x0, symName: __ZN6hermes2vm9GCPointerINS0_16ArrayStorageBaseINS0_11HermesValueEEEE3setERNS0_11PointerBaseEPS4_RNS0_7HadesGCE, symObjAddr: 0x27D4, symBinAddr: 0x2418C, symSize: 0x5C }
  - { offsetInCU: 0x5AD74, offset: 0x264526, size: 0x8, addend: 0x0, symName: __ZN6hermes2vm22GeneratorInnerFunction17callInnerFunctionENS0_6HandleIS1_EERNS0_7RuntimeENS2_INS0_11HermesValueEEENS1_6ActionE, symObjAddr: 0x2830, symBinAddr: 0x241E8, symSize: 0x340 }
  - { offsetInCU: 0x5C69B, offset: 0x265E4D, size: 0x8, addend: 0x0, symName: __ZN6hermes2vm22GeneratorInnerFunction12restoreStackERNS0_7RuntimeE, symObjAddr: 0x2B70, symBinAddr: 0x24528, symSize: 0x3C }
  - { offsetInCU: 0x5C71D, offset: 0x265ECF, size: 0x8, addend: 0x0, symName: __ZN6hermes2vm22GeneratorInnerFunction12restoreStackERNS0_7RuntimeE, symObjAddr: 0x2B70, symBinAddr: 0x24528, symSize: 0x3C }
  - { offsetInCU: 0x5C922, offset: 0x2660D4, size: 0x8, addend: 0x0, symName: __ZN6hermes2vm22GeneratorInnerFunction9saveStackERNS0_7RuntimeE, symObjAddr: 0x2BAC, symBinAddr: 0x24564, symSize: 0xC4 }
  - { offsetInCU: 0x5DF88, offset: 0x26773A, size: 0x8, addend: 0x0, symName: __ZN6hermes2vm13BoundFunctionC2ERNS0_7RuntimeENS0_6HandleINS0_8JSObjectEEENS4_INS0_11HiddenClassEEENS4_INS0_8CallableEEENS4_INS0_16ArrayStorageBaseINS0_11HermesValueEEEEE, symObjAddr: 0x347C, symBinAddr: 0x247F0, symSize: 0xB8 }
  - { offsetInCU: 0x5EC98, offset: 0x26844A, size: 0x8, addend: 0x0, symName: __ZN6hermes2vm9GCPointerINS0_8CallableEEC2INS0_13GCPointerBase11YesBarriersEEERNS0_11PointerBaseEPS2_RNS0_7HadesGCET_, symObjAddr: 0x3534, symBinAddr: 0x248A8, symSize: 0x60 }
  - { offsetInCU: 0x5EEE7, offset: 0x268699, size: 0x8, addend: 0x0, symName: __ZN6hermes2vm9GCPointerINS0_16ArrayStorageBaseINS0_11HermesValueEEEEC2INS0_13GCPointerBase11YesBarriersEEERNS0_11PointerBaseEPS4_RNS0_7HadesGCET_, symObjAddr: 0x3594, symBinAddr: 0x24908, symSize: 0x60 }
  - { offsetInCU: 0x5F7F0, offset: 0x268FA2, size: 0x8, addend: 0x0, symName: __ZN6hermes2vm8CallableC2ERNS0_7RuntimeEPNS0_8JSObjectEPNS0_11HiddenClassENS0_6HandleINS0_11EnvironmentEEE, symObjAddr: 0x38C8, symBinAddr: 0x24B30, symSize: 0x6C }
  - { offsetInCU: 0x5FE46, offset: 0x2695F8, size: 0x8, addend: 0x0, symName: __ZN6hermes2vm9GCPointerINS0_11EnvironmentEEC2INS0_13GCPointerBase11YesBarriersEEERNS0_11PointerBaseEPS2_RNS0_7HadesGCET_, symObjAddr: 0x3934, symBinAddr: 0x24B9C, symSize: 0x60 }
  - { offsetInCU: 0x60270, offset: 0x269A22, size: 0x8, addend: 0x0, symName: __ZN6hermes2vm10JSFunctionC2ERNS0_7RuntimeENS0_6HandleINS0_6DomainEEENS4_INS0_8JSObjectEEENS4_INS0_11HiddenClassEEENS4_INS0_11EnvironmentEEEPNS0_9CodeBlockE, symObjAddr: 0x3A34, symBinAddr: 0x24C9C, symSize: 0x74 }
  - { offsetInCU: 0x607CF, offset: 0x269F81, size: 0x8, addend: 0x0, symName: __ZN6hermes2vm9GCPointerINS0_6DomainEEC2INS0_13GCPointerBase11YesBarriersEEERNS0_11PointerBaseEPS2_RNS0_7HadesGCET_, symObjAddr: 0x3AA8, symBinAddr: 0x24D10, symSize: 0x60 }
  - { offsetInCU: 0x26, offset: 0x26A976, size: 0x8, addend: 0x0, symName: __ZN6hermes2vm9CodeBlock15createCodeBlockEPNS0_13RuntimeModuleENS_3hbc21RuntimeFunctionHeaderEPKhj, symObjAddr: 0x0, symBinAddr: 0x24F70, symSize: 0xE4 }
  - { offsetInCU: 0x4DCB5, offset: 0x2B8605, size: 0x8, addend: 0x0, symName: __ZN6hermes2vm9CodeBlock15createCodeBlockEPNS0_13RuntimeModuleENS_3hbc21RuntimeFunctionHeaderEPKhj, symObjAddr: 0x0, symBinAddr: 0x24F70, symSize: 0xE4 }
  - { offsetInCU: 0x4E276, offset: 0x2B8BC6, size: 0x8, addend: 0x0, symName: __ZN6hermes2vm9CodeBlock21findCatchTargetOffsetEj, symObjAddr: 0xE4, symBinAddr: 0x25054, symSize: 0x18 }
  - { offsetInCU: 0x4E41B, offset: 0x2B8D6B, size: 0x8, addend: 0x0, symName: __ZNK6hermes2vm9CodeBlock18getArrayBufferIterEjj, symObjAddr: 0xFC, symBinAddr: 0x2506C, symSize: 0x24 }
  - { offsetInCU: 0x4E596, offset: 0x2B8EE6, size: 0x8, addend: 0x0, symName: __ZNK6hermes2vm9CodeBlock22getObjectBufferKeyIterEjj, symObjAddr: 0x120, symBinAddr: 0x25090, symSize: 0x24 }
  - { offsetInCU: 0x4E70F, offset: 0x2B905F, size: 0x8, addend: 0x0, symName: __ZNK6hermes2vm9CodeBlock24getObjectBufferValueIterEjj, symObjAddr: 0x144, symBinAddr: 0x250B4, symSize: 0x24 }
  - { offsetInCU: 0x4E8B6, offset: 0x2B9206, size: 0x8, addend: 0x0, symName: __ZNK6hermes2vm9CodeBlock18getNameMayAllocateEv, symObjAddr: 0x168, symBinAddr: 0x250D8, symSize: 0x30 }
  - { offsetInCU: 0x4E9E4, offset: 0x2B9334, size: 0x8, addend: 0x0, symName: __ZNK6hermes2vm9CodeBlock13getNameStringERNS0_6GCBase11GCCallbacksE, symObjAddr: 0x200, symBinAddr: 0x25108, symSize: 0x70 }
  - { offsetInCU: 0x4EA8E, offset: 0x2B93DE, size: 0x8, addend: 0x0, symName: __ZNK6hermes2vm9CodeBlock29getDebugSourceLocationsOffsetEv, symObjAddr: 0x270, symBinAddr: 0x25178, symSize: 0x44 }
  - { offsetInCU: 0x4ECFD, offset: 0x2B964D, size: 0x8, addend: 0x0, symName: __ZNK6hermes2vm9CodeBlock17getSourceLocationEj, symObjAddr: 0x2B4, symBinAddr: 0x251BC, symSize: 0x124 }
  - { offsetInCU: 0x4F0D5, offset: 0x2B9A25, size: 0x8, addend: 0x0, symName: __ZNK6hermes2vm9CodeBlock19getFunctionSourceIDEv, symObjAddr: 0x3D8, symBinAddr: 0x252E0, symSize: 0x88 }
  - { offsetInCU: 0x4F448, offset: 0x2B9D98, size: 0x8, addend: 0x0, symName: __ZNK6hermes2vm9CodeBlock24getTextifiedCalleeOffsetEv, symObjAddr: 0x4A4, symBinAddr: 0x25368, symSize: 0x44 }
  - { offsetInCU: 0x4FD9B, offset: 0x2BA6EB, size: 0x8, addend: 0x0, symName: __ZN6hermes2vm9CodeBlock15lazyCompileImplERNS0_7RuntimeE, symObjAddr: 0x544, symBinAddr: 0x253AC, symSize: 0x278 }
  - { offsetInCU: 0x52C66, offset: 0x2BD5B6, size: 0x8, addend: 0x0, symName: __ZN6hermes2vm9CodeBlock23markCachedHiddenClassesERNS0_7RuntimeERNS0_16WeakRootAcceptorE, symObjAddr: 0x818, symBinAddr: 0x25624, symSize: 0x5C }
  - { offsetInCU: 0x52D5D, offset: 0x2BD6AD, size: 0x8, addend: 0x0, symName: __ZNK6hermes2vm9CodeBlock16getVirtualOffsetEv, symObjAddr: 0x874, symBinAddr: 0x25680, symSize: 0x14 }
  - { offsetInCU: 0x52D8A, offset: 0x2BD6DA, size: 0x8, addend: 0x0, symName: __ZNK6hermes2vm9CodeBlock16getVirtualOffsetEv, symObjAddr: 0x874, symBinAddr: 0x25680, symSize: 0x14 }
  - { offsetInCU: 0x26, offset: 0x2BF6A2, size: 0x8, addend: 0x0, symName: __ZN6hermes2vm24DictPropertyMapBuildMetaEPKNS0_6GCCellERNS0_8Metadata7BuilderE, symObjAddr: 0x0, symBinAddr: 0x25694, symSize: 0x28 }
  - { offsetInCU: 0x44, offset: 0x2BF6C0, size: 0x8, addend: 0x0, symName: __ZN6hermes2vm15DictPropertyMap2vtE, symObjAddr: 0x980, symBinAddr: 0x1B9890, symSize: 0x0 }
  - { offsetInCU: 0x7B46, offset: 0x2C71C2, size: 0x8, addend: 0x0, symName: __ZN6hermes2vm24DictPropertyMapBuildMetaEPKNS0_6GCCellERNS0_8Metadata7BuilderE, symObjAddr: 0x0, symBinAddr: 0x25694, symSize: 0x28 }
  - { offsetInCU: 0x7B94, offset: 0x2C7210, size: 0x8, addend: 0x0, symName: __ZN6hermes2vm24DictPropertyMapBuildMetaEPKNS0_6GCCellERNS0_8Metadata7BuilderE, symObjAddr: 0x0, symBinAddr: 0x25694, symSize: 0x28 }
  - { offsetInCU: 0x2E604, offset: 0x2EDC80, size: 0x8, addend: 0x0, symName: __ZN6hermes2vm15DictPropertyMap6createERNS0_7RuntimeEj, symObjAddr: 0x30, symBinAddr: 0x256BC, symSize: 0x14C }
  - { offsetInCU: 0x2E989, offset: 0x2EE005, size: 0x8, addend: 0x0, symName: __ZN6hermes2vm6GCBase5makeAINS0_15DictPropertyMapELb0ELNS0_12HasFinalizerE0ELNS0_9LongLivedE0EJRjS6_EEEPT_jDpOT3_, symObjAddr: 0x8BC, symBinAddr: 0x25C50, symSize: 0x94 }
  - { offsetInCU: 0x2F102, offset: 0x2EE77E, size: 0x8, addend: 0x0, symName: __ZN6hermes2vm15DictPropertyMap14lookupEntryForEPS1_NS0_8SymbolIDE, symObjAddr: 0x228, symBinAddr: 0x25808, symSize: 0x90 }
  - { offsetInCU: 0x2F636, offset: 0x2EECB2, size: 0x8, addend: 0x0, symName: __ZN6hermes2vm15DictPropertyMap4growERNS0_13MutableHandleIS1_EERNS0_7RuntimeEj, symObjAddr: 0x2B8, symBinAddr: 0x25898, symSize: 0x144 }
  - { offsetInCU: 0x2FE2D, offset: 0x2EF4A9, size: 0x8, addend: 0x0, symName: __ZN6hermes2vm15DictPropertyMap9findOrAddERNS0_13MutableHandleIS1_EERNS0_7RuntimeENS0_8SymbolIDE, symObjAddr: 0x3FC, symBinAddr: 0x259DC, symSize: 0x194 }
  - { offsetInCU: 0x3058C, offset: 0x2EFC08, size: 0x8, addend: 0x0, symName: __ZN6hermes2vm15DictPropertyMap5eraseEPS1_RNS0_7RuntimeENS1_11PropertyPosE, symObjAddr: 0x590, symBinAddr: 0x25B70, symSize: 0xA0 }
  - { offsetInCU: 0x30788, offset: 0x2EFE04, size: 0x8, addend: 0x0, symName: __ZN6hermes2vm15DictPropertyMap20allocatePropertySlotEPS1_RNS0_7RuntimeE, symObjAddr: 0x630, symBinAddr: 0x25C10, symSize: 0x40 }
  - { offsetInCU: 0x26, offset: 0x2F0310, size: 0x8, addend: 0x0, symName: __ZN6hermes2vm6Domain13_finalizeImplEPNS0_6GCCellERNS0_7HadesGCE, symObjAddr: 0x0, symBinAddr: 0x25CE4, symSize: 0x50 }
  - { offsetInCU: 0x44, offset: 0x2F032E, size: 0x8, addend: 0x0, symName: __ZN6hermes2vm6Domain2vtE, symObjAddr: 0x1330, symBinAddr: 0x2020F0, symSize: 0x0 }
  - { offsetInCU: 0x8737, offset: 0x2F8A21, size: 0x8, addend: 0x0, symName: __ZN6hermes2vm14RequireContext2vtE, symObjAddr: 0x1358, symBinAddr: 0x202118, symSize: 0x0 }
  - { offsetInCU: 0x8BDE, offset: 0x2F8EC8, size: 0x8, addend: 0x0, symName: __ZN6hermes2vm15DomainBuildMetaEPKNS0_6GCCellERNS0_8Metadata7BuilderE, symObjAddr: 0xC0, symBinAddr: 0x25DA4, symSize: 0x50 }
  - { offsetInCU: 0x8C8D, offset: 0x2F8F77, size: 0x8, addend: 0x0, symName: __ZN6hermes2vm23RequireContextBuildMetaEPKNS0_6GCCellERNS0_8Metadata7BuilderE, symObjAddr: 0xBA8, symBinAddr: 0x26788, symSize: 0x64 }
  - { offsetInCU: 0x30441, offset: 0x32072B, size: 0x8, addend: 0x0, symName: __ZN6hermes2vm6Domain13_finalizeImplEPNS0_6GCCellERNS0_7HadesGCE, symObjAddr: 0x0, symBinAddr: 0x25CE4, symSize: 0x50 }
  - { offsetInCU: 0x30536, offset: 0x320820, size: 0x8, addend: 0x0, symName: __ZN6hermes2vm6DomainD2Ev, symObjAddr: 0xCC4, symBinAddr: 0x268A4, symSize: 0x38 }
  - { offsetInCU: 0x30700, offset: 0x3209EA, size: 0x8, addend: 0x0, symName: __ZN6hermes2vm6Domain15_mallocSizeImplEPNS0_6GCCellE, symObjAddr: 0x50, symBinAddr: 0x25D34, symSize: 0x70 }
  - { offsetInCU: 0x3090C, offset: 0x320BF6, size: 0x8, addend: 0x0, symName: __ZN6hermes2vm6Domain6createERNS0_7RuntimeE, symObjAddr: 0x110, symBinAddr: 0x25DF4, symSize: 0x10 }
  - { offsetInCU: 0x309BF, offset: 0x320CA9, size: 0x8, addend: 0x0, symName: __ZN6hermes2vm6GCBase5makeAINS0_6DomainELb1ELNS0_12HasFinalizerE1ELNS0_9LongLivedE0EJEEEPT_jDpOT3_, symObjAddr: 0xCFC, symBinAddr: 0x268DC, symSize: 0x128 }
  - { offsetInCU: 0x31176, offset: 0x321460, size: 0x8, addend: 0x0, symName: __ZNK6hermes2vm6Domain18getThrowingRequireERNS0_7RuntimeE, symObjAddr: 0x120, symBinAddr: 0x25E04, symSize: 0x1C }
  - { offsetInCU: 0x31A91, offset: 0x321D7B, size: 0x8, addend: 0x0, symName: __ZN6hermes2vm6Domain20importCJSModuleTableENS0_6HandleIS1_EERNS0_7RuntimeEPNS0_13RuntimeModuleE, symObjAddr: 0x13C, symBinAddr: 0x25E20, symSize: 0x780 }
  - { offsetInCU: 0x34AFD, offset: 0x324DE7, size: 0x8, addend: 0x0, symName: __ZN6hermes2vm14RequireContext6createERNS0_7RuntimeENS0_6HandleINS0_6DomainEEENS4_INS0_15StringPrimitiveEEE, symObjAddr: 0x8FC, symBinAddr: 0x265A0, symSize: 0x100 }
  - { offsetInCU: 0x35184, offset: 0x32546E, size: 0x8, addend: 0x0, symName: __ZN6hermes2vm9GCPointerINS0_14NativeFunctionEE3setERNS0_11PointerBaseEPS2_RNS0_7HadesGCE, symObjAddr: 0x9FC, symBinAddr: 0x266A0, symSize: 0x5C }
  - { offsetInCU: 0x35421, offset: 0x32570B, size: 0x8, addend: 0x0, symName: __ZNK4llvh12DenseMapBaseINS_8DenseMapIN6hermes2vm8SymbolIDEjNS_12DenseMapInfoIS4_EENS_6detail12DenseMapPairIS4_jEEEES4_jS6_S9_E15LookupBucketForIS4_EEbRKT_RPKS9_, symObjAddr: 0xF94, symBinAddr: 0x26A04, symSize: 0xA0 }
  - { offsetInCU: 0x354DF, offset: 0x3257C9, size: 0x8, addend: 0x0, symName: __ZNK4llvh12DenseMapBaseINS_8DenseMapIN6hermes2vm8SymbolIDEjNS_12DenseMapInfoIS4_EENS_6detail12DenseMapPairIS4_jEEEES4_jS6_S9_E15LookupBucketForIS4_EEbRKT_RPKS9_, symObjAddr: 0xF94, symBinAddr: 0x26A04, symSize: 0xA0 }
  - { offsetInCU: 0x354FD, offset: 0x3257E7, size: 0x8, addend: 0x0, symName: __ZNK4llvh12DenseMapBaseINS_8DenseMapIN6hermes2vm8SymbolIDEjNS_12DenseMapInfoIS4_EENS_6detail12DenseMapPairIS4_jEEEES4_jS6_S9_E15LookupBucketForIS4_EEbRKT_RPKS9_, symObjAddr: 0xF94, symBinAddr: 0x26A04, symSize: 0xA0 }
  - { offsetInCU: 0x355DD, offset: 0x3258C7, size: 0x8, addend: 0x0, symName: __ZN4llvh12DenseMapBaseINS_8DenseMapIN6hermes2vm8SymbolIDEjNS_12DenseMapInfoIS4_EENS_6detail12DenseMapPairIS4_jEEEES4_jS6_S9_E11try_emplaceIJjEEENSt3__14pairINS_16DenseMapIteratorIS4_jS6_S9_Lb0EEEbEERKS4_DpOT_, symObjAddr: 0xAC0, symBinAddr: 0x266FC, symSize: 0x8C }
  - { offsetInCU: 0x35E3D, offset: 0x326127, size: 0x8, addend: 0x0, symName: __ZN6hermes2vm6GCBase5makeAINS0_14RequireContextELb1ELNS0_12HasFinalizerE0ELNS0_9LongLivedE0EJRNS0_7RuntimeERNS0_6HandleINS0_8JSObjectEEENS8_INS0_11HiddenClassEEEEEEPT_jDpOT3_, symObjAddr: 0x123C, symBinAddr: 0x26CAC, symSize: 0x78 }
  - { offsetInCU: 0x360FB, offset: 0x3263E5, size: 0x8, addend: 0x0, symName: __ZN6hermes2vm9GCPointerINS0_6DomainEE3setERNS0_11PointerBaseEPS2_RNS0_7HadesGCE, symObjAddr: 0xC0C, symBinAddr: 0x267EC, symSize: 0x5C }
  - { offsetInCU: 0x3632A, offset: 0x326614, size: 0x8, addend: 0x0, symName: __ZN6hermes2vm9GCPointerINS0_15StringPrimitiveEE3setERNS0_11PointerBaseEPS2_RNS0_7HadesGCE, symObjAddr: 0xC68, symBinAddr: 0x26848, symSize: 0x5C }
  - { offsetInCU: 0x36751, offset: 0x326A3B, size: 0x8, addend: 0x0, symName: __ZN4llvh12DenseMapBaseINS_8DenseMapIN6hermes2vm8SymbolIDEjNS_12DenseMapInfoIS4_EENS_6detail12DenseMapPairIS4_jEEEES4_jS6_S9_E20InsertIntoBucketImplIS4_EEPS9_RKS4_RKT_SD_, symObjAddr: 0x1034, symBinAddr: 0x26AA4, symSize: 0xAC }
  - { offsetInCU: 0x37492, offset: 0x32777C, size: 0x8, addend: 0x0, symName: __ZN4llvh8DenseMapIN6hermes2vm8SymbolIDEjNS_12DenseMapInfoIS3_EENS_6detail12DenseMapPairIS3_jEEE4growEj, symObjAddr: 0x10E0, symBinAddr: 0x26B50, symSize: 0xB0 }
  - { offsetInCU: 0x376C7, offset: 0x3279B1, size: 0x8, addend: 0x0, symName: __ZN4llvh12DenseMapBaseINS_8DenseMapIN6hermes2vm8SymbolIDEjNS_12DenseMapInfoIS4_EENS_6detail12DenseMapPairIS4_jEEEES4_jS6_S9_E18moveFromOldBucketsEPS9_SC_, symObjAddr: 0x1190, symBinAddr: 0x26C00, symSize: 0xAC }
  - { offsetInCU: 0x37B1C, offset: 0x327E06, size: 0x8, addend: 0x0, symName: __ZN6hermes2vm14RequireContextC2ERNS0_7RuntimeENS0_6HandleINS0_8JSObjectEEENS4_INS0_11HiddenClassEEE, symObjAddr: 0x12B4, symBinAddr: 0x26D24, symSize: 0x58 }
  - { offsetInCU: 0x37B91, offset: 0x327E7B, size: 0x8, addend: 0x0, symName: __ZN6hermes2vm14RequireContextC2ERNS0_7RuntimeENS0_6HandleINS0_8JSObjectEEENS4_INS0_11HiddenClassEEE, symObjAddr: 0x12B4, symBinAddr: 0x26D24, symSize: 0x58 }
  - { offsetInCU: 0x26, offset: 0x32881D, size: 0x8, addend: 0x0, symName: __ZN6hermes2vm11testhelpers11DummyObject13_finalizeImplEPNS0_6GCCellERNS0_7HadesGCE, symObjAddr: 0x0, symBinAddr: 0x26D7C, symSize: 0xBC }
  - { offsetInCU: 0x49, offset: 0x328840, size: 0x8, addend: 0x0, symName: __ZN6hermes2vm11testhelpers11DummyObject2vtE, symObjAddr: 0x660, symBinAddr: 0x202178, symSize: 0x0 }
  - { offsetInCU: 0x7749, offset: 0x32FF40, size: 0x8, addend: 0x0, symName: __ZN6hermes2vm20DummyObjectBuildMetaEPKNS0_6GCCellERNS0_8Metadata7BuilderE, symObjAddr: 0x3BC, symBinAddr: 0x26E40, symSize: 0xB4 }
  - { offsetInCU: 0x2E2D4, offset: 0x356ACB, size: 0x8, addend: 0x0, symName: __ZN6hermes2vm11testhelpers11DummyObject13_finalizeImplEPNS0_6GCCellERNS0_7HadesGCE, symObjAddr: 0x0, symBinAddr: 0x26D7C, symSize: 0xBC }
  - { offsetInCU: 0x2E4E8, offset: 0x356CDF, size: 0x8, addend: 0x0, symName: __ZN6hermes2vm11testhelpers11DummyObject15_mallocSizeImplEPNS0_6GCCellE, symObjAddr: 0xBC, symBinAddr: 0x26E38, symSize: 0x8 }
  - { offsetInCU: 0x2E4F3, offset: 0x356CEA, size: 0x8, addend: 0x0, symName: __ZN6hermes2vm11testhelpers11DummyObject15_mallocSizeImplEPNS0_6GCCellE, symObjAddr: 0xBC, symBinAddr: 0x26E38, symSize: 0x8 }
  - { offsetInCU: 0x26, offset: 0x356D8E, size: 0x8, addend: 0x0, symName: __ZN6hermes2vm6GCBaseC2ERNS1_11GCCallbacksERNS0_11PointerBaseERKNS0_8GCConfigENSt3__110shared_ptrINS0_12CrashManagerEEENS1_8HeapKindE, symObjAddr: 0x0, symBinAddr: 0x26EF4, symSize: 0x2E8 }
  - { offsetInCU: 0x48, offset: 0x356DB0, size: 0x8, addend: 0x0, symName: __ZN6hermes2vm6GCBase25kNaturalCauseForAnalyticsE, symObjAddr: 0x52F8, symBinAddr: 0x1B98D4, symSize: 0x0 }
  - { offsetInCU: 0x16C1F, offset: 0x36D987, size: 0x8, addend: 0x0, symName: __ZNSt3__119__allocate_at_leastB7v160006INS_9allocatorIN6hermes2vm16GCAnalyticsEventEEEEENS_19__allocation_resultINS_16allocator_traitsIT_E7pointerEEERS8_m, symObjAddr: 0x396C, symBinAddr: 0x28CBC, symSize: 0x44 }
  - { offsetInCU: 0x16CD8, offset: 0x36DA40, size: 0x8, addend: 0x0, symName: __ZNSt3__142__uninitialized_allocator_move_if_noexceptB7v160006INS_9allocatorIN6hermes2vm16GCAnalyticsEventEEENS_16reverse_iteratorIPS4_EES8_S8_EET2_RT_T0_T1_S9_, symObjAddr: 0x39B0, symBinAddr: 0x28D00, symSize: 0xD0 }
  - { offsetInCU: 0x1748A, offset: 0x36E1F2, size: 0x8, addend: 0x0, symName: __ZNSt3__16vectorIN6hermes2vm16GCAnalyticsEventENS_9allocatorIS3_EEE26__swap_out_circular_bufferERNS_14__split_bufferIS3_RS5_EE, symObjAddr: 0x38F8, symBinAddr: 0x28C48, symSize: 0x74 }
  - { offsetInCU: 0x174EE, offset: 0x36E256, size: 0x8, addend: 0x0, symName: __ZNSt3__142__uninitialized_allocator_move_if_noexceptB7v160006INS_9allocatorIN6hermes2vm16GCAnalyticsEventEEENS_16reverse_iteratorIPS4_EES8_S8_EET2_RT_T0_T1_S9_, symObjAddr: 0x39B0, symBinAddr: 0x28D00, symSize: 0xD0 }
  - { offsetInCU: 0x1BBA6, offset: 0x37290E, size: 0x8, addend: 0x0, symName: __ZN4llvh10hash_valueIyEENSt3__19enable_ifIXsr19is_integral_or_enumIT_EE5valueENS_9hash_codeEE4typeES3_, symObjAddr: 0x479C, symBinAddr: 0x29780, symSize: 0xCC }
  - { offsetInCU: 0x1E969, offset: 0x3756D1, size: 0x8, addend: 0x0, symName: __ZNSt3__16vectorIN6hermes2vm16GCAnalyticsEventENS_9allocatorIS3_EEE26__swap_out_circular_bufferERNS_14__split_bufferIS3_RS5_EE, symObjAddr: 0x38F8, symBinAddr: 0x28C48, symSize: 0x74 }
  - { offsetInCU: 0x2160F, offset: 0x378377, size: 0x8, addend: 0x0, symName: __ZN6hermes2vm6GCBaseC2ERNS1_11GCCallbacksERNS0_11PointerBaseERKNS0_8GCConfigENSt3__110shared_ptrINS0_12CrashManagerEEENS1_8HeapKindE, symObjAddr: 0x0, symBinAddr: 0x26EF4, symSize: 0x2E8 }
  - { offsetInCU: 0x2251D, offset: 0x379285, size: 0x8, addend: 0x0, symName: __ZNSt3__113random_deviceC1Ev, symObjAddr: 0x33C, symBinAddr: 0x271DC, symSize: 0x54 }
  - { offsetInCU: 0x22ADA, offset: 0x379842, size: 0x8, addend: 0x0, symName: __ZN6hermes2vm6GCBase7GCCycleC1ERS1_NSt3__112basic_stringIcNS4_11char_traitsIcEENS4_9allocatorIcEEEE, symObjAddr: 0x400, symBinAddr: 0x27230, symSize: 0x70 }
  - { offsetInCU: 0x22BED, offset: 0x379955, size: 0x8, addend: 0x0, symName: __ZN6hermes2vm6GCBase7GCCycleD2Ev, symObjAddr: 0x470, symBinAddr: 0x272A0, symSize: 0x58 }
  - { offsetInCU: 0x22D91, offset: 0x379AF9, size: 0x8, addend: 0x0, symName: __ZN6hermes2vm6GCBase7GCCycleD1Ev, symObjAddr: 0x4C8, symBinAddr: 0x272F8, symSize: 0x4 }
  - { offsetInCU: 0x22DBF, offset: 0x379B27, size: 0x8, addend: 0x0, symName: __ZN6hermes2vm6GCBase7GCCycleD1Ev, symObjAddr: 0x4C8, symBinAddr: 0x272F8, symSize: 0x4 }
  - { offsetInCU: 0x22DD3, offset: 0x379B3B, size: 0x8, addend: 0x0, symName: __ZN6hermes2vm6GCBase18runtimeWillExecuteEv, symObjAddr: 0x4CC, symBinAddr: 0x272FC, symSize: 0x50 }
  - { offsetInCU: 0x22E61, offset: 0x379BC9, size: 0x8, addend: 0x0, symName: __ZN6hermes2vm6GCBase13checkTripwireEm, symObjAddr: 0x51C, symBinAddr: 0x2734C, symSize: 0x68 }
  - { offsetInCU: 0x23112, offset: 0x379E7A, size: 0x8, addend: 0x0, symName: __ZZN6hermes2vm6GCBase13checkTripwireEmEN3CtxD1Ev, symObjAddr: 0x584, symBinAddr: 0x273B4, symSize: 0x4 }
  - { offsetInCU: 0x23135, offset: 0x379E9D, size: 0x8, addend: 0x0, symName: __ZZN6hermes2vm6GCBase13checkTripwireEmEN3CtxD1Ev, symObjAddr: 0x584, symBinAddr: 0x273B4, symSize: 0x4 }
  - { offsetInCU: 0x233AA, offset: 0x37A112, size: 0x8, addend: 0x0, symName: __ZN6hermes2vm6GCBase22printAllCollectedStatsERN4llvh11raw_ostreamE, symObjAddr: 0x588, symBinAddr: 0x273B8, symSize: 0xCC }
  - { offsetInCU: 0x2372D, offset: 0x37A495, size: 0x8, addend: 0x0, symName: __ZN6hermes2vm6GCBase11getHeapInfoERNS1_8HeapInfoE, symObjAddr: 0x654, symBinAddr: 0x27484, symSize: 0xC }
  - { offsetInCU: 0x23780, offset: 0x37A4E8, size: 0x8, addend: 0x0, symName: __ZN6hermes2vm6GCBase25getHeapInfoWithMallocSizeERNS1_8HeapInfoE, symObjAddr: 0x660, symBinAddr: 0x27490, symSize: 0x10 }
  - { offsetInCU: 0x237B9, offset: 0x37A521, size: 0x8, addend: 0x0, symName: __ZN6hermes2vm6GCBase25getHeapInfoWithMallocSizeERNS1_8HeapInfoE, symObjAddr: 0x660, symBinAddr: 0x27490, symSize: 0x10 }
  - { offsetInCU: 0x237D9, offset: 0x37A541, size: 0x8, addend: 0x0, symName: __ZN6hermes2vm6GCBase4dumpERN4llvh11raw_ostreamEb, symObjAddr: 0x670, symBinAddr: 0x274A0, symSize: 0x4 }
  - { offsetInCU: 0x23C19, offset: 0x37A981, size: 0x8, addend: 0x0, symName: __ZN6hermes2vm6GCBase10printStatsERNS_11JSONEmitterE, symObjAddr: 0x674, symBinAddr: 0x274A4, symSize: 0x7A8 }
  - { offsetInCU: 0x24832, offset: 0x37B59A, size: 0x8, addend: 0x0, symName: __ZN6hermes11JSONEmitter12emitKeyValueIA7_cEEvN4llvh9StringRefERKT_, symObjAddr: 0xE1C, symBinAddr: 0x27C4C, symSize: 0x38 }
  - { offsetInCU: 0x248E4, offset: 0x37B64C, size: 0x8, addend: 0x0, symName: __ZN6hermes11JSONEmitter12emitKeyValueINSt3__112basic_stringIcNS2_11char_traitsIcEENS2_9allocatorIcEEEEEEvN4llvh9StringRefERKT_, symObjAddr: 0xE54, symBinAddr: 0x27C84, symSize: 0x40 }
  - { offsetInCU: 0x24BC2, offset: 0x37B92A, size: 0x8, addend: 0x0, symName: __ZN6hermes2vm6GCBase13recordGCStatsERKNS0_16GCAnalyticsEventEPNS1_19CumulativeHeapStatsEb, symObjAddr: 0xE94, symBinAddr: 0x27CC4, symSize: 0x178 }
  - { offsetInCU: 0x25304, offset: 0x37C06C, size: 0x8, addend: 0x0, symName: __ZN6hermes2vm6GCBase13recordGCStatsERKNS0_16GCAnalyticsEventEb, symObjAddr: 0x100C, symBinAddr: 0x27E3C, symSize: 0x144 }
  - { offsetInCU: 0x25767, offset: 0x37C4CF, size: 0x8, addend: 0x0, symName: __ZNSt3__19allocatorIN6hermes2vm16GCAnalyticsEventEE9constructB7v160006IS3_JRKS3_EEEvPT_DpOT0_, symObjAddr: 0x3770, symBinAddr: 0x28BD0, symSize: 0x78 }
  - { offsetInCU: 0x2585B, offset: 0x37C5C3, size: 0x8, addend: 0x0, symName: __ZNSt3__114__split_bufferIN6hermes2vm16GCAnalyticsEventERNS_9allocatorIS3_EEED2Ev, symObjAddr: 0x3A80, symBinAddr: 0x28DD0, symSize: 0x30 }
  - { offsetInCU: 0x25982, offset: 0x37C6EA, size: 0x8, addend: 0x0, symName: __ZN6hermes2vm6GCBase3oomENSt3__110error_codeE, symObjAddr: 0x1150, symBinAddr: 0x27F80, symSize: 0x98 }
  - { offsetInCU: 0x25A40, offset: 0x37C7A8, size: 0x8, addend: 0x0, symName: __ZN6hermes2vm6GCBase9oomDetailEN4llvh15MutableArrayRefIcEENSt3__110error_codeE, symObjAddr: 0x11E8, symBinAddr: 0x28018, symSize: 0x164 }
  - { offsetInCU: 0x25A8D, offset: 0x37C7F5, size: 0x8, addend: 0x0, symName: __ZN6hermes2vm6GCBase9oomDetailEN4llvh15MutableArrayRefIcEENSt3__110error_codeE, symObjAddr: 0x11E8, symBinAddr: 0x28018, symSize: 0x164 }
  - { offsetInCU: 0x25FDE, offset: 0x37CD46, size: 0x8, addend: 0x0, symName: __ZN6hermes2vm6GCBase13allocWeakSlotENS0_17CompressedPointerE, symObjAddr: 0x134C, symBinAddr: 0x2817C, symSize: 0x28 }
  - { offsetInCU: 0x26034, offset: 0x37CD9C, size: 0x8, addend: 0x0, symName: __ZN6hermes18ManagedChunkedListINS_2vm11WeakRefSlotELm16EE3addIJRNS1_17CompressedPointerEEEERS2_DpOT_, symObjAddr: 0x1374, symBinAddr: 0x281A4, symSize: 0x74 }
  - { offsetInCU: 0x26315, offset: 0x37D07D, size: 0x8, addend: 0x0, symName: __ZN6hermes18ManagedChunkedListINS_2vm11WeakRefSlotELm16EE7collectEv, symObjAddr: 0x3C7C, symBinAddr: 0x28F38, symSize: 0xF4 }
  - { offsetInCU: 0x26546, offset: 0x37D2AE, size: 0x8, addend: 0x0, symName: __ZN6hermes18ManagedChunkedListINS_2vm11WeakRefSlotELm16EE13allocateChunkEv, symObjAddr: 0x3BFC, symBinAddr: 0x28EB8, symSize: 0x80 }
  - { offsetInCU: 0x268E4, offset: 0x37D64C, size: 0x8, addend: 0x0, symName: __ZN6hermes2vm6GCBase21allocWeakMapEntrySlotEPNS0_8JSObjectENS0_11HermesValueEPNS0_17JSWeakMapImplBaseE, symObjAddr: 0x13E8, symBinAddr: 0x28218, symSize: 0x58 }
  - { offsetInCU: 0x26B18, offset: 0x37D880, size: 0x8, addend: 0x0, symName: __ZN6hermes18ManagedChunkedListINS_2vm16WeakMapEntrySlotELm16EE3addIJNS1_17CompressedPointerERNS1_11HermesValueES5_EEERS2_DpOT_, symObjAddr: 0x1440, symBinAddr: 0x28270, symSize: 0x8C }
  - { offsetInCU: 0x26E0E, offset: 0x37DB76, size: 0x8, addend: 0x0, symName: __ZN6hermes18ManagedChunkedListINS_2vm16WeakMapEntrySlotELm16EE7collectEv, symObjAddr: 0x3E08, symBinAddr: 0x290C4, symSize: 0xF4 }
  - { offsetInCU: 0x27020, offset: 0x37DD88, size: 0x8, addend: 0x0, symName: __ZN6hermes18ManagedChunkedListINS_2vm16WeakMapEntrySlotELm16EE13allocateChunkEv, symObjAddr: 0x3D70, symBinAddr: 0x2902C, symSize: 0x98 }
  - { offsetInCU: 0x27461, offset: 0x37E1C9, size: 0x8, addend: 0x0, symName: __ZN6hermes2vm6GCBase11getObjectIDEPKNS0_6GCCellE, symObjAddr: 0x14CC, symBinAddr: 0x282FC, symSize: 0x14 }
  - { offsetInCU: 0x27490, offset: 0x37E1F8, size: 0x8, addend: 0x0, symName: __ZN6hermes2vm6GCBase11getObjectIDEPKNS0_6GCCellE, symObjAddr: 0x14CC, symBinAddr: 0x282FC, symSize: 0x14 }
  - { offsetInCU: 0x274AE, offset: 0x37E216, size: 0x8, addend: 0x0, symName: __ZN6hermes2vm6GCBase11getObjectIDEPKNS0_6GCCellE, symObjAddr: 0x14CC, symBinAddr: 0x282FC, symSize: 0x14 }
  - { offsetInCU: 0x274CB, offset: 0x37E233, size: 0x8, addend: 0x0, symName: __ZN6hermes2vm6GCBase11getObjectIDEPKNS0_6GCCellE, symObjAddr: 0x14CC, symBinAddr: 0x282FC, symSize: 0x14 }
  - { offsetInCU: 0x27504, offset: 0x37E26C, size: 0x8, addend: 0x0, symName: __ZN6hermes2vm6GCBase11getObjectIDEPKNS0_6GCCellE, symObjAddr: 0x14CC, symBinAddr: 0x282FC, symSize: 0x14 }
  - { offsetInCU: 0x27578, offset: 0x37E2E0, size: 0x8, addend: 0x0, symName: __ZN6hermes2vm6GCBase9IDTracker11getObjectIDENS0_17CompressedPointerE, symObjAddr: 0x1568, symBinAddr: 0x28310, symSize: 0xB0 }
  - { offsetInCU: 0x2772B, offset: 0x37E493, size: 0x8, addend: 0x0, symName: __ZN6hermes2vm6GCBase11getObjectIDENS0_8SymbolIDE, symObjAddr: 0x1618, symBinAddr: 0x283C0, symSize: 0xC }
  - { offsetInCU: 0x27850, offset: 0x37E5B8, size: 0x8, addend: 0x0, symName: __ZNK4llvh12DenseMapBaseINS_8DenseMapIjjNS_12DenseMapInfoIjEENS_6detail12DenseMapPairIjjEEEEjjS3_S6_E15LookupBucketForIjEEbRKT_RPKS6_, symObjAddr: 0x3F30, symBinAddr: 0x291B8, symSize: 0x9C }
  - { offsetInCU: 0x2790E, offset: 0x37E676, size: 0x8, addend: 0x0, symName: __ZNK4llvh12DenseMapBaseINS_8DenseMapIjjNS_12DenseMapInfoIjEENS_6detail12DenseMapPairIjjEEEEjjS3_S6_E15LookupBucketForIjEEbRKT_RPKS6_, symObjAddr: 0x3F30, symBinAddr: 0x291B8, symSize: 0x9C }
  - { offsetInCU: 0x2792C, offset: 0x37E694, size: 0x8, addend: 0x0, symName: __ZNK4llvh12DenseMapBaseINS_8DenseMapIjjNS_12DenseMapInfoIjEENS_6detail12DenseMapPairIjjEEEEjjS3_S6_E15LookupBucketForIjEEbRKT_RPKS6_, symObjAddr: 0x3F30, symBinAddr: 0x291B8, symSize: 0x9C }
  - { offsetInCU: 0x27A1D, offset: 0x37E785, size: 0x8, addend: 0x0, symName: __ZN4llvh12DenseMapBaseINS_8DenseMapIjjNS_12DenseMapInfoIjEENS_6detail12DenseMapPairIjjEEEEjjS3_S6_E16FindAndConstructEOj, symObjAddr: 0x3FCC, symBinAddr: 0x29254, symSize: 0x58 }
  - { offsetInCU: 0x27B1C, offset: 0x37E884, size: 0x8, addend: 0x0, symName: __ZN6hermes2vm6GCBase11getObjectIDENS0_8SymbolIDE, symObjAddr: 0x1618, symBinAddr: 0x283C0, symSize: 0xC }
  - { offsetInCU: 0x27B65, offset: 0x37E8CD, size: 0x8, addend: 0x0, symName: __ZN6hermes2vm6GCBase9IDTracker11getObjectIDENS0_8SymbolIDE, symObjAddr: 0x1624, symBinAddr: 0x283CC, symSize: 0xB4 }
  - { offsetInCU: 0x27DB5, offset: 0x37EB1D, size: 0x8, addend: 0x0, symName: __ZNK4llvh12DenseMapBaseINS_8DenseMapIPKvjNS_12DenseMapInfoIS3_EENS_6detail12DenseMapPairIS3_jEEEES3_jS5_S8_E15LookupBucketForIS3_EEbRKT_RPKS8_, symObjAddr: 0x4A78, symBinAddr: 0x29A5C, symSize: 0x9C }
  - { offsetInCU: 0x27E73, offset: 0x37EBDB, size: 0x8, addend: 0x0, symName: __ZNK4llvh12DenseMapBaseINS_8DenseMapIPKvjNS_12DenseMapInfoIS3_EENS_6detail12DenseMapPairIS3_jEEEES3_jS5_S8_E15LookupBucketForIS3_EEbRKT_RPKS8_, symObjAddr: 0x4A78, symBinAddr: 0x29A5C, symSize: 0x9C }
  - { offsetInCU: 0x27E91, offset: 0x37EBF9, size: 0x8, addend: 0x0, symName: __ZNK4llvh12DenseMapBaseINS_8DenseMapIPKvjNS_12DenseMapInfoIS3_EENS_6detail12DenseMapPairIS3_jEEEES3_jS5_S8_E15LookupBucketForIS3_EEbRKT_RPKS8_, symObjAddr: 0x4A78, symBinAddr: 0x29A5C, symSize: 0x9C }
  - { offsetInCU: 0x27F3D, offset: 0x37ECA5, size: 0x8, addend: 0x0, symName: __ZN6hermes2vm6GCBase10moveObjectEPKNS0_6GCCellEjS4_j, symObjAddr: 0x17FC, symBinAddr: 0x28480, symSize: 0x24 }
  - { offsetInCU: 0x2811B, offset: 0x37EE83, size: 0x8, addend: 0x0, symName: __ZN6hermes2vm6GCBase9IDTracker10moveObjectENS0_17CompressedPointerES3_, symObjAddr: 0x1820, symBinAddr: 0x284A4, symSize: 0xE8 }
  - { offsetInCU: 0x284DB, offset: 0x37F243, size: 0x8, addend: 0x0, symName: __ZN6hermes2vm6GCBase13untrackObjectEPKNS0_6GCCellEj, symObjAddr: 0x1908, symBinAddr: 0x2858C, symSize: 0x14 }
  - { offsetInCU: 0x285E6, offset: 0x37F34E, size: 0x8, addend: 0x0, symName: __ZN6hermes2vm6GCBase9IDTracker13untrackObjectENS0_17CompressedPointerE, symObjAddr: 0x191C, symBinAddr: 0x285A0, symSize: 0x80 }
  - { offsetInCU: 0x2874B, offset: 0x37F4B3, size: 0x8, addend: 0x0, symName: __ZN4llvh12DenseMapBaseINS_8DenseMapIjjNS_12DenseMapInfoIjEENS_6detail12DenseMapPairIjjEEEEjjS3_S6_E5eraseERKj, symObjAddr: 0x1FB8, symBinAddr: 0x2888C, symSize: 0x50 }
  - { offsetInCU: 0x28886, offset: 0x37F5EE, size: 0x8, addend: 0x0, symName: __ZN4llvh12DenseMapBaseINS_8DenseMapIjNS_11SmallVectorIjLj1EEENS_12DenseMapInfoIjEENS_6detail12DenseMapPairIjS3_EEEEjS3_S5_S8_E5eraseERKj, symObjAddr: 0x2008, symBinAddr: 0x288DC, symSize: 0x74 }
  - { offsetInCU: 0x28AA8, offset: 0x37F810, size: 0x8, addend: 0x0, symName: __ZNK6hermes2vm6GCBase14getGCExecTraceEv, symObjAddr: 0x199C, symBinAddr: 0x28620, symSize: 0x8 }
  - { offsetInCU: 0x28AD2, offset: 0x37F83A, size: 0x8, addend: 0x0, symName: __ZN6hermes2vm6GCBase11GCCallbacksD2Ev, symObjAddr: 0x1B58, symBinAddr: 0x28628, symSize: 0x4 }
  - { offsetInCU: 0x28B46, offset: 0x37F8AE, size: 0x8, addend: 0x0, symName: __ZN6hermes2vm6GCBase9IDTracker11getNumberIDEd, symObjAddr: 0x1C00, symBinAddr: 0x2862C, symSize: 0x80 }
  - { offsetInCU: 0x28C9A, offset: 0x37FA02, size: 0x8, addend: 0x0, symName: __ZN4llvh12DenseMapBaseINS_8DenseMapIdjN6hermes2vm6GCBase9IDTracker16DoubleComparatorENS_6detail12DenseMapPairIdjEEEEdjS6_S9_E16FindAndConstructERKd, symObjAddr: 0x4678, symBinAddr: 0x2965C, symSize: 0x5C }
  - { offsetInCU: 0x28F43, offset: 0x37FCAB, size: 0x8, addend: 0x0, symName: __ZN6hermes2vm6GCBase9IDTracker14getObjectForIDEj, symObjAddr: 0x1CB4, symBinAddr: 0x286AC, symSize: 0x11C }
  - { offsetInCU: 0x29314, offset: 0x38007C, size: 0x8, addend: 0x0, symName: __ZN4llvh12DenseMapBaseINS_8DenseMapIjjNS_12DenseMapInfoIjEENS_6detail12DenseMapPairIjjEEEEjjS3_S6_E11try_emplaceIJRKjEEENSt3__14pairINS_16DenseMapIteratorIjjS3_S6_Lb0EEEbEESB_DpOT_, symObjAddr: 0x1DD0, symBinAddr: 0x287C8, symSize: 0x8C }
  - { offsetInCU: 0x29483, offset: 0x3801EB, size: 0x8, addend: 0x0, symName: __ZN4llvh12DenseMapBaseINS_8DenseMapIjjNS_12DenseMapInfoIjEENS_6detail12DenseMapPairIjjEEEEjjS3_S6_E20InsertIntoBucketImplIjEEPS6_RKjRKT_SA_, symObjAddr: 0x4024, symBinAddr: 0x292AC, symSize: 0xA8 }
  - { offsetInCU: 0x297AE, offset: 0x380516, size: 0x8, addend: 0x0, symName: __ZN6hermes2vm6GCBase9IDTracker19hasTrackedObjectIDsEv, symObjAddr: 0x1E94, symBinAddr: 0x28854, symSize: 0x38 }
  - { offsetInCU: 0x29A5C, offset: 0x3807C4, size: 0x8, addend: 0x0, symName: __ZNK4llvh12DenseMapBaseINS_8DenseMapIjNS_11SmallVectorIjLj1EEENS_12DenseMapInfoIjEENS_6detail12DenseMapPairIjS3_EEEEjS3_S5_S8_E15LookupBucketForIjEEbRKT_RPKS8_, symObjAddr: 0x428C, symBinAddr: 0x294A8, symSize: 0x9C }
  - { offsetInCU: 0x29B1A, offset: 0x380882, size: 0x8, addend: 0x0, symName: __ZNK4llvh12DenseMapBaseINS_8DenseMapIjNS_11SmallVectorIjLj1EEENS_12DenseMapInfoIjEENS_6detail12DenseMapPairIjS3_EEEEjS3_S5_S8_E15LookupBucketForIjEEbRKT_RPKS8_, symObjAddr: 0x428C, symBinAddr: 0x294A8, symSize: 0x9C }
  - { offsetInCU: 0x29B38, offset: 0x3808A0, size: 0x8, addend: 0x0, symName: __ZNK4llvh12DenseMapBaseINS_8DenseMapIjNS_11SmallVectorIjLj1EEENS_12DenseMapInfoIjEENS_6detail12DenseMapPairIjS3_EEEEjS3_S5_S8_E15LookupBucketForIjEEbRKT_RPKS8_, symObjAddr: 0x428C, symBinAddr: 0x294A8, symSize: 0x9C }
  - { offsetInCU: 0x29BED, offset: 0x380955, size: 0x8, addend: 0x0, symName: __ZN6hermes2vm6GCBase9IDTracker13untrackNativeEPKv, symObjAddr: 0x207C, symBinAddr: 0x28950, symSize: 0x40 }
  - { offsetInCU: 0x29CC0, offset: 0x380A28, size: 0x8, addend: 0x0, symName: __ZN4llvh12DenseMapBaseINS_8DenseMapIPKvjNS_12DenseMapInfoIS3_EENS_6detail12DenseMapPairIS3_jEEEES3_jS5_S8_E5eraseERKS3_, symObjAddr: 0x20BC, symBinAddr: 0x28990, symSize: 0x50 }
  - { offsetInCU: 0x29E57, offset: 0x380BBF, size: 0x8, addend: 0x0, symName: __ZN6hermes2vm6GCBase9IDTracker13untrackSymbolEj, symObjAddr: 0x210C, symBinAddr: 0x289E0, symSize: 0x40 }
  - { offsetInCU: 0x29FA8, offset: 0x380D10, size: 0x8, addend: 0x0, symName: __ZN6hermes2vm6GCBase13getSnapshotIDENS0_11HermesValueE, symObjAddr: 0x2154, symBinAddr: 0x28A20, symSize: 0xE4 }
  - { offsetInCU: 0x2A233, offset: 0x380F9B, size: 0x8, addend: 0x0, symName: __ZN6hermes2vm6GCBase14getObjectForIDEj, symObjAddr: 0x2238, symBinAddr: 0x28B04, symSize: 0x48 }
  - { offsetInCU: 0x2ADE5, offset: 0x381B4D, size: 0x8, addend: 0x0, symName: __ZN6hermes2vm6GCBaseD1Ev, symObjAddr: 0x261C, symBinAddr: 0x1B4610, symSize: 0x4 }
  - { offsetInCU: 0x2AE0E, offset: 0x381B76, size: 0x8, addend: 0x0, symName: __ZN6hermes2vm6GCBaseD0Ev, symObjAddr: 0x2620, symBinAddr: 0x1B4614, symSize: 0x4 }
  - { offsetInCU: 0x2AE37, offset: 0x381B9F, size: 0x8, addend: 0x0, symName: __ZN6hermes2vm6GCBase10ttiReachedEv, symObjAddr: 0x2624, symBinAddr: 0x28B4C, symSize: 0x4 }
  - { offsetInCU: 0x2AE5C, offset: 0x381BC4, size: 0x8, addend: 0x0, symName: __ZN6hermes2vm6GCBase25recordNumAllocatedObjectsEv, symObjAddr: 0x2628, symBinAddr: 0x28B50, symSize: 0x4 }
  - { offsetInCU: 0x2AE9D, offset: 0x381C05, size: 0x8, addend: 0x0, symName: __ZNK6hermes2vm6GCBase21getPeakAllocatedBytesEv, symObjAddr: 0x262C, symBinAddr: 0x28B54, symSize: 0x8 }
  - { offsetInCU: 0x2AEC6, offset: 0x381C2E, size: 0x8, addend: 0x0, symName: __ZNK6hermes2vm6GCBase21getPeakAllocatedBytesEv, symObjAddr: 0x262C, symBinAddr: 0x28B54, symSize: 0x8 }
  - { offsetInCU: 0x2AEE6, offset: 0x381C4E, size: 0x8, addend: 0x0, symName: __ZNK6hermes2vm6GCBase18getPeakLiveAfterGCEv, symObjAddr: 0x2634, symBinAddr: 0x28B5C, symSize: 0x8 }
  - { offsetInCU: 0x2AF0F, offset: 0x381C77, size: 0x8, addend: 0x0, symName: __ZNK6hermes2vm6GCBase18getPeakLiveAfterGCEv, symObjAddr: 0x2634, symBinAddr: 0x28B5C, symSize: 0x8 }
  - { offsetInCU: 0x2AF2F, offset: 0x381C97, size: 0x8, addend: 0x0, symName: __ZNK6hermes2vm6GCBase10inYoungGenEPKv, symObjAddr: 0x263C, symBinAddr: 0x28B64, symSize: 0x8 }
  - { offsetInCU: 0x2AF65, offset: 0x381CCD, size: 0x8, addend: 0x0, symName: __ZN6hermes2vm6GCBase22canAllocExternalMemoryEj, symObjAddr: 0x2644, symBinAddr: 0x28B6C, symSize: 0x8 }
  - { offsetInCU: 0x2AF9B, offset: 0x381D03, size: 0x8, addend: 0x0, symName: __ZNK6hermes2vm6GCBase25bytesAllocatedSinceLastGCEv, symObjAddr: 0x264C, symBinAddr: 0x28B74, symSize: 0x8 }
  - { offsetInCU: 0x2B1AB, offset: 0x381F13, size: 0x8, addend: 0x0, symName: __ZZN6hermes2vm6GCBase13checkTripwireEmEN3CtxD0Ev, symObjAddr: 0x27C0, symBinAddr: 0x28B7C, symSize: 0x14 }
  - { offsetInCU: 0x2B223, offset: 0x381F8B, size: 0x8, addend: 0x0, symName: __ZZN6hermes2vm6GCBase13checkTripwireEmEN3Ctx20createSnapshotToFileERKNSt3__112basic_stringIcNS3_11char_traitsIcEENS3_9allocatorIcEEEE, symObjAddr: 0x27D4, symBinAddr: 0x28B90, symSize: 0x1C }
  - { offsetInCU: 0x2B265, offset: 0x381FCD, size: 0x8, addend: 0x0, symName: __ZZN6hermes2vm6GCBase13checkTripwireEmEN3Ctx14createSnapshotERNSt3__113basic_ostreamIcNS3_11char_traitsIcEEEEb, symObjAddr: 0x27F0, symBinAddr: 0x28BAC, symSize: 0x1C }
  - { offsetInCU: 0x2B2B4, offset: 0x38201C, size: 0x8, addend: 0x0, symName: __ZN6hermes2vm19RootSectionAcceptor16beginRootSectionENS1_7SectionE, symObjAddr: 0x2894, symBinAddr: 0x28BC8, symSize: 0x4 }
  - { offsetInCU: 0x2B2E7, offset: 0x38204F, size: 0x8, addend: 0x0, symName: __ZN6hermes2vm19RootSectionAcceptor14endRootSectionEv, symObjAddr: 0x2898, symBinAddr: 0x28BCC, symSize: 0x4 }
  - { offsetInCU: 0x2BD3A, offset: 0x382AA2, size: 0x8, addend: 0x0, symName: __ZNSt3__114__split_bufferIN6hermes2vm16GCAnalyticsEventERNS_9allocatorIS3_EEE5clearB7v160006Ev, symObjAddr: 0x3AB0, symBinAddr: 0x28E00, symSize: 0x44 }
  - { offsetInCU: 0x2BF02, offset: 0x382C6A, size: 0x8, addend: 0x0, symName: __ZNSt3__19allocatorIN6hermes2vm16GCAnalyticsEventEE7destroyB7v160006EPS3_, symObjAddr: 0x3AF4, symBinAddr: 0x28E44, symSize: 0x74 }
  - { offsetInCU: 0x2CCEB, offset: 0x383A53, size: 0x8, addend: 0x0, symName: __ZN4llvh8DenseMapIjjNS_12DenseMapInfoIjEENS_6detail12DenseMapPairIjjEEE4growEj, symObjAddr: 0x40CC, symBinAddr: 0x29354, symSize: 0xB0 }
  - { offsetInCU: 0x2CF13, offset: 0x383C7B, size: 0x8, addend: 0x0, symName: __ZN4llvh12DenseMapBaseINS_8DenseMapIjjNS_12DenseMapInfoIjEENS_6detail12DenseMapPairIjjEEEEjjS3_S6_E18moveFromOldBucketsEPS6_S9_, symObjAddr: 0x417C, symBinAddr: 0x29404, symSize: 0xA4 }
  - { offsetInCU: 0x2D239, offset: 0x383FA1, size: 0x8, addend: 0x0, symName: __ZN4llvh15SmallVectorImplIjEaSEOS1_, symObjAddr: 0x4560, symBinAddr: 0x29544, symSize: 0x118 }
  - { offsetInCU: 0x2DA10, offset: 0x384778, size: 0x8, addend: 0x0, symName: __ZNK4llvh12DenseMapBaseINS_8DenseMapIdjN6hermes2vm6GCBase9IDTracker16DoubleComparatorENS_6detail12DenseMapPairIdjEEEEdjS6_S9_E15LookupBucketForIdEEbRKT_RPKS9_, symObjAddr: 0x46D4, symBinAddr: 0x296B8, symSize: 0xC8 }
  - { offsetInCU: 0x2DBA2, offset: 0x38490A, size: 0x8, addend: 0x0, symName: __ZN4llvh12DenseMapBaseINS_8DenseMapIdjN6hermes2vm6GCBase9IDTracker16DoubleComparatorENS_6detail12DenseMapPairIdjEEEEdjS6_S9_E20InsertIntoBucketImplIdEEPS9_RKdRKT_SD_, symObjAddr: 0x4868, symBinAddr: 0x2984C, symSize: 0xAC }
  - { offsetInCU: 0x2E017, offset: 0x384D7F, size: 0x8, addend: 0x0, symName: __ZN4llvh8DenseMapIdjN6hermes2vm6GCBase9IDTracker16DoubleComparatorENS_6detail12DenseMapPairIdjEEE4growEj, symObjAddr: 0x4914, symBinAddr: 0x298F8, symSize: 0xB0 }
  - { offsetInCU: 0x2E23F, offset: 0x384FA7, size: 0x8, addend: 0x0, symName: __ZN4llvh12DenseMapBaseINS_8DenseMapIdjN6hermes2vm6GCBase9IDTracker16DoubleComparatorENS_6detail12DenseMapPairIdjEEEEdjS6_S9_E18moveFromOldBucketsEPS9_SC_, symObjAddr: 0x49C4, symBinAddr: 0x299A8, symSize: 0xB4 }
  - { offsetInCU: 0x2E56E, offset: 0x3852D6, size: 0x8, addend: 0x0, symName: __ZN6hermes2vm28RootAndSlotAcceptorWithNames6acceptERPNS0_6GCCellE, symObjAddr: 0x4D74, symBinAddr: 0x29AF8, symSize: 0x10 }
  - { offsetInCU: 0x2E5C4, offset: 0x38532C, size: 0x8, addend: 0x0, symName: __ZN6hermes2vm28RootAndSlotAcceptorWithNames6acceptERNS0_17PinnedHermesValueE, symObjAddr: 0x4D84, symBinAddr: 0x29B08, symSize: 0x10 }
  - { offsetInCU: 0x2E61A, offset: 0x385382, size: 0x8, addend: 0x0, symName: __ZN6hermes2vm28RootAndSlotAcceptorWithNames14acceptNullableERNS0_17PinnedHermesValueE, symObjAddr: 0x4D94, symBinAddr: 0x29B18, symSize: 0x10 }
  - { offsetInCU: 0x2E670, offset: 0x3853D8, size: 0x8, addend: 0x0, symName: __ZN6hermes2vm28RootAndSlotAcceptorWithNames6acceptERKNS0_12RootSymbolIDE, symObjAddr: 0x4DA4, symBinAddr: 0x29B28, symSize: 0x10 }
  - { offsetInCU: 0x2E6C6, offset: 0x38542E, size: 0x8, addend: 0x0, symName: __ZN6hermes2vm28RootAndSlotAcceptorWithNames6acceptERNS0_13GCPointerBaseE, symObjAddr: 0x4DD4, symBinAddr: 0x29B38, symSize: 0x10 }
  - { offsetInCU: 0x2E712, offset: 0x38547A, size: 0x8, addend: 0x0, symName: __ZN6hermes2vm28RootAndSlotAcceptorWithNames6acceptERNS0_17GCHermesValueBaseINS0_11HermesValueEEE, symObjAddr: 0x4DEC, symBinAddr: 0x29B48, symSize: 0x10 }
  - { offsetInCU: 0x2E75E, offset: 0x3854C6, size: 0x8, addend: 0x0, symName: __ZN6hermes2vm28RootAndSlotAcceptorWithNames6acceptERNS0_17GCHermesValueBaseINS0_13HermesValue32EEE, symObjAddr: 0x4E04, symBinAddr: 0x29B58, symSize: 0x10 }
  - { offsetInCU: 0x2E7AA, offset: 0x385512, size: 0x8, addend: 0x0, symName: __ZN6hermes2vm28RootAndSlotAcceptorWithNames6acceptERKNS0_10GCSymbolIDE, symObjAddr: 0x4E1C, symBinAddr: 0x29B68, symSize: 0x10 }
  - { offsetInCU: 0x2E7F6, offset: 0x38555E, size: 0x8, addend: 0x0, symName: __ZN6hermes2vm28RootAndSlotAcceptorWithNames15provideSnapshotERKNSt3__18functionIFvRNS0_12HeapSnapshotEEEE, symObjAddr: 0x4E34, symBinAddr: 0x29B78, symSize: 0x4 }
  - { offsetInCU: 0x2E851, offset: 0x3855B9, size: 0x8, addend: 0x0, symName: __ZThn8_N6hermes2vm28RootAndSlotAcceptorWithNames6acceptERNS0_13GCPointerBaseE, symObjAddr: 0x4E40, symBinAddr: 0x29B7C, symSize: 0x10 }
  - { offsetInCU: 0x2E86B, offset: 0x3855D3, size: 0x8, addend: 0x0, symName: __ZThn8_N6hermes2vm28RootAndSlotAcceptorWithNames6acceptERNS0_13GCPointerBaseE, symObjAddr: 0x4E40, symBinAddr: 0x29B7C, symSize: 0x10 }
  - { offsetInCU: 0x2E8CC, offset: 0x385634, size: 0x8, addend: 0x0, symName: __ZThn8_N6hermes2vm28RootAndSlotAcceptorWithNames6acceptERNS0_17GCHermesValueBaseINS0_11HermesValueEEE, symObjAddr: 0x4E50, symBinAddr: 0x29B8C, symSize: 0x10 }
  - { offsetInCU: 0x2E8E6, offset: 0x38564E, size: 0x8, addend: 0x0, symName: __ZThn8_N6hermes2vm28RootAndSlotAcceptorWithNames6acceptERNS0_17GCHermesValueBaseINS0_11HermesValueEEE, symObjAddr: 0x4E50, symBinAddr: 0x29B8C, symSize: 0x10 }
  - { offsetInCU: 0x2E947, offset: 0x3856AF, size: 0x8, addend: 0x0, symName: __ZThn8_N6hermes2vm28RootAndSlotAcceptorWithNames6acceptERNS0_17GCHermesValueBaseINS0_13HermesValue32EEE, symObjAddr: 0x4E60, symBinAddr: 0x29B9C, symSize: 0x10 }
  - { offsetInCU: 0x2E961, offset: 0x3856C9, size: 0x8, addend: 0x0, symName: __ZThn8_N6hermes2vm28RootAndSlotAcceptorWithNames6acceptERNS0_17GCHermesValueBaseINS0_13HermesValue32EEE, symObjAddr: 0x4E60, symBinAddr: 0x29B9C, symSize: 0x10 }
  - { offsetInCU: 0x2E9C2, offset: 0x38572A, size: 0x8, addend: 0x0, symName: __ZThn8_N6hermes2vm28RootAndSlotAcceptorWithNames6acceptERKNS0_10GCSymbolIDE, symObjAddr: 0x4E70, symBinAddr: 0x29BAC, symSize: 0x10 }
  - { offsetInCU: 0x2E9DC, offset: 0x385744, size: 0x8, addend: 0x0, symName: __ZThn8_N6hermes2vm28RootAndSlotAcceptorWithNames6acceptERKNS0_10GCSymbolIDE, symObjAddr: 0x4E70, symBinAddr: 0x29BAC, symSize: 0x10 }
  - { offsetInCU: 0x26, offset: 0x38582F, size: 0x8, addend: 0x0, symName: __ZN6hermes2vm21HashMapEntryBuildMetaEPKNS0_6GCCellERNS0_8Metadata7BuilderE, symObjAddr: 0x0, symBinAddr: 0x29BBC, symSize: 0x8C }
  - { offsetInCU: 0x44, offset: 0x38584D, size: 0x8, addend: 0x0, symName: __ZN6hermes2vm12HashMapEntry2vtE, symObjAddr: 0x1410, symBinAddr: 0x1B98F0, symSize: 0x0 }
  - { offsetInCU: 0x7589, offset: 0x38CD92, size: 0x8, addend: 0x0, symName: __ZN6hermes2vm14OrderedHashMap2vtE, symObjAddr: 0x1438, symBinAddr: 0x1B9918, symSize: 0x0 }
  - { offsetInCU: 0x7FA2, offset: 0x38D7AB, size: 0x8, addend: 0x0, symName: __ZN6hermes2vm21HashMapEntryBuildMetaEPKNS0_6GCCellERNS0_8Metadata7BuilderE, symObjAddr: 0x0, symBinAddr: 0x29BBC, symSize: 0x8C }
  - { offsetInCU: 0x8015, offset: 0x38D81E, size: 0x8, addend: 0x0, symName: __ZN6hermes2vm23OrderedHashMapBuildMetaEPKNS0_6GCCellERNS0_8Metadata7BuilderE, symObjAddr: 0x98, symBinAddr: 0x29C48, symSize: 0x64 }
  - { offsetInCU: 0x2E883, offset: 0x3B408C, size: 0x8, addend: 0x0, symName: __ZN6hermes2vm6GCBase10makeAFixedINS0_12HashMapEntryELNS0_12HasFinalizerE0ELNS0_9LongLivedE0EJEEEPT_DpOT2_, symObjAddr: 0x11EC, symBinAddr: 0x2AC7C, symSize: 0x60 }
  - { offsetInCU: 0x2EC2E, offset: 0x3B4437, size: 0x8, addend: 0x0, symName: __ZN6hermes2vm9GCPointerINS0_16ArrayStorageBaseINS0_13HermesValue32EEEEC2INS0_13GCPointerBase11YesBarriersEEERNS0_11PointerBaseEPS4_RNS0_7HadesGCET_, symObjAddr: 0x124C, symBinAddr: 0x2ACDC, symSize: 0x60 }
  - { offsetInCU: 0x2F1BC, offset: 0x3B49C5, size: 0x8, addend: 0x0, symName: __ZN6hermes2vm14OrderedHashMap6createERNS0_7RuntimeE, symObjAddr: 0x194, symBinAddr: 0x29CAC, symSize: 0x84 }
  - { offsetInCU: 0x2F4F4, offset: 0x3B4CFD, size: 0x8, addend: 0x0, symName: __ZN6hermes2vm6GCBase5makeAINS0_14OrderedHashMapELb1ELNS0_12HasFinalizerE0ELNS0_9LongLivedE0EJRNS0_7RuntimeERNS0_6HandleINS0_16ArrayStorageBaseINS0_13HermesValue32EEEEEEEEPT_jDpOT3_, symObjAddr: 0x134C, symBinAddr: 0x2AD3C, symSize: 0x90 }
  - { offsetInCU: 0x2FD27, offset: 0x3B5530, size: 0x8, addend: 0x0, symName: __ZN6hermes2vm14OrderedHashMap20removeLinkedListNodeERNS0_7RuntimeEPNS0_12HashMapEntryERNS0_7HadesGCE, symObjAddr: 0x274, symBinAddr: 0x29D30, symSize: 0x160 }
  - { offsetInCU: 0x30723, offset: 0x3B5F2C, size: 0x8, addend: 0x0, symName: __ZN6hermes2vm14OrderedHashMap14lookupInBucketERNS0_7RuntimeEjNS0_11HermesValueE, symObjAddr: 0x3D4, symBinAddr: 0x29E90, symSize: 0x94 }
  - { offsetInCU: 0x311E2, offset: 0x3B69EB, size: 0x8, addend: 0x0, symName: __ZN6hermes2vm14OrderedHashMap17rehashIfNecessaryENS0_6HandleIS1_EERNS0_7RuntimeE, symObjAddr: 0x468, symBinAddr: 0x29F24, symSize: 0x3D4 }
  - { offsetInCU: 0x32C16, offset: 0x3B841F, size: 0x8, addend: 0x0, symName: __ZN6hermes2vm9GCPointerINS0_12HashMapEntryEE3setERNS0_11PointerBaseEPS2_RNS0_7HadesGCE, symObjAddr: 0x83C, symBinAddr: 0x2A2F8, symSize: 0x5C }
  - { offsetInCU: 0x32ECB, offset: 0x3B86D4, size: 0x8, addend: 0x0, symName: __ZN6hermes2vm14OrderedHashMap3hasENS0_6HandleIS1_EERNS0_7RuntimeENS2_INS0_11HermesValueEEE, symObjAddr: 0x898, symBinAddr: 0x2A354, symSize: 0x64 }
  - { offsetInCU: 0x33006, offset: 0x3B880F, size: 0x8, addend: 0x0, symName: __ZN6hermes2vm14OrderedHashMap4findENS0_6HandleIS1_EERNS0_7RuntimeENS2_INS0_11HermesValueEEE, symObjAddr: 0x8FC, symBinAddr: 0x2A3B8, symSize: 0x58 }
  - { offsetInCU: 0x33141, offset: 0x3B894A, size: 0x8, addend: 0x0, symName: __ZN6hermes2vm14OrderedHashMap3getENS0_6HandleIS1_EERNS0_7RuntimeENS2_INS0_11HermesValueEEE, symObjAddr: 0x954, symBinAddr: 0x2A410, symSize: 0x24 }
  - { offsetInCU: 0x33341, offset: 0x3B8B4A, size: 0x8, addend: 0x0, symName: __ZN6hermes2vm14OrderedHashMap6insertENS0_6HandleIS1_EERNS0_7RuntimeENS2_INS0_11HermesValueEEES7_, symObjAddr: 0x978, symBinAddr: 0x2A434, symSize: 0x3A0 }
  - { offsetInCU: 0x34E70, offset: 0x3BA679, size: 0x8, addend: 0x0, symName: __ZN6hermes2vm14OrderedHashMap5eraseENS0_6HandleIS1_EERNS0_7RuntimeENS2_INS0_11HermesValueEEE, symObjAddr: 0xD18, symBinAddr: 0x2A7D4, symSize: 0x204 }
  - { offsetInCU: 0x3593B, offset: 0x3BB144, size: 0x8, addend: 0x0, symName: __ZN6hermes2vm12HashMapEntry11markDeletedERNS0_7RuntimeE, symObjAddr: 0xF1C, symBinAddr: 0x2A9D8, symSize: 0x9C }
  - { offsetInCU: 0x35BCD, offset: 0x3BB3D6, size: 0x8, addend: 0x0, symName: __ZNK6hermes2vm14OrderedHashMap12iteratorNextERNS0_7RuntimeEPNS0_12HashMapEntryE, symObjAddr: 0xFB8, symBinAddr: 0x2AA74, symSize: 0x64 }
  - { offsetInCU: 0x35DCD, offset: 0x3BB5D6, size: 0x8, addend: 0x0, symName: __ZN6hermes2vm14OrderedHashMap5clearERNS0_7RuntimeE, symObjAddr: 0x101C, symBinAddr: 0x2AAD8, symSize: 0x1A4 }
  - { offsetInCU: 0x26, offset: 0x3BC677, size: 0x8, addend: 0x0, symName: __ZN6hermes2vm15HandleRootOwner12markGCScopesERNS0_12RootAcceptorE, symObjAddr: 0x0, symBinAddr: 0x2ADCC, symSize: 0x38 }
  - { offsetInCU: 0x44, offset: 0x3BC695, size: 0x8, addend: 0x0, symName: __ZN6hermes2vm15HandleRootOwner12nullPointer_E, symObjAddr: 0x238, symBinAddr: 0x1B9940, symSize: 0x0 }
  - { offsetInCU: 0x58, offset: 0x3BC6A9, size: 0x8, addend: 0x0, symName: __ZN6hermes2vm15HandleRootOwner15undefinedValue_E, symObjAddr: 0x240, symBinAddr: 0x1B9948, symSize: 0x0 }
  - { offsetInCU: 0x6C, offset: 0x3BC6BD, size: 0x8, addend: 0x0, symName: __ZN6hermes2vm15HandleRootOwner10nullValue_E, symObjAddr: 0x248, symBinAddr: 0x1B9950, symSize: 0x0 }
  - { offsetInCU: 0x80, offset: 0x3BC6D1, size: 0x8, addend: 0x0, symName: __ZN6hermes2vm15HandleRootOwner11emptyValue_E, symObjAddr: 0x250, symBinAddr: 0x1B9958, symSize: 0x0 }
  - { offsetInCU: 0x94, offset: 0x3BC6E5, size: 0x8, addend: 0x0, symName: __ZN6hermes2vm15HandleRootOwner10trueValue_E, symObjAddr: 0x258, symBinAddr: 0x1B9960, symSize: 0x0 }
  - { offsetInCU: 0xA8, offset: 0x3BC6F9, size: 0x8, addend: 0x0, symName: __ZN6hermes2vm15HandleRootOwner11falseValue_E, symObjAddr: 0x260, symBinAddr: 0x1B9968, symSize: 0x0 }
  - { offsetInCU: 0xBC, offset: 0x3BC70D, size: 0x8, addend: 0x0, symName: __ZN6hermes2vm15HandleRootOwner10zeroValue_E, symObjAddr: 0x268, symBinAddr: 0x1B9970, symSize: 0x0 }
  - { offsetInCU: 0xD0, offset: 0x3BC721, size: 0x8, addend: 0x0, symName: __ZN6hermes2vm15HandleRootOwner9oneValue_E, symObjAddr: 0x270, symBinAddr: 0x1B9978, symSize: 0x0 }
  - { offsetInCU: 0x2FD7, offset: 0x3BF628, size: 0x8, addend: 0x0, symName: __ZN6hermes2vm15HandleRootOwner12markGCScopesERNS0_12RootAcceptorE, symObjAddr: 0x0, symBinAddr: 0x2ADCC, symSize: 0x38 }
  - { offsetInCU: 0x304C, offset: 0x3BF69D, size: 0x8, addend: 0x0, symName: __ZN6hermes2vm7GCScope4markERNS0_12RootAcceptorE, symObjAddr: 0x38, symBinAddr: 0x2AE04, symSize: 0x94 }
  - { offsetInCU: 0x31F9, offset: 0x3BF84A, size: 0x8, addend: 0x0, symName: __ZN6hermes2vm7GCScopeD2Ev, symObjAddr: 0xCC, symBinAddr: 0x2AE98, symSize: 0x70 }
  - { offsetInCU: 0x3372, offset: 0x3BF9C3, size: 0x8, addend: 0x0, symName: __ZN6hermes2vm7GCScopeD1Ev, symObjAddr: 0x13C, symBinAddr: 0x2AF08, symSize: 0x4 }
  - { offsetInCU: 0x33A0, offset: 0x3BF9F1, size: 0x8, addend: 0x0, symName: __ZN6hermes2vm7GCScopeD1Ev, symObjAddr: 0x13C, symBinAddr: 0x2AF08, symSize: 0x4 }
  - { offsetInCU: 0x343A, offset: 0x3BFA8B, size: 0x8, addend: 0x0, symName: __ZN6hermes2vm7GCScope15_newChunkAndPHVENS0_11HermesValueE, symObjAddr: 0x140, symBinAddr: 0x2AF0C, symSize: 0x94 }
  - { offsetInCU: 0x35FB, offset: 0x3BFC4C, size: 0x8, addend: 0x0, symName: __ZN4llvh23SmallVectorTemplateBaseIPN6hermes2vm17PinnedHermesValueELb1EE9push_backERKS4_, symObjAddr: 0x1D4, symBinAddr: 0x2AFA0, symSize: 0x60 }
  - { offsetInCU: 0x64, offset: 0x3BFE86, size: 0x8, addend: 0x0, symName: __ZN6hermes2vm9converterEPKNS0_15StringPrimitiveE, symObjAddr: 0x14, symBinAddr: 0x2B000, symSize: 0x70 }
  - { offsetInCU: 0x44, offset: 0x3C6060, size: 0x8, addend: 0x0, symName: __ZN6hermes2vm11HiddenClass2vtE, symObjAddr: 0x2DF0, symBinAddr: 0x202288, symSize: 0x0 }
  - { offsetInCU: 0x878B, offset: 0x3CE7A7, size: 0x8, addend: 0x0, symName: __ZN6hermes2vm20HiddenClassBuildMetaEPKNS0_6GCCellERNS0_8Metadata7BuilderE, symObjAddr: 0x21C, symBinAddr: 0x2B250, symSize: 0x78 }
  - { offsetInCU: 0x315D2, offset: 0x3F75EE, size: 0x8, addend: 0x0, symName: __ZN6hermes2vm6detail13TransitionMap16uncleanMakeLargeERNS0_7RuntimeE, symObjAddr: 0x3C, symBinAddr: 0x2B070, symSize: 0xE4 }
  - { offsetInCU: 0x31BC2, offset: 0x3F7BDE, size: 0x8, addend: 0x0, symName: __ZN6hermes2vm12WeakValueMapINS0_6detail10TransitionENS0_11HiddenClassEE9insertNewERNS0_7RuntimeERKS3_NS0_6HandleIS4_EE, symObjAddr: 0x120, symBinAddr: 0x2B154, symSize: 0xB8 }
  - { offsetInCU: 0x322AC, offset: 0x3F82C8, size: 0x8, addend: 0x0, symName: __ZN4llvh12DenseMapBaseINS_13SmallDenseMapIN6hermes2vm6detail10TransitionENS3_7WeakRefINS3_11HiddenClassEEELj8ENS_12DenseMapInfoIS5_EENS_6detail12DenseMapPairIS5_S8_EEEES5_S8_SA_SD_E11try_emplaceIJRNS3_7RuntimeERNS3_6HandleIS7_EEEEENSt3__14pairINS_16DenseMapIteratorIS5_S8_SA_SD_Lb0EEEbEERKS5_DpOT_, symObjAddr: 0x25E8, symBinAddr: 0x2D32C, symSize: 0xC0 }
  - { offsetInCU: 0x32510, offset: 0x3F852C, size: 0x8, addend: 0x0, symName: __ZN6hermes2vm12WeakValueMapINS0_6detail10TransitionENS0_11HiddenClassEE12pruneInvalidERNS0_7HadesGCE, symObjAddr: 0x26A8, symBinAddr: 0x2D3EC, symSize: 0x178 }
  - { offsetInCU: 0x32547, offset: 0x3F8563, size: 0x8, addend: 0x0, symName: __ZN6hermes2vm12WeakValueMapINS0_6detail10TransitionENS0_11HiddenClassEE12pruneInvalidERNS0_7HadesGCE, symObjAddr: 0x26A8, symBinAddr: 0x2D3EC, symSize: 0x178 }
  - { offsetInCU: 0x32564, offset: 0x3F8580, size: 0x8, addend: 0x0, symName: __ZN6hermes2vm12WeakValueMapINS0_6detail10TransitionENS0_11HiddenClassEE12pruneInvalidERNS0_7HadesGCE, symObjAddr: 0x26A8, symBinAddr: 0x2D3EC, symSize: 0x178 }
  - { offsetInCU: 0x32582, offset: 0x3F859E, size: 0x8, addend: 0x0, symName: __ZN6hermes2vm12WeakValueMapINS0_6detail10TransitionENS0_11HiddenClassEE12pruneInvalidERNS0_7HadesGCE, symObjAddr: 0x26A8, symBinAddr: 0x2D3EC, symSize: 0x178 }
  - { offsetInCU: 0x32CBE, offset: 0x3F8CDA, size: 0x8, addend: 0x0, symName: __ZN6hermes2vm11HiddenClass13_finalizeImplEPNS0_6GCCellERNS0_7HadesGCE, symObjAddr: 0x1D8, symBinAddr: 0x2B20C, symSize: 0x8 }
  - { offsetInCU: 0x32D03, offset: 0x3F8D1F, size: 0x8, addend: 0x0, symName: __ZN6hermes2vm11HiddenClass13_finalizeImplEPNS0_6GCCellERNS0_7HadesGCE, symObjAddr: 0x1D8, symBinAddr: 0x2B20C, symSize: 0x8 }
  - { offsetInCU: 0x32D23, offset: 0x3F8D3F, size: 0x8, addend: 0x0, symName: __ZN6hermes2vm11HiddenClass13_finalizeImplEPNS0_6GCCellERNS0_7HadesGCE, symObjAddr: 0x1D8, symBinAddr: 0x2B20C, symSize: 0x8 }
  - { offsetInCU: 0x32D6F, offset: 0x3F8D8B, size: 0x8, addend: 0x0, symName: __ZN6hermes2vm6detail13TransitionMapD2Ev, symObjAddr: 0x21C0, symBinAddr: 0x2CF04, symSize: 0x5C }
  - { offsetInCU: 0x32EEE, offset: 0x3F8F0A, size: 0x8, addend: 0x0, symName: __ZN6hermes2vm11HiddenClass15_mallocSizeImplEPNS0_6GCCellE, symObjAddr: 0x1E0, symBinAddr: 0x2B214, symSize: 0x3C }
  - { offsetInCU: 0x32F27, offset: 0x3F8F43, size: 0x8, addend: 0x0, symName: __ZN6hermes2vm11HiddenClass15_mallocSizeImplEPNS0_6GCCellE, symObjAddr: 0x1E0, symBinAddr: 0x2B214, symSize: 0x3C }
  - { offsetInCU: 0x32F46, offset: 0x3F8F62, size: 0x8, addend: 0x0, symName: __ZN6hermes2vm11HiddenClass15_mallocSizeImplEPNS0_6GCCellE, symObjAddr: 0x1E0, symBinAddr: 0x2B214, symSize: 0x3C }
  - { offsetInCU: 0x32F65, offset: 0x3F8F81, size: 0x8, addend: 0x0, symName: __ZN6hermes2vm11HiddenClass15_mallocSizeImplEPNS0_6GCCellE, symObjAddr: 0x1E0, symBinAddr: 0x2B214, symSize: 0x3C }
  - { offsetInCU: 0x3321A, offset: 0x3F9236, size: 0x8, addend: 0x0, symName: __ZN6hermes2vm11HiddenClass10createRootERNS0_7RuntimeE, symObjAddr: 0x294, symBinAddr: 0x2B2C8, symSize: 0x68 }
  - { offsetInCU: 0x33431, offset: 0x3F944D, size: 0x8, addend: 0x0, symName: __ZN6hermes2vm6GCBase5makeAINS0_11HiddenClassELb1ELNS0_12HasFinalizerE1ELNS0_9LongLivedE1EJRNS0_7RuntimeERNS0_10ClassFlagsERNS0_6HandleIS3_EERNS0_8SymbolIDERNS0_13PropertyFlagsERjEEEPT_jDpOT3_, symObjAddr: 0x2C00, symBinAddr: 0x2D944, symSize: 0x9C }
  - { offsetInCU: 0x3363F, offset: 0x3F965B, size: 0x8, addend: 0x0, symName: __ZN6hermes2vm11HiddenClass6createERNS0_7RuntimeENS0_10ClassFlagsENS0_6HandleIS1_EENS0_8SymbolIDENS0_13PropertyFlagsEj, symObjAddr: 0x2FC, symBinAddr: 0x2B330, symSize: 0x60 }
  - { offsetInCU: 0x33A68, offset: 0x3F9A84, size: 0x8, addend: 0x0, symName: __ZN6hermes2vm11HiddenClass19copyToNewDictionaryENS0_6HandleIS1_EERNS0_7RuntimeEb, symObjAddr: 0x35C, symBinAddr: 0x2B390, symSize: 0x15C }
  - { offsetInCU: 0x342AF, offset: 0x3FA2CB, size: 0x8, addend: 0x0, symName: __ZN6hermes2vm7HadesGC20snapshotWriteBarrierEPKNS0_13GCPointerBaseE, symObjAddr: 0x2388, symBinAddr: 0x2D0CC, symSize: 0x2C }
  - { offsetInCU: 0x342E6, offset: 0x3FA302, size: 0x8, addend: 0x0, symName: __ZN6hermes2vm7HadesGC20snapshotWriteBarrierEPKNS0_13GCPointerBaseE, symObjAddr: 0x2388, symBinAddr: 0x2D0CC, symSize: 0x2C }
  - { offsetInCU: 0x3430C, offset: 0x3FA328, size: 0x8, addend: 0x0, symName: __ZN6hermes2vm7HadesGC20snapshotWriteBarrierEPKNS0_13GCPointerBaseE, symObjAddr: 0x2388, symBinAddr: 0x2D0CC, symSize: 0x2C }
  - { offsetInCU: 0x3432D, offset: 0x3FA349, size: 0x8, addend: 0x0, symName: __ZN6hermes2vm7HadesGC20snapshotWriteBarrierEPKNS0_13GCPointerBaseE, symObjAddr: 0x2388, symBinAddr: 0x2D0CC, symSize: 0x2C }
  - { offsetInCU: 0x34384, offset: 0x3FA3A0, size: 0x8, addend: 0x0, symName: __ZN6hermes2vm11HiddenClass28initializeMissingPropertyMapENS0_6HandleIS1_EERNS0_7RuntimeE, symObjAddr: 0x4B8, symBinAddr: 0x2B4EC, symSize: 0x254 }
  - { offsetInCU: 0x354B2, offset: 0x3FB4CE, size: 0x8, addend: 0x0, symName: __ZN6hermes2vm11HiddenClass26stealPropertyMapFromParentENS0_6HandleIS1_EERNS0_7RuntimeE, symObjAddr: 0x2004, symBinAddr: 0x2CD48, symSize: 0x144 }
  - { offsetInCU: 0x35BBD, offset: 0x3FBBD9, size: 0x8, addend: 0x0, symName: __ZN4llvh15SmallVectorImplINSt3__14pairIN6hermes2vm8SymbolIDENS4_13PropertyFlagsEEEE12emplace_backIJRKNS4_10GCSymbolIDERS6_EEEvDpOT_, symObjAddr: 0x2148, symBinAddr: 0x2CE8C, symSize: 0x78 }
  - { offsetInCU: 0x3606E, offset: 0x3FC08A, size: 0x8, addend: 0x0, symName: __ZN6hermes2vm11HiddenClass12findPropertyENS0_12PseudoHandleIS1_EERNS0_7RuntimeENS0_8SymbolIDENS0_13PropertyFlagsERNS0_23NamedPropertyDescriptorE, symObjAddr: 0x998, symBinAddr: 0x2B740, symSize: 0x120 }
  - { offsetInCU: 0x365FA, offset: 0x3FC616, size: 0x8, addend: 0x0, symName: __ZN6hermes2vm6detail13TransitionMap11containsKeyERKNS1_10TransitionERNS0_7HadesGCE, symObjAddr: 0xAB8, symBinAddr: 0x2B860, symSize: 0x90 }
  - { offsetInCU: 0x369FE, offset: 0x3FCA1A, size: 0x8, addend: 0x0, symName: __ZN6hermes2vm12WeakValueMapINS0_6detail10TransitionENS0_11HiddenClassEE12internalFindERKS3_, symObjAddr: 0x23B4, symBinAddr: 0x2D0F8, symSize: 0x74 }
  - { offsetInCU: 0x36CE4, offset: 0x3FCD00, size: 0x8, addend: 0x0, symName: __ZN6hermes2vm15DictPropertyMap4findEPKS1_NS0_8SymbolIDE, symObjAddr: 0xB48, symBinAddr: 0x2B8F0, symSize: 0x54 }
  - { offsetInCU: 0x36ECF, offset: 0x3FCEEB, size: 0x8, addend: 0x0, symName: __ZN6hermes2vm11HiddenClass19findPropertyNoAllocEPS1_RNS0_11PointerBaseENS0_8SymbolIDE, symObjAddr: 0xB9C, symBinAddr: 0x2B944, symSize: 0xF4 }
  - { offsetInCU: 0x3746D, offset: 0x3FD489, size: 0x8, addend: 0x0, symName: __ZN6hermes2vm11HiddenClass14deletePropertyENS0_6HandleIS1_EERNS0_7RuntimeENS0_15DictPropertyMap11PropertyPosE, symObjAddr: 0xCF4, symBinAddr: 0x2BA38, symSize: 0x98 }
  - { offsetInCU: 0x37929, offset: 0x3FD945, size: 0x8, addend: 0x0, symName: __ZN6hermes2vm11HiddenClass11addPropertyENS0_6HandleIS1_EERNS0_7RuntimeENS0_8SymbolIDENS0_13PropertyFlagsE, symObjAddr: 0xD8C, symBinAddr: 0x2BAD0, symSize: 0x4A4 }
  - { offsetInCU: 0x39537, offset: 0x3FF553, size: 0x8, addend: 0x0, symName: __ZN6hermes2vm6detail13TransitionMap6lookupERNS0_7RuntimeERKNS1_10TransitionE, symObjAddr: 0x1360, symBinAddr: 0x2C0A4, symSize: 0x90 }
  - { offsetInCU: 0x397C3, offset: 0x3FF7DF, size: 0x8, addend: 0x0, symName: __ZN6hermes2vm11HiddenClass16addToPropertyMapENS0_6HandleIS1_EERNS0_7RuntimeENS0_8SymbolIDENS0_23NamedPropertyDescriptorE, symObjAddr: 0x1230, symBinAddr: 0x2BF74, symSize: 0x130 }
  - { offsetInCU: 0x39F56, offset: 0x3FFF72, size: 0x8, addend: 0x0, symName: __ZN6hermes2vm6detail13TransitionMap9insertNewERNS0_7RuntimeERKNS1_10TransitionENS0_6HandleINS0_11HiddenClassEEE, symObjAddr: 0x13F0, symBinAddr: 0x2C134, symSize: 0xEC }
  - { offsetInCU: 0x3A3FC, offset: 0x400418, size: 0x8, addend: 0x0, symName: __ZN6hermes2vm12WeakValueMapINS0_6detail10TransitionENS0_11HiddenClassEE6lookupERNS0_7RuntimeERKS3_, symObjAddr: 0x2560, symBinAddr: 0x2D2A4, symSize: 0x88 }
  - { offsetInCU: 0x3A6E7, offset: 0x400703, size: 0x8, addend: 0x0, symName: __ZN6hermes2vm11HiddenClass14updatePropertyENS0_6HandleIS1_EERNS0_7RuntimeENS0_15DictPropertyMap11PropertyPosENS0_13PropertyFlagsE, symObjAddr: 0x14DC, symBinAddr: 0x2C220, symSize: 0x2F4 }
  - { offsetInCU: 0x3BB8A, offset: 0x401BA6, size: 0x8, addend: 0x0, symName: __ZN6hermes2vm11HiddenClass22makeAllNonConfigurableENS0_6HandleIS1_EERNS0_7RuntimeE, symObjAddr: 0x17D0, symBinAddr: 0x2C514, symSize: 0x1E0 }
  - { offsetInCU: 0x3CC33, offset: 0x402C4F, size: 0x8, addend: 0x0, symName: __ZN6hermes2vm11HiddenClass15makeAllReadOnlyENS0_6HandleIS1_EERNS0_7RuntimeE, symObjAddr: 0x19B0, symBinAddr: 0x2C6F4, symSize: 0x1FC }
  - { offsetInCU: 0x3DBAA, offset: 0x403BC6, size: 0x8, addend: 0x0, symName: __ZN6hermes2vm11HiddenClass37updatePropertyFlagsWithoutTransitionsENS0_6HandleIS1_EERNS0_7RuntimeENS0_13PropertyFlagsES6_NS_8OptValueIN4llvh8ArrayRefINS0_8SymbolIDEEEEE, symObjAddr: 0x1BAC, symBinAddr: 0x2C8F0, symSize: 0x1F4 }
  - { offsetInCU: 0x3E902, offset: 0x40491E, size: 0x8, addend: 0x0, symName: __ZN6hermes2vm11HiddenClass11reserveSlotENS0_6HandleIS1_EERNS0_7RuntimeE, symObjAddr: 0x1DA0, symBinAddr: 0x2CAE4, symSize: 0x18 }
  - { offsetInCU: 0x3E948, offset: 0x404964, size: 0x8, addend: 0x0, symName: __ZN6hermes2vm11HiddenClass11reserveSlotENS0_6HandleIS1_EERNS0_7RuntimeE, symObjAddr: 0x1DA0, symBinAddr: 0x2CAE4, symSize: 0x18 }
  - { offsetInCU: 0x3E95E, offset: 0x40497A, size: 0x8, addend: 0x0, symName: __ZN6hermes2vm11HiddenClass11reserveSlotENS0_6HandleIS1_EERNS0_7RuntimeE, symObjAddr: 0x1DA0, symBinAddr: 0x2CAE4, symSize: 0x18 }
  - { offsetInCU: 0x3EA37, offset: 0x404A53, size: 0x8, addend: 0x0, symName: __ZN6hermes2vm11HiddenClass21areAllNonConfigurableENS0_6HandleIS1_EERNS0_7RuntimeE, symObjAddr: 0x1DB8, symBinAddr: 0x2CAFC, symSize: 0x11C }
  - { offsetInCU: 0x3F24F, offset: 0x40526B, size: 0x8, addend: 0x0, symName: __ZN6hermes2vm11HiddenClass14areAllReadOnlyENS0_6HandleIS1_EERNS0_7RuntimeE, symObjAddr: 0x1ED4, symBinAddr: 0x2CC18, symSize: 0x130 }
  - { offsetInCU: 0x3FBCF, offset: 0x405BEB, size: 0x8, addend: 0x0, symName: __ZN6hermes2vm12WeakValueMapINS0_6detail10TransitionENS0_11HiddenClassEED2Ev, symObjAddr: 0x221C, symBinAddr: 0x2CF60, symSize: 0x16C }
  - { offsetInCU: 0x4040D, offset: 0x406429, size: 0x8, addend: 0x0, symName: __ZN4llvh12DenseMapBaseINS_13SmallDenseMapIN6hermes2vm6detail10TransitionENS3_7WeakRefINS3_11HiddenClassEEELj8ENS_12DenseMapInfoIS5_EENS_6detail12DenseMapPairIS5_S8_EEEES5_S8_SA_SD_E4findERKS5_, symObjAddr: 0x2428, symBinAddr: 0x2D16C, symSize: 0x6C }
  - { offsetInCU: 0x40699, offset: 0x4066B5, size: 0x8, addend: 0x0, symName: __ZNK4llvh12DenseMapBaseINS_13SmallDenseMapIN6hermes2vm6detail10TransitionENS3_7WeakRefINS3_11HiddenClassEEELj8ENS_12DenseMapInfoIS5_EENS_6detail12DenseMapPairIS5_S8_EEEES5_S8_SA_SD_E15LookupBucketForIS5_EEbRKT_RPKSD_, symObjAddr: 0x2494, symBinAddr: 0x2D1D8, symSize: 0xCC }
  - { offsetInCU: 0x40756, offset: 0x406772, size: 0x8, addend: 0x0, symName: __ZNK4llvh12DenseMapBaseINS_13SmallDenseMapIN6hermes2vm6detail10TransitionENS3_7WeakRefINS3_11HiddenClassEEELj8ENS_12DenseMapInfoIS5_EENS_6detail12DenseMapPairIS5_S8_EEEES5_S8_SA_SD_E15LookupBucketForIS5_EEbRKT_RPKSD_, symObjAddr: 0x2494, symBinAddr: 0x2D1D8, symSize: 0xCC }
  - { offsetInCU: 0x40774, offset: 0x406790, size: 0x8, addend: 0x0, symName: __ZNK4llvh12DenseMapBaseINS_13SmallDenseMapIN6hermes2vm6detail10TransitionENS3_7WeakRefINS3_11HiddenClassEEELj8ENS_12DenseMapInfoIS5_EENS_6detail12DenseMapPairIS5_S8_EEEES5_S8_SA_SD_E15LookupBucketForIS5_EEbRKT_RPKSD_, symObjAddr: 0x2494, symBinAddr: 0x2D1D8, symSize: 0xCC }
  - { offsetInCU: 0x40947, offset: 0x406963, size: 0x8, addend: 0x0, symName: __ZN4llvh12DenseMapBaseINS_13SmallDenseMapIN6hermes2vm6detail10TransitionENS3_7WeakRefINS3_11HiddenClassEEELj8ENS_12DenseMapInfoIS5_EENS_6detail12DenseMapPairIS5_S8_EEEES5_S8_SA_SD_E16InsertIntoBucketIRKS5_JRNS3_7RuntimeERNS3_6HandleIS7_EEEEEPSD_SO_OT_DpOT0_, symObjAddr: 0x2820, symBinAddr: 0x2D564, symSize: 0x84 }
  - { offsetInCU: 0x40CF0, offset: 0x406D0C, size: 0x8, addend: 0x0, symName: __ZN4llvh12DenseMapBaseINS_13SmallDenseMapIN6hermes2vm6detail10TransitionENS3_7WeakRefINS3_11HiddenClassEEELj8ENS_12DenseMapInfoIS5_EENS_6detail12DenseMapPairIS5_S8_EEEES5_S8_SA_SD_E20InsertIntoBucketImplIS5_EEPSD_RKS5_RKT_SH_, symObjAddr: 0x28A4, symBinAddr: 0x2D5E8, symSize: 0xC4 }
  - { offsetInCU: 0x410D9, offset: 0x4070F5, size: 0x8, addend: 0x0, symName: __ZN4llvh13SmallDenseMapIN6hermes2vm6detail10TransitionENS2_7WeakRefINS2_11HiddenClassEEELj8ENS_12DenseMapInfoIS4_EENS_6detail12DenseMapPairIS4_S7_EEE4growEj, symObjAddr: 0x2968, symBinAddr: 0x2D6AC, symSize: 0x19C }
  - { offsetInCU: 0x4135A, offset: 0x407376, size: 0x8, addend: 0x0, symName: __ZN4llvh12DenseMapBaseINS_13SmallDenseMapIN6hermes2vm6detail10TransitionENS3_7WeakRefINS3_11HiddenClassEEELj8ENS_12DenseMapInfoIS5_EENS_6detail12DenseMapPairIS5_S8_EEEES5_S8_SA_SD_E18moveFromOldBucketsEPSD_SG_, symObjAddr: 0x2B04, symBinAddr: 0x2D848, symSize: 0xFC }
  - { offsetInCU: 0x417F2, offset: 0x40780E, size: 0x8, addend: 0x0, symName: __ZN6hermes2vm6GCBase13constructCellINS0_11HiddenClassEJRNS0_7RuntimeERNS0_10ClassFlagsERNS0_6HandleIS3_EERNS0_8SymbolIDERNS0_13PropertyFlagsERjEEEPT_PvjDpOT0_, symObjAddr: 0x2C9C, symBinAddr: 0x2D9E0, symSize: 0x88 }
  - { offsetInCU: 0x421CB, offset: 0x4081E7, size: 0x8, addend: 0x0, symName: __ZN6hermes2vm9GCPointerINS0_11HiddenClassEEC2INS0_13GCPointerBase11YesBarriersEEERNS0_11PointerBaseEPS2_RNS0_7HadesGCET_, symObjAddr: 0x2D24, symBinAddr: 0x2DA68, symSize: 0x60 }
  - { offsetInCU: 0x26, offset: 0x4084F4, size: 0x8, addend: 0x0, symName: __ZN6hermes2vm15IdentifierTable11LookupEntryC2EPNS0_15StringPrimitiveEb, symObjAddr: 0x0, symBinAddr: 0x2DAC8, symSize: 0xB0 }
  - { offsetInCU: 0x2C076, offset: 0x434544, size: 0x8, addend: 0x0, symName: __ZNSt3__119__allocate_at_leastB7v160006INS_9allocatorIN6hermes2vm15IdentifierTable11LookupEntryEEEEENS_19__allocation_resultINS_16allocator_traitsIT_E7pointerEEERS9_m, symObjAddr: 0x2330, symBinAddr: 0x2F8A0, symSize: 0x34 }
  - { offsetInCU: 0x2C122, offset: 0x4345F0, size: 0x8, addend: 0x0, symName: __ZN6hermes2vm6GCBase5makeAINS0_22DynamicStringPrimitiveIcLb0EEELb0ELNS0_12HasFinalizerE0ELNS0_9LongLivedE1EJRmEEEPT_jDpOT3_, symObjAddr: 0x2364, symBinAddr: 0x2F8D4, symSize: 0x68 }
  - { offsetInCU: 0x2C3A1, offset: 0x43486F, size: 0x8, addend: 0x0, symName: __ZN6hermes2vm6GCBase5makeAINS0_22DynamicStringPrimitiveIDsLb1EEELb0ELNS0_12HasFinalizerE0ELNS0_9LongLivedE1EJRmEEEPT_jDpOT3_, symObjAddr: 0x2224, symBinAddr: 0x2F794, symSize: 0x70 }
  - { offsetInCU: 0x30A08, offset: 0x438ED6, size: 0x8, addend: 0x0, symName: __ZN6hermes2vm15IdentifierTable11LookupEntryC2EPNS0_15StringPrimitiveEb, symObjAddr: 0x0, symBinAddr: 0x2DAC8, symSize: 0xB0 }
  - { offsetInCU: 0x30E63, offset: 0x439331, size: 0x8, addend: 0x0, symName: __ZN6hermes2vm15IdentifierTableC1Ev, symObjAddr: 0x108, symBinAddr: 0x2DB78, symSize: 0x54 }
  - { offsetInCU: 0x31204, offset: 0x4396D2, size: 0x8, addend: 0x0, symName: __ZN6hermes2vm15IdentifierTable15getSymbolHandleERNS0_7RuntimeEN4llvh8ArrayRefIDsEEj, symObjAddr: 0x15C, symBinAddr: 0x2DBCC, symSize: 0x70 }
  - { offsetInCU: 0x31465, offset: 0x439933, size: 0x8, addend: 0x0, symName: __ZN6hermes2vm15IdentifierTable21getOrCreateIdentifierIDsEENS0_10CallResultINS0_8SymbolIDELNS0_6detail20CallResultSpecializeE0EEERNS0_7RuntimeEN4llvh8ArrayRefIT_EENS0_6HandleINS0_15StringPrimitiveEEEj, symObjAddr: 0x1CC, symBinAddr: 0x2DC3C, symSize: 0x120 }
  - { offsetInCU: 0x319B1, offset: 0x439E7F, size: 0x8, addend: 0x0, symName: __ZN6hermes2vm15IdentifierTable21allocateDynamicStringIDsLb1EEENS0_10CallResultINS0_12PseudoHandleINS0_15StringPrimitiveEEELNS0_6detail20CallResultSpecializeE6EEERNS0_7RuntimeEN4llvh8ArrayRefIT_EENS0_6HandleIS5_EE, symObjAddr: 0x107C, symBinAddr: 0x2E940, symSize: 0x1B8 }
  - { offsetInCU: 0x32227, offset: 0x43A6F5, size: 0x8, addend: 0x0, symName: __ZN6hermes2vm15IdentifierTable16allocIDAndInsertEjPNS0_15StringPrimitiveE, symObjAddr: 0xC80, symBinAddr: 0x2E678, symSize: 0x74 }
  - { offsetInCU: 0x32348, offset: 0x43A816, size: 0x8, addend: 0x0, symName: __ZN6hermes2vm15IdentifierTable15getSymbolHandleERNS0_7RuntimeEN4llvh8ArrayRefIcEEj, symObjAddr: 0x2EC, symBinAddr: 0x2DD5C, symSize: 0x70 }
  - { offsetInCU: 0x325A9, offset: 0x43AA77, size: 0x8, addend: 0x0, symName: __ZN6hermes2vm15IdentifierTable21getOrCreateIdentifierIcEENS0_10CallResultINS0_8SymbolIDELNS0_6detail20CallResultSpecializeE0EEERNS0_7RuntimeEN4llvh8ArrayRefIT_EENS0_6HandleINS0_15StringPrimitiveEEEj, symObjAddr: 0x35C, symBinAddr: 0x2DDCC, symSize: 0x120 }
  - { offsetInCU: 0x3290B, offset: 0x43ADD9, size: 0x8, addend: 0x0, symName: __ZN6hermes2vm15IdentifierTable21allocateDynamicStringIcLb1EEENS0_10CallResultINS0_12PseudoHandleINS0_15StringPrimitiveEEELNS0_6detail20CallResultSpecializeE6EEERNS0_7RuntimeEN4llvh8ArrayRefIT_EENS0_6HandleIS5_EE, symObjAddr: 0xEC8, symBinAddr: 0x2E78C, symSize: 0x1B4 }
  - { offsetInCU: 0x33172, offset: 0x43B640, size: 0x8, addend: 0x0, symName: __ZN6hermes2vm15IdentifierTable26registerLazyIdentifierImplIcEENS0_8SymbolIDEN4llvh8ArrayRefIT_EEj, symObjAddr: 0x4A8, symBinAddr: 0x2DEEC, symSize: 0x10C }
  - { offsetInCU: 0x335B5, offset: 0x43BA83, size: 0x8, addend: 0x0, symName: __ZN6hermes2vm15IdentifierTable11allocNextIDEv, symObjAddr: 0xCF4, symBinAddr: 0x2E6EC, symSize: 0xA0 }
  - { offsetInCU: 0x33773, offset: 0x43BC41, size: 0x8, addend: 0x0, symName: __ZN6hermes2vm15IdentifierTable22registerLazyIdentifierEN4llvh8ArrayRefIcEEj, symObjAddr: 0x5B4, symBinAddr: 0x2DFF8, symSize: 0x4 }
  - { offsetInCU: 0x337B7, offset: 0x43BC85, size: 0x8, addend: 0x0, symName: __ZN6hermes2vm15IdentifierTable22registerLazyIdentifierEN4llvh8ArrayRefIcEEj, symObjAddr: 0x5B4, symBinAddr: 0x2DFF8, symSize: 0x4 }
  - { offsetInCU: 0x3383F, offset: 0x43BD0D, size: 0x8, addend: 0x0, symName: __ZN6hermes2vm15IdentifierTable26registerLazyIdentifierImplIDsEENS0_8SymbolIDEN4llvh8ArrayRefIT_EEj, symObjAddr: 0x5E4, symBinAddr: 0x2DFFC, symSize: 0x110 }
  - { offsetInCU: 0x33C2B, offset: 0x43C0F9, size: 0x8, addend: 0x0, symName: __ZN6hermes2vm15IdentifierTable22registerLazyIdentifierEN4llvh8ArrayRefIDsEEj, symObjAddr: 0x6F4, symBinAddr: 0x2E10C, symSize: 0x4 }
  - { offsetInCU: 0x33C6F, offset: 0x43C13D, size: 0x8, addend: 0x0, symName: __ZN6hermes2vm15IdentifierTable22registerLazyIdentifierEN4llvh8ArrayRefIDsEEj, symObjAddr: 0x6F4, symBinAddr: 0x2E10C, symSize: 0x4 }
  - { offsetInCU: 0x33EC8, offset: 0x43C396, size: 0x8, addend: 0x0, symName: __ZN6hermes2vm15IdentifierTable28getSymbolHandleFromPrimitiveERNS0_7RuntimeENS0_12PseudoHandleINS0_15StringPrimitiveEEE, symObjAddr: 0x6F8, symBinAddr: 0x2E110, symSize: 0x130 }
  - { offsetInCU: 0x344F1, offset: 0x43C9BF, size: 0x8, addend: 0x0, symName: __ZNK6hermes2vm15StringPrimitive14castToASCIIRefEjj, symObjAddr: 0x1B50, symBinAddr: 0x2F36C, symSize: 0x70 }
  - { offsetInCU: 0x34552, offset: 0x43CA20, size: 0x8, addend: 0x0, symName: __ZNK6hermes2vm15StringPrimitive14castToASCIIRefEjj, symObjAddr: 0x1B50, symBinAddr: 0x2F36C, symSize: 0x70 }
  - { offsetInCU: 0x34570, offset: 0x43CA3E, size: 0x8, addend: 0x0, symName: __ZNK6hermes2vm15StringPrimitive14castToASCIIRefEjj, symObjAddr: 0x1B50, symBinAddr: 0x2F36C, symSize: 0x70 }
  - { offsetInCU: 0x3458E, offset: 0x43CA5C, size: 0x8, addend: 0x0, symName: __ZNK6hermes2vm15StringPrimitive14castToASCIIRefEjj, symObjAddr: 0x1B50, symBinAddr: 0x2F36C, symSize: 0x70 }
  - { offsetInCU: 0x348F0, offset: 0x43CDBE, size: 0x8, addend: 0x0, symName: __ZN6hermes2vm15IdentifierTable21getOrCreateIdentifierIcEENS0_10CallResultINS0_8SymbolIDELNS0_6detail20CallResultSpecializeE0EEERNS0_7RuntimeEN4llvh8ArrayRefIT_EENS0_6HandleINS0_15StringPrimitiveEEE, symObjAddr: 0x848, symBinAddr: 0x2E240, symSize: 0x2C }
  - { offsetInCU: 0x34A2A, offset: 0x43CEF8, size: 0x8, addend: 0x0, symName: __ZNK6hermes2vm15StringPrimitive14castToUTF16RefEjj, symObjAddr: 0x1BC0, symBinAddr: 0x2F3DC, symSize: 0x70 }
  - { offsetInCU: 0x34A8B, offset: 0x43CF59, size: 0x8, addend: 0x0, symName: __ZNK6hermes2vm15StringPrimitive14castToUTF16RefEjj, symObjAddr: 0x1BC0, symBinAddr: 0x2F3DC, symSize: 0x70 }
  - { offsetInCU: 0x34AA9, offset: 0x43CF77, size: 0x8, addend: 0x0, symName: __ZNK6hermes2vm15StringPrimitive14castToUTF16RefEjj, symObjAddr: 0x1BC0, symBinAddr: 0x2F3DC, symSize: 0x70 }
  - { offsetInCU: 0x34AC7, offset: 0x43CF95, size: 0x8, addend: 0x0, symName: __ZNK6hermes2vm15StringPrimitive14castToUTF16RefEjj, symObjAddr: 0x1BC0, symBinAddr: 0x2F3DC, symSize: 0x70 }
  - { offsetInCU: 0x34E29, offset: 0x43D2F7, size: 0x8, addend: 0x0, symName: __ZN6hermes2vm15IdentifierTable21getOrCreateIdentifierIDsEENS0_10CallResultINS0_8SymbolIDELNS0_6detail20CallResultSpecializeE0EEERNS0_7RuntimeEN4llvh8ArrayRefIT_EENS0_6HandleINS0_15StringPrimitiveEEE, symObjAddr: 0x874, symBinAddr: 0x2E26C, symSize: 0x2C }
  - { offsetInCU: 0x34FD5, offset: 0x43D4A3, size: 0x8, addend: 0x0, symName: __ZN6hermes2vm15IdentifierTable13getStringPrimERNS0_7RuntimeENS0_8SymbolIDE, symObjAddr: 0x8A0, symBinAddr: 0x2E298, symSize: 0x34 }
  - { offsetInCU: 0x3502A, offset: 0x43D4F8, size: 0x8, addend: 0x0, symName: __ZN6hermes2vm15IdentifierTable13getStringPrimERNS0_7RuntimeENS0_8SymbolIDE, symObjAddr: 0x8A0, symBinAddr: 0x2E298, symSize: 0x34 }
  - { offsetInCU: 0x35048, offset: 0x43D516, size: 0x8, addend: 0x0, symName: __ZN6hermes2vm15IdentifierTable13getStringPrimERNS0_7RuntimeENS0_8SymbolIDE, symObjAddr: 0x8A0, symBinAddr: 0x2E298, symSize: 0x34 }
  - { offsetInCU: 0x350CD, offset: 0x43D59B, size: 0x8, addend: 0x0, symName: __ZN6hermes2vm15IdentifierTable25materializeLazyIdentifierERNS0_7RuntimeENS0_8SymbolIDE, symObjAddr: 0x8D4, symBinAddr: 0x2E2CC, symSize: 0x98 }
  - { offsetInCU: 0x3526B, offset: 0x43D739, size: 0x8, addend: 0x0, symName: __ZNK6hermes2vm15IdentifierTable13getStringViewERNS0_7RuntimeENS0_8SymbolIDE, symObjAddr: 0x96C, symBinAddr: 0x2E364, symSize: 0x90 }
  - { offsetInCU: 0x353A3, offset: 0x43D871, size: 0x8, addend: 0x0, symName: __ZNK6hermes2vm15IdentifierTable13getStringViewERNS0_7RuntimeENS0_8SymbolIDE, symObjAddr: 0x96C, symBinAddr: 0x2E364, symSize: 0x90 }
  - { offsetInCU: 0x356AB, offset: 0x43DB79, size: 0x8, addend: 0x0, symName: __ZNK6hermes2vm15IdentifierTable19getStringViewForDevERNS0_7RuntimeENS0_8SymbolIDE, symObjAddr: 0x9FC, symBinAddr: 0x2E3F4, symSize: 0x80 }
  - { offsetInCU: 0x35847, offset: 0x43DD15, size: 0x8, addend: 0x0, symName: __ZN6hermes2vm15IdentifierTable19convertSymbolToUTF8ENS0_8SymbolIDE, symObjAddr: 0xA7C, symBinAddr: 0x2E474, symSize: 0xE0 }
  - { offsetInCU: 0x35F3F, offset: 0x43E40D, size: 0x8, addend: 0x0, symName: __ZN6hermes2vm15IdentifierTable15markIdentifiersERNS0_12RootAcceptorERNS0_7HadesGCE, symObjAddr: 0xB5C, symBinAddr: 0x2E554, symSize: 0x64 }
  - { offsetInCU: 0x360BA, offset: 0x43E588, size: 0x8, addend: 0x0, symName: __ZN6hermes2vm15IdentifierTable16visitIdentifiersERKNSt3__18functionIFvNS0_8SymbolIDEPKNS0_15StringPrimitiveEEEE, symObjAddr: 0xBC0, symBinAddr: 0x2E5B8, symSize: 0x80 }
  - { offsetInCU: 0x361EC, offset: 0x43E6BA, size: 0x8, addend: 0x0, symName: __ZNKSt3__18functionIFvN6hermes2vm8SymbolIDEPKNS2_15StringPrimitiveEEEclES3_S6_, symObjAddr: 0xC40, symBinAddr: 0x2E638, symSize: 0x40 }
  - { offsetInCU: 0x36281, offset: 0x43E74F, size: 0x8, addend: 0x0, symName: __ZN6hermes2vm15IdentifierTable16allocIDAndInsertEjPNS0_15StringPrimitiveE, symObjAddr: 0xC80, symBinAddr: 0x2E678, symSize: 0x74 }
  - { offsetInCU: 0x3630C, offset: 0x43E7DA, size: 0x8, addend: 0x0, symName: __ZN6hermes2vm15IdentifierTable18ConservativeVectorINS1_11LookupEntryEE12emplace_backEv, symObjAddr: 0x12D4, symBinAddr: 0x2EB74, symSize: 0x120 }
  - { offsetInCU: 0x368AE, offset: 0x43ED7C, size: 0x8, addend: 0x0, symName: __ZN4llvh9BitVector9push_backEb, symObjAddr: 0x13F4, symBinAddr: 0x2EC94, symSize: 0x74 }
  - { offsetInCU: 0x373E2, offset: 0x43F8B0, size: 0x8, addend: 0x0, symName: __ZN6hermes2vm6GCBase5makeAINS0_22DynamicStringPrimitiveIcLb1EEELb0ELNS0_12HasFinalizerE0ELNS0_9LongLivedE1EJRmEEEPT_jDpOT3_, symObjAddr: 0x2084, symBinAddr: 0x2F698, symSize: 0x70 }
  - { offsetInCU: 0x37BB4, offset: 0x440082, size: 0x8, addend: 0x0, symName: __ZNSt3__112basic_stringIDsNS_11char_traitsIDsEENS_9allocatorIDsEEEC2B7v160006IPKDsvEET_S9_, symObjAddr: 0x2168, symBinAddr: 0x2F708, symSize: 0x8C }
  - { offsetInCU: 0x37DBB, offset: 0x440289, size: 0x8, addend: 0x0, symName: __ZN6hermes2vm6GCBase5makeAINS0_22DynamicStringPrimitiveIDsLb1EEELb0ELNS0_12HasFinalizerE0ELNS0_9LongLivedE1EJRmEEEPT_jDpOT3_, symObjAddr: 0x2224, symBinAddr: 0x2F794, symSize: 0x70 }
  - { offsetInCU: 0x38325, offset: 0x4407F3, size: 0x8, addend: 0x0, symName: __ZN6hermes2vm15IdentifierTable10freeSymbolEj, symObjAddr: 0x1234, symBinAddr: 0x2EAF8, symSize: 0x7C }
  - { offsetInCU: 0x38884, offset: 0x440D52, size: 0x8, addend: 0x0, symName: __ZNSt3__16vectorIN6hermes2vm15IdentifierTable11LookupEntryENS_9allocatorIS4_EEE7reserveEm, symObjAddr: 0x2294, symBinAddr: 0x2F804, symSize: 0x9C }
  - { offsetInCU: 0x38C3E, offset: 0x44110C, size: 0x8, addend: 0x0, symName: __ZN4llvh9BitVector6resizeEjb, symObjAddr: 0x1C30, symBinAddr: 0x2F44C, symSize: 0xB4 }
  - { offsetInCU: 0x38E93, offset: 0x441361, size: 0x8, addend: 0x0, symName: __ZN6hermes2vm15IdentifierTable13unmarkSymbolsEv, symObjAddr: 0x1468, symBinAddr: 0x2ED08, symSize: 0x18 }
  - { offsetInCU: 0x38EBF, offset: 0x44138D, size: 0x8, addend: 0x0, symName: __ZN6hermes2vm15IdentifierTable13unmarkSymbolsEv, symObjAddr: 0x1468, symBinAddr: 0x2ED08, symSize: 0x18 }
  - { offsetInCU: 0x38FF3, offset: 0x4414C1, size: 0x8, addend: 0x0, symName: __ZN6hermes2vm15IdentifierTable19freeUnmarkedSymbolsERKN4llvh9BitVectorERNS0_6GCBase9IDTrackerE, symObjAddr: 0x1480, symBinAddr: 0x2ED20, symSize: 0xEC }
  - { offsetInCU: 0x3927E, offset: 0x44174C, size: 0x8, addend: 0x0, symName: __ZN4llvh9BitVectoroRERKS0_, symObjAddr: 0x156C, symBinAddr: 0x2EE0C, symSize: 0x74 }
  - { offsetInCU: 0x3937E, offset: 0x44184C, size: 0x8, addend: 0x0, symName: __ZN4llvh9BitVector4flipEv, symObjAddr: 0x15E0, symBinAddr: 0x2EE80, symSize: 0x58 }
  - { offsetInCU: 0x39400, offset: 0x4418CE, size: 0x8, addend: 0x0, symName: __ZNK4llvh9BitVector13find_first_inEjj, symObjAddr: 0x1DDC, symBinAddr: 0x2F5F8, symSize: 0xA0 }
  - { offsetInCU: 0x39514, offset: 0x4419E2, size: 0x8, addend: 0x0, symName: __ZN4llvh9BitVector15set_unused_bitsEb, symObjAddr: 0x1D4C, symBinAddr: 0x2F568, symSize: 0x90 }
  - { offsetInCU: 0x39753, offset: 0x441C21, size: 0x8, addend: 0x0, symName: __ZN6hermes2vm15IdentifierTable26createNotUniquedLazySymbolEN4llvh8ArrayRefIcEE, symObjAddr: 0x1638, symBinAddr: 0x2EED8, symSize: 0x4C }
  - { offsetInCU: 0x398E7, offset: 0x441DB5, size: 0x8, addend: 0x0, symName: __ZN6hermes2vm15IdentifierTable22createNotUniquedSymbolERNS0_7RuntimeENS0_6HandleINS0_15StringPrimitiveEEE, symObjAddr: 0x1684, symBinAddr: 0x2EF24, symSize: 0xDC }
  - { offsetInCU: 0x39B62, offset: 0x442030, size: 0x8, addend: 0x0, symName: __ZN6hermes2vm15IdentifierTable21allocateDynamicStringIcLb0EEENS0_10CallResultINS0_12PseudoHandleINS0_15StringPrimitiveEEELNS0_6detail20CallResultSpecializeE6EEERNS0_7RuntimeEN4llvh8ArrayRefIT_EENS0_6HandleIS5_EE, symObjAddr: 0x1760, symBinAddr: 0x2F000, symSize: 0x1B4 }
  - { offsetInCU: 0x3A367, offset: 0x442835, size: 0x8, addend: 0x0, symName: __ZN6hermes2vm15IdentifierTable21allocateDynamicStringIDsLb0EEENS0_10CallResultINS0_12PseudoHandleINS0_15StringPrimitiveEEELNS0_6detail20CallResultSpecializeE6EEERNS0_7RuntimeEN4llvh8ArrayRefIT_EENS0_6HandleIS5_EE, symObjAddr: 0x1914, symBinAddr: 0x2F1B4, symSize: 0x1B8 }
  - { offsetInCU: 0x3ACF4, offset: 0x4431C2, size: 0x8, addend: 0x0, symName: __ZN6hermes2vm6GCBase5makeAINS0_22DynamicStringPrimitiveIcLb0EEELb0ELNS0_12HasFinalizerE0ELNS0_9LongLivedE1EJRmEEEPT_jDpOT3_, symObjAddr: 0x2364, symBinAddr: 0x2F8D4, symSize: 0x68 }
  - { offsetInCU: 0x3B08D, offset: 0x44355B, size: 0x8, addend: 0x0, symName: __ZN6hermes2vm6GCBase5makeAINS0_22DynamicStringPrimitiveIDsLb0EEELb0ELNS0_12HasFinalizerE0ELNS0_9LongLivedE1EJRmEEEPT_jDpOT3_, symObjAddr: 0x23CC, symBinAddr: 0x2F93C, symSize: 0x68 }
  - { offsetInCU: 0x3B73B, offset: 0x443C09, size: 0x8, addend: 0x0, symName: __ZN4llvh9BitVector4growEj, symObjAddr: 0x1CE4, symBinAddr: 0x2F500, symSize: 0x68 }
  - { offsetInCU: 0x26, offset: 0x444766, size: 0x8, addend: 0x0, symName: __ZN6hermes2vm11Interpreter19createGenerator_RJSERNS0_7RuntimeEPNS0_13RuntimeModuleEjNS0_6HandleINS0_11EnvironmentEEENS0_10NativeArgsE, symObjAddr: 0x0, symBinAddr: 0x2F9A4, symSize: 0x1C8 }
  - { offsetInCU: 0x36699, offset: 0x47ADD9, size: 0x8, addend: 0x0, symName: __ZN6hermes2vm11Interpreter17interpretFunctionILb0ELb0EEENS0_10CallResultINS0_11HermesValueELNS0_6detail20CallResultSpecializeE2EEERNS0_7RuntimeERNS0_16InterpreterStateE, symObjAddr: 0x192C, symBinAddr: 0x3116C, symSize: 0x760C }
  - { offsetInCU: 0x366CA, offset: 0x47AE0A, size: 0x8, addend: 0x0, symName: __ZZN6hermes2vm11Interpreter17interpretFunctionILb0ELb0EEENS0_10CallResultINS0_11HermesValueELNS0_6detail20CallResultSpecializeE2EEERNS0_7RuntimeERNS0_16InterpreterStateEE14opcodeDispatch, symObjAddr: 0x9AE8, symBinAddr: 0x20C3E0, symSize: 0x0 }
  - { offsetInCU: 0x4A49D, offset: 0x48EBDD, size: 0x8, addend: 0x0, symName: __ZN6hermes2vm11Interpreter19createGenerator_RJSERNS0_7RuntimeEPNS0_13RuntimeModuleEjNS0_6HandleINS0_11EnvironmentEEENS0_10NativeArgsE, symObjAddr: 0x0, symBinAddr: 0x2F9A4, symSize: 0x1C8 }
  - { offsetInCU: 0x4B63F, offset: 0x48FD7F, size: 0x8, addend: 0x0, symName: __ZN6hermes2vm11Interpreter22reifyArgumentsSlowPathERNS0_7RuntimeENS0_6HandleINS0_8CallableEEEb, symObjAddr: 0x1C8, symBinAddr: 0x2FB6C, symSize: 0x1E4 }
  - { offsetInCU: 0x4C8B4, offset: 0x490FF4, size: 0x8, addend: 0x0, symName: __ZN6hermes2vm11Interpreter33getArgumentsPropByValSlowPath_RJSERNS0_7RuntimeEPNS0_17PinnedHermesValueES5_NS0_6HandleINS0_8CallableEEEb, symObjAddr: 0x3AC, symBinAddr: 0x2FD50, symSize: 0x288 }
  - { offsetInCU: 0x4D299, offset: 0x4919D9, size: 0x8, addend: 0x0, symName: __ZN6hermes2vm8JSObject20getComputedSlotValueENS0_12PseudoHandleIS1_EERNS0_7RuntimeERNS0_13MutableHandleINS0_8SymbolIDEEENS0_26ComputedPropertyDescriptorE, symObjAddr: 0x634, symBinAddr: 0x2FFD8, symSize: 0x138 }
  - { offsetInCU: 0x4DFB3, offset: 0x4926F3, size: 0x8, addend: 0x0, symName: __ZN6hermes2vm11Interpreter18handleCallSlowPathERNS0_7RuntimeEPNS0_17PinnedHermesValueE, symObjAddr: 0x76C, symBinAddr: 0x30110, symSize: 0x80 }
  - { offsetInCU: 0x4E718, offset: 0x492E58, size: 0x8, addend: 0x0, symName: __ZN6hermes2vm11Interpreter20getByIdTransient_RJSERNS0_7RuntimeENS0_6HandleINS0_11HermesValueEEENS0_8SymbolIDE, symObjAddr: 0x8D0, symBinAddr: 0x30190, symSize: 0xD4 }
  - { offsetInCU: 0x4EC7B, offset: 0x4933BB, size: 0x8, addend: 0x0, symName: __ZN6hermes2vm11Interpreter21getByValTransientFastERNS0_7RuntimeENS0_6HandleINS0_11HermesValueEEES6_, symObjAddr: 0x9A4, symBinAddr: 0x30264, symSize: 0x134 }
  - { offsetInCU: 0x4F1FA, offset: 0x49393A, size: 0x8, addend: 0x0, symName: __ZN6hermes2vm11Interpreter21getByValTransient_RJSERNS0_7RuntimeENS0_6HandleINS0_11HermesValueEEES6_, symObjAddr: 0xAD8, symBinAddr: 0x30398, symSize: 0xB8 }
  - { offsetInCU: 0x4FBED, offset: 0x49432D, size: 0x8, addend: 0x0, symName: __ZN6hermes2vm11Interpreter20putByIdTransient_RJSERNS0_7RuntimeENS0_6HandleINS0_11HermesValueEEENS0_8SymbolIDES6_b, symObjAddr: 0xB90, symBinAddr: 0x30450, symSize: 0x62C }
  - { offsetInCU: 0x51DAA, offset: 0x4964EA, size: 0x8, addend: 0x0, symName: __ZN6hermes2vm11Interpreter21putByValTransient_RJSERNS0_7RuntimeENS0_6HandleINS0_11HermesValueEEES6_S6_b, symObjAddr: 0x11BC, symBinAddr: 0x30A7C, symSize: 0x68 }
  - { offsetInCU: 0x51EA5, offset: 0x4965E5, size: 0x8, addend: 0x0, symName: __ZN6hermes2vm11Interpreter21putByValTransient_RJSERNS0_7RuntimeENS0_6HandleINS0_11HermesValueEEES6_S6_b, symObjAddr: 0x11BC, symBinAddr: 0x30A7C, symSize: 0x68 }
  - { offsetInCU: 0x5266E, offset: 0x496DAE, size: 0x8, addend: 0x0, symName: __ZN6hermes2vm11Interpreter22createObjectFromBufferERNS0_7RuntimeEPNS0_9CodeBlockEjjj, symObjAddr: 0x1224, symBinAddr: 0x30AE4, symSize: 0x404 }
  - { offsetInCU: 0x54227, offset: 0x498967, size: 0x8, addend: 0x0, symName: __ZN6hermes2vm11Interpreter21createArrayFromBufferERNS0_7RuntimeEPNS0_9CodeBlockEjjj, symObjAddr: 0x16A8, symBinAddr: 0x30EE8, symSize: 0x228 }
  - { offsetInCU: 0x54F8F, offset: 0x4996CF, size: 0x8, addend: 0x0, symName: __ZN6hermes2vm7Runtime21interpretFunctionImplEPNS0_9CodeBlockE, symObjAddr: 0x18D0, symBinAddr: 0x31110, symSize: 0x5C }
  - { offsetInCU: 0x56939, offset: 0x49B079, size: 0x8, addend: 0x0, symName: __ZN6hermes2vm6GCBase5makeAINS0_11EnvironmentELb0ELNS0_12HasFinalizerE0ELNS0_9LongLivedE0EJRNS0_7RuntimeERNS0_6HandleIS3_EERjEEEPT_jDpOT3_, symObjAddr: 0x9444, symBinAddr: 0x3877C, symSize: 0x78 }
  - { offsetInCU: 0x56FE5, offset: 0x49B725, size: 0x8, addend: 0x0, symName: __ZN6hermes2vm7Runtime17interpretFunctionEPNS0_9CodeBlockE, symObjAddr: 0x8F38, symBinAddr: 0x38778, symSize: 0x4 }
  - { offsetInCU: 0x5701F, offset: 0x49B75F, size: 0x8, addend: 0x0, symName: __ZN6hermes2vm7Runtime17interpretFunctionEPNS0_9CodeBlockE, symObjAddr: 0x8F38, symBinAddr: 0x38778, symSize: 0x4 }
  - { offsetInCU: 0x57D5A, offset: 0x49C49A, size: 0x8, addend: 0x0, symName: __ZN6hermes2vm11EnvironmentC2ERNS0_7RuntimeENS0_6HandleIS1_EEj, symObjAddr: 0x94BC, symBinAddr: 0x387F4, symSize: 0x60 }
  - { offsetInCU: 0x26, offset: 0x49D041, size: 0x8, addend: 0x0, symName: __ZN6hermes2vm14doOperSlowPathIXadL_ZNS0_5doDivEddEEEENS0_10CallResultINS0_11HermesValueELNS0_6detail20CallResultSpecializeE2EEERNS0_7RuntimeENS0_6HandleIS3_EESA_, symObjAddr: 0x0, symBinAddr: 0x38854, symSize: 0x114 }
  - { offsetInCU: 0x1CD6F, offset: 0x4B9D8A, size: 0x8, addend: 0x0, symName: __ZN6hermes2vm14doOperSlowPathIXadL_ZNS0_5doDivEddEEEENS0_10CallResultINS0_11HermesValueELNS0_6detail20CallResultSpecializeE2EEERNS0_7RuntimeENS0_6HandleIS3_EESA_, symObjAddr: 0x0, symBinAddr: 0x38854, symSize: 0x114 }
  - { offsetInCU: 0x1D21F, offset: 0x4BA23A, size: 0x8, addend: 0x0, symName: __ZN6hermes2vmL13doBigIntBinOpERNS0_7RuntimeEPFNS0_10CallResultINS0_11HermesValueELNS0_6detail20CallResultSpecializeE2EEES2_NS0_6HandleINS0_15BigIntPrimitiveEEESA_ESA_NS8_IS4_EE, symObjAddr: 0x114, symBinAddr: 0x38968, symSize: 0x100 }
  - { offsetInCU: 0x1D57C, offset: 0x4BA597, size: 0x8, addend: 0x0, symName: __ZN6hermes2vm14doOperSlowPathIXadL_ZNS0_5doModEddEEEENS0_10CallResultINS0_11HermesValueELNS0_6detail20CallResultSpecializeE2EEERNS0_7RuntimeENS0_6HandleIS3_EESA_, symObjAddr: 0x214, symBinAddr: 0x38A68, symSize: 0x114 }
  - { offsetInCU: 0x1DA21, offset: 0x4BAA3C, size: 0x8, addend: 0x0, symName: __ZN6hermes2vm14doOperSlowPathIXadL_ZNS0_5doMulEddEEEENS0_10CallResultINS0_11HermesValueELNS0_6detail20CallResultSpecializeE2EEERNS0_7RuntimeENS0_6HandleIS3_EESA_, symObjAddr: 0x328, symBinAddr: 0x38B7C, symSize: 0x114 }
  - { offsetInCU: 0x1DEC5, offset: 0x4BAEE0, size: 0x8, addend: 0x0, symName: __ZN6hermes2vm14doOperSlowPathIXadL_ZNS0_5doSubEddEEEENS0_10CallResultINS0_11HermesValueELNS0_6detail20CallResultSpecializeE2EEERNS0_7RuntimeENS0_6HandleIS3_EESA_, symObjAddr: 0x43C, symBinAddr: 0x38C90, symSize: 0x114 }
  - { offsetInCU: 0x1E369, offset: 0x4BB384, size: 0x8, addend: 0x0, symName: __ZN6hermes2vm17doBitOperSlowPathIXadL_ZNS0_8doBitAndEiiEEEENS0_10CallResultINS0_11HermesValueELNS0_6detail20CallResultSpecializeE2EEERNS0_7RuntimeENS0_6HandleIS3_EESA_, symObjAddr: 0x550, symBinAddr: 0x38DA4, symSize: 0x114 }
  - { offsetInCU: 0x1E8BC, offset: 0x4BB8D7, size: 0x8, addend: 0x0, symName: __ZN6hermes2vm17doBitOperSlowPathIXadL_ZNS0_7doBitOrEiiEEEENS0_10CallResultINS0_11HermesValueELNS0_6detail20CallResultSpecializeE2EEERNS0_7RuntimeENS0_6HandleIS3_EESA_, symObjAddr: 0x664, symBinAddr: 0x38EB8, symSize: 0x114 }
  - { offsetInCU: 0x1EDF5, offset: 0x4BBE10, size: 0x8, addend: 0x0, symName: __ZN6hermes2vm17doBitOperSlowPathIXadL_ZNS0_8doBitXorEiiEEEENS0_10CallResultINS0_11HermesValueELNS0_6detail20CallResultSpecializeE2EEERNS0_7RuntimeENS0_6HandleIS3_EESA_, symObjAddr: 0x778, symBinAddr: 0x38FCC, symSize: 0x114 }
  - { offsetInCU: 0x1F32E, offset: 0x4BC349, size: 0x8, addend: 0x0, symName: __ZN6hermes2vm19doShiftOperSlowPathIXadL_ZNS0_8doLShiftEjjEEEENS0_10CallResultINS0_11HermesValueELNS0_6detail20CallResultSpecializeE2EEERNS0_7RuntimeENS0_6HandleIS3_EESA_, symObjAddr: 0x88C, symBinAddr: 0x390E0, symSize: 0x128 }
  - { offsetInCU: 0x1F8A9, offset: 0x4BC8C4, size: 0x8, addend: 0x0, symName: __ZN6hermes2vm19doShiftOperSlowPathIXadL_ZNS0_8doRShiftEijEEEENS0_10CallResultINS0_11HermesValueELNS0_6detail20CallResultSpecializeE2EEERNS0_7RuntimeENS0_6HandleIS3_EESA_, symObjAddr: 0x9B4, symBinAddr: 0x39208, symSize: 0x128 }
  - { offsetInCU: 0x1FE0A, offset: 0x4BCE25, size: 0x8, addend: 0x0, symName: __ZN6hermes2vm19doShiftOperSlowPathIXadL_ZNS0_9doURshiftEjjEEEENS0_10CallResultINS0_11HermesValueELNS0_6detail20CallResultSpecializeE2EEERNS0_7RuntimeENS0_6HandleIS3_EESA_, symObjAddr: 0xADC, symBinAddr: 0x39330, symSize: 0x128 }
  - { offsetInCU: 0x2035E, offset: 0x4BD379, size: 0x8, addend: 0x0, symName: __ZN6hermes2vm20doIncDecOperSlowPathIXadL_ZNS0_5doIncEdEEEENS0_10CallResultINS0_11HermesValueELNS0_6detail20CallResultSpecializeE2EEERNS0_7RuntimeENS0_6HandleIS3_EE, symObjAddr: 0xC04, symBinAddr: 0x39458, symSize: 0xE8 }
  - { offsetInCU: 0x20793, offset: 0x4BD7AE, size: 0x8, addend: 0x0, symName: __ZN6hermes2vm20doIncDecOperSlowPathIXadL_ZNS0_5doDecEdEEEENS0_10CallResultINS0_11HermesValueELNS0_6detail20CallResultSpecializeE2EEERNS0_7RuntimeENS0_6HandleIS3_EE, symObjAddr: 0xCEC, symBinAddr: 0x39540, symSize: 0xE8 }
  - { offsetInCU: 0x21A81, offset: 0x4BEA9C, size: 0x8, addend: 0x0, symName: __ZN6hermes2vm16doBitNotSlowPathERNS0_7RuntimeENS0_6HandleINS0_11HermesValueEEE, symObjAddr: 0x1D8C, symBinAddr: 0x3A218, symSize: 0xB8 }
  - { offsetInCU: 0x21D81, offset: 0x4BED9C, size: 0x8, addend: 0x0, symName: __ZN6hermes2vm16doNegateSlowPathERNS0_7RuntimeENS0_6HandleINS0_11HermesValueEEE, symObjAddr: 0x1E44, symBinAddr: 0x3A2D0, symSize: 0xA4 }
  - { offsetInCU: 0x42CEA, offset: 0x4DFD05, size: 0x8, addend: 0x0, symName: __ZNSt3__119__allocate_at_leastB7v160006INS_9allocatorIN6hermes14ScopeChainItemEEEEENS_19__allocation_resultINS_16allocator_traitsIT_E7pointerEEERS7_m, symObjAddr: 0x1FE8, symBinAddr: 0x3A374, symSize: 0x44 }
  - { offsetInCU: 0x48AC3, offset: 0x4E5ADE, size: 0x8, addend: 0x0, symName: __ZN6hermes2vm11Interpreter13saveGeneratorERNS0_7RuntimeEPNS0_17PinnedHermesValueEPKNS_4inst4InstE, symObjAddr: 0xDD4, symBinAddr: 0x39628, symSize: 0x5C }
  - { offsetInCU: 0x495E2, offset: 0x4E65FD, size: 0x8, addend: 0x0, symName: __ZN6hermes2vm11Interpreter14caseDirectEvalERNS0_7RuntimeEPNS0_17PinnedHermesValueEPKNS_4inst4InstE, symObjAddr: 0xE30, symBinAddr: 0x39684, symSize: 0x294 }
  - { offsetInCU: 0x4A508, offset: 0x4E7523, size: 0x8, addend: 0x0, symName: __ZNSt3__114__split_bufferIN6hermes14ScopeChainItemERNS_9allocatorIS2_EEED2Ev, symObjAddr: 0x2038, symBinAddr: 0x3A3B8, symSize: 0x34 }
  - { offsetInCU: 0x4A6E2, offset: 0x4E76FD, size: 0x8, addend: 0x0, symName: __ZN6hermes2vm11Interpreter15casePutOwnByValERNS0_7RuntimeEPNS0_17PinnedHermesValueEPKNS_4inst4InstE, symObjAddr: 0x1118, symBinAddr: 0x39918, symSize: 0x50 }
  - { offsetInCU: 0x4A933, offset: 0x4E794E, size: 0x8, addend: 0x0, symName: __ZN6hermes2vm11Interpreter27casePutOwnGetterSetterByValERNS0_7RuntimeEPNS0_17PinnedHermesValueEPKNS_4inst4InstE, symObjAddr: 0x1168, symBinAddr: 0x39968, symSize: 0x144 }
  - { offsetInCU: 0x4B384, offset: 0x4E839F, size: 0x8, addend: 0x0, symName: __ZN6hermes2vm11Interpreter17caseIteratorBeginERNS0_7RuntimeEPNS0_17PinnedHermesValueEPKNS_4inst4InstE, symObjAddr: 0x12AC, symBinAddr: 0x39AAC, symSize: 0x148 }
  - { offsetInCU: 0x4C486, offset: 0x4E94A1, size: 0x8, addend: 0x0, symName: __ZN6hermes2vm11Interpreter16caseIteratorNextERNS0_7RuntimeEPNS0_17PinnedHermesValueEPKNS_4inst4InstE, symObjAddr: 0x15BC, symBinAddr: 0x39BF4, symSize: 0x33C }
  - { offsetInCU: 0x4D7E7, offset: 0x4EA802, size: 0x8, addend: 0x0, symName: __ZN6hermes2vm11Interpreter16caseGetPNameListERNS0_7RuntimeEPNS0_17PinnedHermesValueEPKNS_4inst4InstE, symObjAddr: 0x1978, symBinAddr: 0x39F30, symSize: 0xF4 }
  - { offsetInCU: 0x4DD6C, offset: 0x4EAD87, size: 0x8, addend: 0x0, symName: __ZN6hermes2vm11Interpreter15implCallBuiltinERNS0_7RuntimeEPNS0_17PinnedHermesValueEPNS0_9CodeBlockEj, symObjAddr: 0x1A6C, symBinAddr: 0x3A024, symSize: 0x6C }
  - { offsetInCU: 0x4E7A5, offset: 0x4EB7C0, size: 0x8, addend: 0x0, symName: __ZN6hermes2vm11Interpreter20declareGlobalVarImplERNS0_7RuntimeEPNS0_9CodeBlockEPKNS_4inst4InstE, symObjAddr: 0x1BBC, symBinAddr: 0x3A090, symSize: 0xE8 }
  - { offsetInCU: 0x4EE1C, offset: 0x4EBE37, size: 0x8, addend: 0x0, symName: __ZN6hermes2vm11Interpreter38throwIfHasRestrictedGlobalPropertyImplERNS0_7RuntimeEPNS0_9CodeBlockEPKNS_4inst4InstE, symObjAddr: 0x1CEC, symBinAddr: 0x3A178, symSize: 0xA0 }
  - { offsetInCU: 0x4F4C2, offset: 0x4EC4DD, size: 0x8, addend: 0x0, symName: __ZNSt3__114__split_bufferIN6hermes14ScopeChainItemERNS_9allocatorIS2_EEE17__destruct_at_endB7v160006EPS2_, symObjAddr: 0x206C, symBinAddr: 0x3A3EC, symSize: 0x58 }
  - { offsetInCU: 0x26, offset: 0x4EC7DF, size: 0x8, addend: 0x0, symName: __ZN6hermes2vm18ArrayImplBuildMetaEPKNS0_6GCCellERNS0_8Metadata7BuilderE, symObjAddr: 0x0, symBinAddr: 0x3A444, symSize: 0x54 }
  - { offsetInCU: 0x559C, offset: 0x4F1D55, size: 0x8, addend: 0x0, symName: __ZN6hermes2vm9Arguments2vtE, symObjAddr: 0x2988, symBinAddr: 0x2022B0, symSize: 0x0 }
  - { offsetInCU: 0x1D408, offset: 0x509BC1, size: 0x8, addend: 0x0, symName: __ZN6hermes2vm7JSArray2vtE, symObjAddr: 0x29E8, symBinAddr: 0x202310, symSize: 0x0 }
  - { offsetInCU: 0x1D41C, offset: 0x509BD5, size: 0x8, addend: 0x0, symName: __ZN6hermes2vm15JSArrayIterator2vtE, symObjAddr: 0x2A48, symBinAddr: 0x202370, symSize: 0x0 }
  - { offsetInCU: 0x1F3B7, offset: 0x50BB70, size: 0x8, addend: 0x0, symName: __ZN6hermes2vm18ArrayImplBuildMetaEPKNS0_6GCCellERNS0_8Metadata7BuilderE, symObjAddr: 0x0, symBinAddr: 0x3A444, symSize: 0x54 }
  - { offsetInCU: 0x1F498, offset: 0x50BC51, size: 0x8, addend: 0x0, symName: __ZN6hermes2vm18ArgumentsBuildMetaEPKNS0_6GCCellERNS0_8Metadata7BuilderE, symObjAddr: 0xEC4, symBinAddr: 0x3B14C, symSize: 0x48 }
  - { offsetInCU: 0x1F5F7, offset: 0x50BDB0, size: 0x8, addend: 0x0, symName: __ZN6hermes2vm16JSArrayBuildMetaEPKNS0_6GCCellERNS0_8Metadata7BuilderE, symObjAddr: 0x10EC, symBinAddr: 0x3B374, symSize: 0x48 }
  - { offsetInCU: 0x1FCBB, offset: 0x50C474, size: 0x8, addend: 0x0, symName: __ZN6hermes2vm24JSArrayIteratorBuildMetaEPKNS0_6GCCellERNS0_8Metadata7BuilderE, symObjAddr: 0x1DC0, symBinAddr: 0x3BF9C, symSize: 0x60 }
  - { offsetInCU: 0x4714E, offset: 0x533907, size: 0x8, addend: 0x0, symName: __ZN6hermes2vm9ArrayImpl19_haveOwnIndexedImplEPNS0_8JSObjectERNS0_7RuntimeEj, symObjAddr: 0x54, symBinAddr: 0x3A498, symSize: 0x8C }
  - { offsetInCU: 0x47495, offset: 0x533C4E, size: 0x8, addend: 0x0, symName: __ZN6hermes2vm9ArrayImpl31_getOwnIndexedPropertyFlagsImplEPNS0_8JSObjectERNS0_7RuntimeEj, symObjAddr: 0xE0, symBinAddr: 0x3A524, symSize: 0xC0 }
  - { offsetInCU: 0x477EE, offset: 0x533FA7, size: 0x8, addend: 0x0, symName: __ZN6hermes2vm9ArrayImpl23_getOwnIndexedRangeImplEPNS0_8JSObjectERNS0_7RuntimeE, symObjAddr: 0x1A0, symBinAddr: 0x3A5E4, symSize: 0x8 }
  - { offsetInCU: 0x47A91, offset: 0x53424A, size: 0x8, addend: 0x0, symName: __ZN6hermes2vm9ArrayImpl18_getOwnIndexedImplENS0_12PseudoHandleINS0_8JSObjectEEERNS0_7RuntimeEj, symObjAddr: 0x1A8, symBinAddr: 0x3A5EC, symSize: 0x10C }
  - { offsetInCU: 0x4879A, offset: 0x534F53, size: 0x8, addend: 0x0, symName: __ZN6hermes2vm9ArrayImpl18setStorageEndIndexENS0_6HandleIS1_EERNS0_7RuntimeEj, symObjAddr: 0x334, symBinAddr: 0x3A6F8, symSize: 0x25C }
  - { offsetInCU: 0x494DB, offset: 0x535C94, size: 0x8, addend: 0x0, symName: __ZN6hermes2vm9GCPointerINS0_18SegmentedArrayBaseINS0_13HermesValue32EEEE3setERNS0_11PointerBaseEPS4_RNS0_7HadesGCE, symObjAddr: 0x21B0, symBinAddr: 0x3C38C, symSize: 0x5C }
  - { offsetInCU: 0x4A0DE, offset: 0x536897, size: 0x8, addend: 0x0, symName: __ZN6hermes2vm9ArrayImpl18_setOwnIndexedImplENS0_6HandleINS0_8JSObjectEEERNS0_7RuntimeEjNS2_INS0_11HermesValueEEE, symObjAddr: 0x590, symBinAddr: 0x3A954, symSize: 0x590 }
  - { offsetInCU: 0x4C6C7, offset: 0x538E80, size: 0x8, addend: 0x0, symName: __ZN6hermes2vm18SegmentedArrayBaseINS0_13HermesValue32EE3setILNS3_6InlineE0EEEvRNS0_7RuntimeEjS2_, symObjAddr: 0xC5C, symBinAddr: 0x3AEE4, symSize: 0x8C }
  - { offsetInCU: 0x4CF37, offset: 0x5396F0, size: 0x8, addend: 0x0, symName: __ZN6hermes2vm9ArrayImpl21_deleteOwnIndexedImplENS0_6HandleINS0_8JSObjectEEERNS0_7RuntimeEj, symObjAddr: 0xCE8, symBinAddr: 0x3AF70, symSize: 0xB4 }
  - { offsetInCU: 0x4D33F, offset: 0x539AF8, size: 0x8, addend: 0x0, symName: __ZN6hermes2vm18SegmentedArrayBaseINS0_13HermesValue32EE9setNonPtrILNS3_6InlineE0EEEvRNS0_7RuntimeEjS2_, symObjAddr: 0xD9C, symBinAddr: 0x3B024, symSize: 0x94 }
  - { offsetInCU: 0x4D709, offset: 0x539EC2, size: 0x8, addend: 0x0, symName: __ZN6hermes2vm9ArrayImpl23_checkAllOwnIndexedImplEPNS0_8JSObjectERNS0_7RuntimeENS0_12ObjectVTable22CheckAllOwnIndexedModeE, symObjAddr: 0xE30, symBinAddr: 0x3B0B8, symSize: 0x94 }
  - { offsetInCU: 0x4DD65, offset: 0x53A51E, size: 0x8, addend: 0x0, symName: __ZN6hermes2vm9Arguments6createERNS0_7RuntimeEjNS0_6HandleINS0_8CallableEEEb, symObjAddr: 0xF0C, symBinAddr: 0x3B194, symSize: 0x1E0 }
  - { offsetInCU: 0x4E6E0, offset: 0x53AE99, size: 0x8, addend: 0x0, symName: __ZN6hermes2vm6GCBase5makeAINS0_9ArgumentsELb1ELNS0_12HasFinalizerE0ELNS0_9LongLivedE0EJRNS0_7RuntimeENS0_6HandleINS0_8JSObjectEEERNS8_INS0_11HiddenClassEEEEEEPT_jDpOT3_, symObjAddr: 0x2410, symBinAddr: 0x3C3E8, symSize: 0x88 }
  - { offsetInCU: 0x4EB32, offset: 0x53B2EB, size: 0x8, addend: 0x0, symName: __ZN6hermes2vm7JSArray11createClassERNS0_7RuntimeENS0_6HandleINS0_8JSObjectEEE, symObjAddr: 0x1134, symBinAddr: 0x3B3BC, symSize: 0x64 }
  - { offsetInCU: 0x4EEA8, offset: 0x53B661, size: 0x8, addend: 0x0, symName: __ZN6hermes2vm7JSArray24createNoAllocPropStorageERNS0_7RuntimeENS0_6HandleINS0_8JSObjectEEENS4_INS0_11HiddenClassEEEjj, symObjAddr: 0x1198, symBinAddr: 0x3B420, symSize: 0x1E4 }
  - { offsetInCU: 0x4FA0E, offset: 0x53C1C7, size: 0x8, addend: 0x0, symName: __ZN6hermes2vm6GCBase5makeAINS0_7JSArrayELb1ELNS0_12HasFinalizerE0ELNS0_9LongLivedE0EJRNS0_7RuntimeERNS0_6HandleINS0_8JSObjectEEERNS8_INS0_11HiddenClassEEENS0_13GCPointerBase10NoBarriersEEEEPT_jDpOT3_, symObjAddr: 0x25C8, symBinAddr: 0x3C540, symSize: 0x78 }
  - { offsetInCU: 0x4FCEA, offset: 0x53C4A3, size: 0x8, addend: 0x0, symName: __ZN6hermes2vm13HermesValue3217encodeNumberValueEdRNS0_7RuntimeE, symObjAddr: 0x137C, symBinAddr: 0x3B604, symSize: 0x9C }
  - { offsetInCU: 0x4FD20, offset: 0x53C4D9, size: 0x8, addend: 0x0, symName: __ZN6hermes2vm13HermesValue3217encodeNumberValueEdRNS0_7RuntimeE, symObjAddr: 0x137C, symBinAddr: 0x3B604, symSize: 0x9C }
  - { offsetInCU: 0x4FD3F, offset: 0x53C4F8, size: 0x8, addend: 0x0, symName: __ZN6hermes2vm13HermesValue3217encodeNumberValueEdRNS0_7RuntimeE, symObjAddr: 0x137C, symBinAddr: 0x3B604, symSize: 0x9C }
  - { offsetInCU: 0x4FD5E, offset: 0x53C517, size: 0x8, addend: 0x0, symName: __ZN6hermes2vm13HermesValue3217encodeNumberValueEdRNS0_7RuntimeE, symObjAddr: 0x137C, symBinAddr: 0x3B604, symSize: 0x9C }
  - { offsetInCU: 0x50205, offset: 0x53C9BE, size: 0x8, addend: 0x0, symName: __ZN6hermes2vm7JSArray25createAndAllocPropStorageERNS0_7RuntimeENS0_6HandleINS0_8JSObjectEEENS4_INS0_11HiddenClassEEEjj, symObjAddr: 0x1418, symBinAddr: 0x3B6A0, symSize: 0x98 }
  - { offsetInCU: 0x504B6, offset: 0x53CC6F, size: 0x8, addend: 0x0, symName: __ZN6hermes2vm7JSArray6createERNS0_7RuntimeEjj, symObjAddr: 0x14B0, symBinAddr: 0x3B738, symSize: 0x1C }
  - { offsetInCU: 0x50695, offset: 0x53CE4E, size: 0x8, addend: 0x0, symName: __ZN6hermes2vm7JSArray6createERNS0_7RuntimeEjj, symObjAddr: 0x14B0, symBinAddr: 0x3B738, symSize: 0x1C }
  - { offsetInCU: 0x50797, offset: 0x53CF50, size: 0x8, addend: 0x0, symName: __ZN6hermes2vm7JSArray9setLengthENS0_6HandleIS1_EERNS0_7RuntimeENS2_INS0_11HermesValueEEENS0_11PropOpFlagsE, symObjAddr: 0x14CC, symBinAddr: 0x3B754, symSize: 0x110 }
  - { offsetInCU: 0x509F6, offset: 0x53D1AF, size: 0x8, addend: 0x0, symName: __ZN6hermes2vm7JSArray9setLengthENS0_6HandleIS1_EERNS0_7RuntimeEjNS0_11PropOpFlagsE, symObjAddr: 0x15DC, symBinAddr: 0x3B864, symSize: 0x470 }
  - { offsetInCU: 0x52689, offset: 0x53EE42, size: 0x8, addend: 0x0, symName: __ZN6hermes2vm7GCScopeC1ERNS0_15HandleRootOwnerEPKcj, symObjAddr: 0x1A4C, symBinAddr: 0x3BCD4, symSize: 0xAC }
  - { offsetInCU: 0x52862, offset: 0x53F01B, size: 0x8, addend: 0x0, symName: __ZN6hermes2vm7Runtime10makeHandleINS0_11HiddenClassEEENS0_6HandleIT_EERKNS0_9GCPointerIS5_EE, symObjAddr: 0x1CC0, symBinAddr: 0x3BF48, symSize: 0x54 }
  - { offsetInCU: 0x52ACC, offset: 0x53F285, size: 0x8, addend: 0x0, symName: '__ZN6hermes2vm11HiddenClass15forEachPropertyIZNS0_7JSArray9setLengthENS0_6HandleIS3_EERNS0_7RuntimeEjNS0_11PropOpFlagsEE3$_0EEvNS4_IS1_EES7_RKT_', symObjAddr: 0x1AF8, symBinAddr: 0x3BD80, symSize: 0x1C8 }
  - { offsetInCU: 0x53AC7, offset: 0x540280, size: 0x8, addend: 0x0, symName: __ZN4llvh23SmallVectorTemplateBaseINSt3__14pairIjN6hermes2vm8SymbolIDEEELb1EE9push_backERKS6_, symObjAddr: 0x269C, symBinAddr: 0x3C614, symSize: 0x60 }
  - { offsetInCU: 0x53FC4, offset: 0x54077D, size: 0x8, addend: 0x0, symName: __ZN6hermes2vm15JSArrayIterator6createERNS0_7RuntimeENS0_6HandleINS0_8JSObjectEEENS0_13IterationKindE, symObjAddr: 0x1E20, symBinAddr: 0x3BFFC, symSize: 0x60 }
  - { offsetInCU: 0x54182, offset: 0x54093B, size: 0x8, addend: 0x0, symName: __ZN6hermes2vm6GCBase5makeAINS0_15JSArrayIteratorELb1ELNS0_12HasFinalizerE0ELNS0_9LongLivedE0EJRNS0_7RuntimeERNS0_6HandleINS0_8JSObjectEEERNS8_INS0_11HiddenClassEEESB_RNS0_13IterationKindEEEEPT_jDpOT3_, symObjAddr: 0x26FC, symBinAddr: 0x3C674, symSize: 0x90 }
  - { offsetInCU: 0x5486B, offset: 0x541024, size: 0x8, addend: 0x0, symName: __ZN6hermes2vm15JSArrayIterator11nextElementENS0_6HandleIS1_EERNS0_7RuntimeE, symObjAddr: 0x1E80, symBinAddr: 0x3C05C, symSize: 0x330 }
  - { offsetInCU: 0x560AC, offset: 0x542865, size: 0x8, addend: 0x0, symName: __ZN6hermes2vm9ArrayImplC2INS0_13GCPointerBase11YesBarriersEEERNS0_7RuntimeEPNS0_8JSObjectEPNS0_11HiddenClassET_, symObjAddr: 0x2498, symBinAddr: 0x3C470, symSize: 0x70 }
  - { offsetInCU: 0x563B9, offset: 0x542B72, size: 0x8, addend: 0x0, symName: __ZN6hermes2vm9GCPointerINS0_8JSObjectEEC2INS0_13GCPointerBase11YesBarriersEEERNS0_11PointerBaseEPS2_RNS0_7HadesGCET_, symObjAddr: 0x2508, symBinAddr: 0x3C4E0, symSize: 0x60 }
  - { offsetInCU: 0x56976, offset: 0x54312F, size: 0x8, addend: 0x0, symName: __ZN6hermes2vm7JSArrayC2INS0_13GCPointerBase10NoBarriersEEERNS0_7RuntimeENS0_6HandleINS0_8JSObjectEEENS7_INS0_11HiddenClassEEET_, symObjAddr: 0x2640, symBinAddr: 0x3C5B8, symSize: 0x5C }
  - { offsetInCU: 0x569F8, offset: 0x5431B1, size: 0x8, addend: 0x0, symName: __ZN6hermes2vm7JSArrayC2INS0_13GCPointerBase10NoBarriersEEERNS0_7RuntimeENS0_6HandleINS0_8JSObjectEEENS7_INS0_11HiddenClassEEET_, symObjAddr: 0x2640, symBinAddr: 0x3C5B8, symSize: 0x5C }
  - { offsetInCU: 0x572AA, offset: 0x543A63, size: 0x8, addend: 0x0, symName: __ZN6hermes2vm15JSArrayIteratorC2ERNS0_7RuntimeENS0_6HandleINS0_8JSObjectEEENS4_INS0_11HiddenClassEEES6_NS0_13IterationKindE, symObjAddr: 0x278C, symBinAddr: 0x3C704, symSize: 0x98 }
  - { offsetInCU: 0x26, offset: 0x54420C, size: 0x8, addend: 0x0, symName: __ZN6hermes2vm13JSArrayBuffer13_finalizeImplEPNS0_6GCCellERNS0_7HadesGCE, symObjAddr: 0x0, symBinAddr: 0x3C79C, symSize: 0x18 }
  - { offsetInCU: 0x44, offset: 0x54422A, size: 0x8, addend: 0x0, symName: __ZN6hermes2vm13JSArrayBuffer2vtE, symObjAddr: 0x790, symBinAddr: 0x2023D0, symSize: 0x0 }
  - { offsetInCU: 0x7004, offset: 0x54B1EA, size: 0x8, addend: 0x0, symName: __ZN6hermes2vm22JSArrayBufferBuildMetaEPKNS0_6GCCellERNS0_8Metadata7BuilderE, symObjAddr: 0x20, symBinAddr: 0x3C7BC, symSize: 0x48 }
  - { offsetInCU: 0x2D702, offset: 0x5718E8, size: 0x8, addend: 0x0, symName: __ZN6hermes2vm13JSArrayBuffer13_finalizeImplEPNS0_6GCCellERNS0_7HadesGCE, symObjAddr: 0x0, symBinAddr: 0x3C79C, symSize: 0x18 }
  - { offsetInCU: 0x2D745, offset: 0x57192B, size: 0x8, addend: 0x0, symName: __ZN6hermes2vm13JSArrayBuffer13_finalizeImplEPNS0_6GCCellERNS0_7HadesGCE, symObjAddr: 0x0, symBinAddr: 0x3C79C, symSize: 0x18 }
  - { offsetInCU: 0x2D76F, offset: 0x571955, size: 0x8, addend: 0x0, symName: __ZN6hermes2vm13JSArrayBuffer18freeInternalBufferERNS0_7HadesGCE, symObjAddr: 0x3CC, symBinAddr: 0x3CB64, symSize: 0x48 }
  - { offsetInCU: 0x2D7FE, offset: 0x5719E4, size: 0x8, addend: 0x0, symName: __ZN6hermes2vm13JSArrayBuffer15_mallocSizeImplEPNS0_6GCCellE, symObjAddr: 0x18, symBinAddr: 0x3C7B4, symSize: 0x8 }
  - { offsetInCU: 0x2DA90, offset: 0x571C76, size: 0x8, addend: 0x0, symName: __ZN6hermes2vm13JSArrayBuffer6createERNS0_7RuntimeENS0_6HandleINS0_8JSObjectEEE, symObjAddr: 0x68, symBinAddr: 0x3C804, symSize: 0x40 }
  - { offsetInCU: 0x2DC15, offset: 0x571DFB, size: 0x8, addend: 0x0, symName: __ZN6hermes2vm7HadesGC5makeAINS0_13JSArrayBufferELb1ELNS0_12HasFinalizerE1ELNS0_9LongLivedE0EJRNS0_7RuntimeERNS0_6HandleINS0_8JSObjectEEENS8_INS0_11HiddenClassEEEEEEPT_jDpOT3_, symObjAddr: 0x5E4, symBinAddr: 0x3CD7C, symSize: 0x134 }
  - { offsetInCU: 0x2E792, offset: 0x572978, size: 0x8, addend: 0x0, symName: __ZN6hermes2vm13JSArrayBuffer5cloneERNS0_7RuntimeENS0_6HandleIS1_EEjj, symObjAddr: 0xA8, symBinAddr: 0x3C844, symSize: 0x154 }
  - { offsetInCU: 0x2EECB, offset: 0x5730B1, size: 0x8, addend: 0x0, symName: __ZN6hermes2vm13JSArrayBuffer15createDataBlockERNS0_7RuntimeENS0_6HandleIS1_EEjb, symObjAddr: 0x1FC, symBinAddr: 0x3C998, symSize: 0x124 }
  - { offsetInCU: 0x2EED6, offset: 0x5730BC, size: 0x8, addend: 0x0, symName: __ZN6hermes2vm13JSArrayBuffer15createDataBlockERNS0_7RuntimeENS0_6HandleIS1_EEjb, symObjAddr: 0x1FC, symBinAddr: 0x3C998, symSize: 0x124 }
  - { offsetInCU: 0x2F2DA, offset: 0x5734C0, size: 0x8, addend: 0x0, symName: __ZN6hermes2vm13JSArrayBuffer6detachERNS0_7RuntimeENS0_6HandleIS1_EE, symObjAddr: 0x414, symBinAddr: 0x3CBAC, symSize: 0x6C }
  - { offsetInCU: 0x2F48A, offset: 0x573670, size: 0x8, addend: 0x0, symName: __ZN6hermes2vm13JSArrayBuffer18copyDataBlockBytesERNS0_7RuntimeEPS1_jS4_jj, symObjAddr: 0x320, symBinAddr: 0x3CABC, symSize: 0x54 }
  - { offsetInCU: 0x2F5D2, offset: 0x5737B8, size: 0x8, addend: 0x0, symName: __ZN6hermes2vm13JSArrayBufferC2ERNS0_7RuntimeENS0_6HandleINS0_8JSObjectEEENS4_INS0_11HiddenClassEEE, symObjAddr: 0x374, symBinAddr: 0x3CB10, symSize: 0x54 }
  - { offsetInCU: 0x2F9D3, offset: 0x573BB9, size: 0x8, addend: 0x0, symName: __ZN6hermes2vm13JSArrayBufferC2ERNS0_7RuntimeENS0_6HandleINS0_8JSObjectEEENS4_INS0_11HiddenClassEEE, symObjAddr: 0x374, symBinAddr: 0x3CB10, symSize: 0x54 }
  - { offsetInCU: 0x2FA44, offset: 0x573C2A, size: 0x8, addend: 0x0, symName: __ZN6hermes2vm13JSArrayBufferC2ERNS0_7RuntimeENS0_6HandleINS0_8JSObjectEEENS4_INS0_11HiddenClassEEE, symObjAddr: 0x374, symBinAddr: 0x3CB10, symSize: 0x54 }
  - { offsetInCU: 0x2FEBE, offset: 0x5740A4, size: 0x8, addend: 0x0, symName: __ZN6hermes2vm13JSArrayBuffer20setExternalFinalizerERNS0_7RuntimeENS0_6HandleIS1_EENS4_INS0_11HermesValueEEE, symObjAddr: 0x480, symBinAddr: 0x3CC18, symSize: 0x94 }
  - { offsetInCU: 0x300EE, offset: 0x5742D4, size: 0x8, addend: 0x0, symName: __ZN6hermes2vm13JSArrayBuffer20setExternalDataBlockERNS0_7RuntimeENS0_6HandleIS1_EEPhjPvPFvRNS0_7HadesGCEPNS0_11NativeStateEE, symObjAddr: 0x514, symBinAddr: 0x3CCAC, symSize: 0xD0 }
  - { offsetInCU: 0x26, offset: 0x574E39, size: 0x8, addend: 0x0, symName: __ZN6hermes2vm19JSCallSiteBuildMetaEPKNS0_6GCCellERNS0_8Metadata7BuilderE, symObjAddr: 0x0, symBinAddr: 0x3CEB0, symSize: 0x60 }
  - { offsetInCU: 0x44, offset: 0x574E57, size: 0x8, addend: 0x0, symName: __ZN6hermes2vm10JSCallSite2vtE, symObjAddr: 0x680, symBinAddr: 0x202430, symSize: 0x0 }
  - { offsetInCU: 0x887D, offset: 0x57D690, size: 0x8, addend: 0x0, symName: __ZN6hermes2vm19JSCallSiteBuildMetaEPKNS0_6GCCellERNS0_8Metadata7BuilderE, symObjAddr: 0x0, symBinAddr: 0x3CEB0, symSize: 0x60 }
  - { offsetInCU: 0x2FCD6, offset: 0x5A4AE9, size: 0x8, addend: 0x0, symName: __ZN6hermes2vm10JSCallSiteC2ERNS0_7RuntimeENS0_6HandleINS0_8JSObjectEEENS4_INS0_11HiddenClassEEENS4_INS0_7JSErrorEEEm, symObjAddr: 0x60, symBinAddr: 0x3CF10, symSize: 0x94 }
  - { offsetInCU: 0x30378, offset: 0x5A518B, size: 0x8, addend: 0x0, symName: __ZN6hermes2vm9GCPointerINS0_7JSErrorEEC2INS0_13GCPointerBase11YesBarriersEEERNS0_11PointerBaseEPS2_RNS0_7HadesGCET_, symObjAddr: 0x58C, symBinAddr: 0x3D438, symSize: 0x60 }
  - { offsetInCU: 0x30930, offset: 0x5A5743, size: 0x8, addend: 0x0, symName: __ZN6hermes2vm10JSCallSite6createERNS0_7RuntimeENS0_6HandleINS0_7JSErrorEEEj, symObjAddr: 0xF8, symBinAddr: 0x3CFA4, symSize: 0x88 }
  - { offsetInCU: 0x30C1F, offset: 0x5A5A32, size: 0x8, addend: 0x0, symName: __ZN6hermes2vm6GCBase5makeAINS0_10JSCallSiteELb1ELNS0_12HasFinalizerE0ELNS0_9LongLivedE0EJRNS0_7RuntimeERNS0_6HandleINS0_8JSObjectEEENS8_INS0_11HiddenClassEEERNS8_INS0_7JSErrorEEERjEEEPT_jDpOT3_, symObjAddr: 0x5EC, symBinAddr: 0x3D498, symSize: 0x90 }
  - { offsetInCU: 0x3122D, offset: 0x5A6040, size: 0x8, addend: 0x0, symName: __ZN6hermes2vm10JSCallSite15getFunctionNameERNS0_7RuntimeENS0_6HandleIS1_EE, symObjAddr: 0x180, symBinAddr: 0x3D02C, symSize: 0xA4 }
  - { offsetInCU: 0x31993, offset: 0x5A67A6, size: 0x8, addend: 0x0, symName: __ZN6hermes2vm10JSCallSite11getFileNameERNS0_7RuntimeENS0_6HandleIS1_EE, symObjAddr: 0x224, symBinAddr: 0x3D0D0, symSize: 0x128 }
  - { offsetInCU: 0x31EB9, offset: 0x5A6CCC, size: 0x8, addend: 0x0, symName: __ZN6hermes2vm10JSCallSite17getStackTraceInfoERNS0_7RuntimeENS0_6HandleIS1_EE, symObjAddr: 0x34C, symBinAddr: 0x3D1F8, symSize: 0x50 }
  - { offsetInCU: 0x321AF, offset: 0x5A6FC2, size: 0x8, addend: 0x0, symName: __ZN6hermes2vm10JSCallSite13getLineNumberERNS0_7RuntimeENS0_6HandleIS1_EE, symObjAddr: 0x39C, symBinAddr: 0x3D248, symSize: 0x78 }
  - { offsetInCU: 0x3230F, offset: 0x5A7122, size: 0x8, addend: 0x0, symName: __ZN6hermes2vm10JSCallSite15getColumnNumberERNS0_7RuntimeENS0_6HandleIS1_EE, symObjAddr: 0x414, symBinAddr: 0x3D2C0, symSize: 0x60 }
  - { offsetInCU: 0x32415, offset: 0x5A7228, size: 0x8, addend: 0x0, symName: __ZN6hermes2vm10JSCallSite18getBytecodeAddressERNS0_7RuntimeENS0_6HandleIS1_EE, symObjAddr: 0x474, symBinAddr: 0x3D320, symSize: 0x4C }
  - { offsetInCU: 0x3256C, offset: 0x5A737F, size: 0x8, addend: 0x0, symName: __ZN6hermes2vm10JSCallSite8isNativeERNS0_7RuntimeENS0_6HandleIS1_EE, symObjAddr: 0x4C0, symBinAddr: 0x3D36C, symSize: 0x2C }
  - { offsetInCU: 0x32641, offset: 0x5A7454, size: 0x8, addend: 0x0, symName: __ZN6hermes2vm10JSCallSite7getThisERNS0_7RuntimeENS0_6HandleIS1_EE, symObjAddr: 0x4EC, symBinAddr: 0x3D398, symSize: 0xC }
  - { offsetInCU: 0x32678, offset: 0x5A748B, size: 0x8, addend: 0x0, symName: __ZN6hermes2vm10JSCallSite11getTypeNameERNS0_7RuntimeENS0_6HandleIS1_EE, symObjAddr: 0x4F8, symBinAddr: 0x3D3A4, symSize: 0x10 }
  - { offsetInCU: 0x326AF, offset: 0x5A74C2, size: 0x8, addend: 0x0, symName: __ZN6hermes2vm10JSCallSite11getFunctionERNS0_7RuntimeENS0_6HandleIS1_EE, symObjAddr: 0x508, symBinAddr: 0x3D3B4, symSize: 0xC }
  - { offsetInCU: 0x326E6, offset: 0x5A74F9, size: 0x8, addend: 0x0, symName: __ZN6hermes2vm10JSCallSite13getMethodNameERNS0_7RuntimeENS0_6HandleIS1_EE, symObjAddr: 0x514, symBinAddr: 0x3D3C0, symSize: 0x10 }
  - { offsetInCU: 0x3271D, offset: 0x5A7530, size: 0x8, addend: 0x0, symName: __ZN6hermes2vm10JSCallSite13getEvalOriginERNS0_7RuntimeENS0_6HandleIS1_EE, symObjAddr: 0x524, symBinAddr: 0x3D3D0, symSize: 0x10 }
  - { offsetInCU: 0x32754, offset: 0x5A7567, size: 0x8, addend: 0x0, symName: __ZN6hermes2vm10JSCallSite10isToplevelERNS0_7RuntimeENS0_6HandleIS1_EE, symObjAddr: 0x534, symBinAddr: 0x3D3E0, symSize: 0x10 }
  - { offsetInCU: 0x3278B, offset: 0x5A759E, size: 0x8, addend: 0x0, symName: __ZN6hermes2vm10JSCallSite6isEvalERNS0_7RuntimeENS0_6HandleIS1_EE, symObjAddr: 0x544, symBinAddr: 0x3D3F0, symSize: 0x10 }
  - { offsetInCU: 0x327C2, offset: 0x5A75D5, size: 0x8, addend: 0x0, symName: __ZN6hermes2vm10JSCallSite13isConstructorERNS0_7RuntimeENS0_6HandleIS1_EE, symObjAddr: 0x554, symBinAddr: 0x3D400, symSize: 0x10 }
  - { offsetInCU: 0x327F9, offset: 0x5A760C, size: 0x8, addend: 0x0, symName: __ZN6hermes2vm10JSCallSite7isAsyncERNS0_7RuntimeENS0_6HandleIS1_EE, symObjAddr: 0x564, symBinAddr: 0x3D410, symSize: 0xC }
  - { offsetInCU: 0x32830, offset: 0x5A7643, size: 0x8, addend: 0x0, symName: __ZN6hermes2vm10JSCallSite12isPromiseAllERNS0_7RuntimeENS0_6HandleIS1_EE, symObjAddr: 0x570, symBinAddr: 0x3D41C, symSize: 0xC }
  - { offsetInCU: 0x32867, offset: 0x5A767A, size: 0x8, addend: 0x0, symName: __ZN6hermes2vm10JSCallSite15getPromiseIndexERNS0_7RuntimeENS0_6HandleIS1_EE, symObjAddr: 0x57C, symBinAddr: 0x3D428, symSize: 0x10 }
  - { offsetInCU: 0x26, offset: 0x5A7AAE, size: 0x8, addend: 0x0, symName: __ZN6hermes2vm15JSCallableProxy14_newObjectImplENS0_6HandleINS0_8CallableEEERNS0_7RuntimeENS2_INS0_8JSObjectEEE, symObjAddr: 0x0, symBinAddr: 0x3D528, symSize: 0x114 }
  - { offsetInCU: 0x44, offset: 0x5A7ACC, size: 0x8, addend: 0x0, symName: __ZN6hermes2vm15JSCallableProxy2vtE, symObjAddr: 0xC18, symBinAddr: 0x202490, symSize: 0x0 }
  - { offsetInCU: 0x7519, offset: 0x5AEFA1, size: 0x8, addend: 0x0, symName: __ZN6hermes2vm24JSCallableProxyBuildMetaEPKNS0_6GCCellERNS0_8Metadata7BuilderE, symObjAddr: 0x114, symBinAddr: 0x3D63C, symSize: 0x74 }
  - { offsetInCU: 0x2E349, offset: 0x5D5DD1, size: 0x8, addend: 0x0, symName: __ZN6hermes2vm15JSCallableProxy14_newObjectImplENS0_6HandleINS0_8CallableEEERNS0_7RuntimeENS2_INS0_8JSObjectEEE, symObjAddr: 0x0, symBinAddr: 0x3D528, symSize: 0x114 }
  - { offsetInCU: 0x2E8D4, offset: 0x5D635C, size: 0x8, addend: 0x0, symName: __ZN6hermes2vm15JSCallableProxy13isConstructorERNS0_7RuntimeE, symObjAddr: 0x2FC, symBinAddr: 0x3D708, symSize: 0x7C }
  - { offsetInCU: 0x2EC0A, offset: 0x5D6692, size: 0x8, addend: 0x0, symName: __ZN6hermes2vm15JSCallableProxy6createERNS0_7RuntimeE, symObjAddr: 0x188, symBinAddr: 0x3D6B0, symSize: 0x58 }
  - { offsetInCU: 0x2ED3E, offset: 0x5D67C6, size: 0x8, addend: 0x0, symName: __ZN6hermes2vm6GCBase5makeAINS0_15JSCallableProxyELb1ELNS0_12HasFinalizerE0ELNS0_9LongLivedE0EJRNS0_7RuntimeENS0_6HandleINS0_8JSObjectEEENS8_INS0_11HiddenClassEEEEEEPT_jDpOT3_, symObjAddr: 0xB00, symBinAddr: 0x3DC60, symSize: 0x88 }
  - { offsetInCU: 0x2FFA6, offset: 0x5D7A2E, size: 0x8, addend: 0x0, symName: __ZN6hermes2vm15JSCallableProxy16_proxyNativeCallEPvRNS0_7RuntimeENS0_10NativeArgsE, symObjAddr: 0x378, symBinAddr: 0x3D784, symSize: 0x4DC }
  - { offsetInCU: 0x26, offset: 0x5DA995, size: 0x8, addend: 0x0, symName: __ZN6hermes2vm19JSDataViewBuildMetaEPKNS0_6GCCellERNS0_8Metadata7BuilderE, symObjAddr: 0x0, symBinAddr: 0x3DCE8, symSize: 0x60 }
  - { offsetInCU: 0x44, offset: 0x5DA9B3, size: 0x8, addend: 0x0, symName: __ZN6hermes2vm10JSDataView2vtE, symObjAddr: 0x190, symBinAddr: 0x202500, symSize: 0x0 }
  - { offsetInCU: 0x8130, offset: 0x5E2A9F, size: 0x8, addend: 0x0, symName: __ZN6hermes2vm19JSDataViewBuildMetaEPKNS0_6GCCellERNS0_8Metadata7BuilderE, symObjAddr: 0x0, symBinAddr: 0x3DCE8, symSize: 0x60 }
  - { offsetInCU: 0x2E46D, offset: 0x608DDC, size: 0x8, addend: 0x0, symName: __ZN6hermes2vm10JSDataView6createERNS0_7RuntimeENS0_6HandleINS0_8JSObjectEEE, symObjAddr: 0x60, symBinAddr: 0x3DD48, symSize: 0x64 }
  - { offsetInCU: 0x2E685, offset: 0x608FF4, size: 0x8, addend: 0x0, symName: __ZN6hermes2vm6GCBase5makeAINS0_10JSDataViewELb1ELNS0_12HasFinalizerE0ELNS0_9LongLivedE0EJRNS0_7RuntimeERNS0_6HandleINS0_8JSObjectEEENS8_INS0_11HiddenClassEEEEEEPT_jDpOT3_, symObjAddr: 0x11C, symBinAddr: 0x3DE00, symSize: 0x70 }
  - { offsetInCU: 0x2EDF4, offset: 0x609763, size: 0x8, addend: 0x0, symName: __ZN6hermes2vm10JSDataViewC2ERNS0_7RuntimeENS0_6HandleINS0_8JSObjectEEENS4_INS0_11HiddenClassEEE, symObjAddr: 0xC4, symBinAddr: 0x3DDAC, symSize: 0x54 }
  - { offsetInCU: 0x2EE65, offset: 0x6097D4, size: 0x8, addend: 0x0, symName: __ZN6hermes2vm10JSDataViewC2ERNS0_7RuntimeENS0_6HandleINS0_8JSObjectEEENS4_INS0_11HiddenClassEEE, symObjAddr: 0xC4, symBinAddr: 0x3DDAC, symSize: 0x54 }
  - { offsetInCU: 0x26, offset: 0x609F90, size: 0x8, addend: 0x0, symName: __ZN6hermes2vm15JSDateBuildMetaEPKNS0_6GCCellERNS0_8Metadata7BuilderE, symObjAddr: 0x0, symBinAddr: 0x3DE70, symSize: 0x48 }
  - { offsetInCU: 0x44, offset: 0x609FAE, size: 0x8, addend: 0x0, symName: __ZN6hermes2vm6JSDate2vtE, symObjAddr: 0x198, symBinAddr: 0x202560, symSize: 0x0 }
  - { offsetInCU: 0x8162, offset: 0x6120CC, size: 0x8, addend: 0x0, symName: __ZN6hermes2vm15JSDateBuildMetaEPKNS0_6GCCellERNS0_8Metadata7BuilderE, symObjAddr: 0x0, symBinAddr: 0x3DE70, symSize: 0x48 }
  - { offsetInCU: 0x2E4A5, offset: 0x63840F, size: 0x8, addend: 0x0, symName: __ZN6hermes2vm6JSDate6createERNS0_7RuntimeEdNS0_6HandleINS0_8JSObjectEEE, symObjAddr: 0x48, symBinAddr: 0x3DEB8, symSize: 0x70 }
  - { offsetInCU: 0x2E6E2, offset: 0x63864C, size: 0x8, addend: 0x0, symName: __ZN6hermes2vm6GCBase5makeAINS0_6JSDateELb1ELNS0_12HasFinalizerE0ELNS0_9LongLivedE0EJRNS0_7RuntimeERdRNS0_6HandleINS0_8JSObjectEEENS9_INS0_11HiddenClassEEEEEEPT_jDpOT3_, symObjAddr: 0xB8, symBinAddr: 0x3DF28, symSize: 0x88 }
  - { offsetInCU: 0x2EC94, offset: 0x638BFE, size: 0x8, addend: 0x0, symName: __ZN6hermes2vm6JSDateC2ERNS0_7RuntimeEdNS0_6HandleINS0_8JSObjectEEENS4_INS0_11HiddenClassEEE, symObjAddr: 0x140, symBinAddr: 0x3DFB0, symSize: 0x54 }
  - { offsetInCU: 0x2ED14, offset: 0x638C7E, size: 0x8, addend: 0x0, symName: __ZN6hermes2vm6JSDateC2ERNS0_7RuntimeEdNS0_6HandleINS0_8JSObjectEEENS4_INS0_11HiddenClassEEE, symObjAddr: 0x140, symBinAddr: 0x3DFB0, symSize: 0x54 }
  - { offsetInCU: 0x26, offset: 0x63953F, size: 0x8, addend: 0x0, symName: __ZN6hermes2vm7JSError13_finalizeImplEPNS0_6GCCellERNS0_7HadesGCE, symObjAddr: 0x0, symBinAddr: 0x3E004, symSize: 0x14 }
  - { offsetInCU: 0x44, offset: 0x63955D, size: 0x8, addend: 0x0, symName: __ZN6hermes2vm7JSError2vtE, symObjAddr: 0x3528, symBinAddr: 0x2025C0, symSize: 0x0 }
  - { offsetInCU: 0x8D14, offset: 0x64222D, size: 0x8, addend: 0x0, symName: __ZN6hermes2vm16errorStackGetterEPvRNS0_7RuntimeENS0_10NativeArgsE, symObjAddr: 0x268, symBinAddr: 0x3E26C, symSize: 0x3AC }
  - { offsetInCU: 0xA244, offset: 0x64375D, size: 0x8, addend: 0x0, symName: __ZN6hermes2vm16JSErrorBuildMetaEPKNS0_6GCCellERNS0_8Metadata7BuilderE, symObjAddr: 0x38, symBinAddr: 0x3E03C, symSize: 0x74 }
  - { offsetInCU: 0xA48F, offset: 0x6439A8, size: 0x8, addend: 0x0, symName: __ZN6hermes2vm16errorStackSetterEPvRNS0_7RuntimeENS0_10NativeArgsE, symObjAddr: 0xD74, symBinAddr: 0x3ED78, symSize: 0xA0 }
  - { offsetInCU: 0x2C8BA, offset: 0x665DD3, size: 0x8, addend: 0x0, symName: __ZNSt3__119__allocate_at_leastB7v160006INS_9allocatorIN6hermes2vm14StackTraceInfoEEEEENS_19__allocation_resultINS_16allocator_traitsIT_E7pointerEEERS8_m, symObjAddr: 0x303C, symBinAddr: 0x404A0, symSize: 0x34 }
  - { offsetInCU: 0x35A3A, offset: 0x66EF53, size: 0x8, addend: 0x0, symName: __ZN6hermes2vm7JSError29constructStackTraceString_RJSERNS0_7RuntimeENS0_6HandleIS1_EENS4_INS0_8JSObjectEEERNS0_12SmallXStringIDsLj32EEE, symObjAddr: 0x7F4, symBinAddr: 0x3E7F8, symSize: 0x580 }
  - { offsetInCU: 0x39649, offset: 0x672B62, size: 0x8, addend: 0x0, symName: __ZN6hermes2vm7JSError13_finalizeImplEPNS0_6GCCellERNS0_7HadesGCE, symObjAddr: 0x0, symBinAddr: 0x3E004, symSize: 0x14 }
  - { offsetInCU: 0x3968E, offset: 0x672BA7, size: 0x8, addend: 0x0, symName: __ZN6hermes2vm7JSError13_finalizeImplEPNS0_6GCCellERNS0_7HadesGCE, symObjAddr: 0x0, symBinAddr: 0x3E004, symSize: 0x14 }
  - { offsetInCU: 0x396AE, offset: 0x672BC7, size: 0x8, addend: 0x0, symName: __ZN6hermes2vm7JSError13_finalizeImplEPNS0_6GCCellERNS0_7HadesGCE, symObjAddr: 0x0, symBinAddr: 0x3E004, symSize: 0x14 }
  - { offsetInCU: 0x396CD, offset: 0x672BE6, size: 0x8, addend: 0x0, symName: __ZN6hermes2vm7JSError13_finalizeImplEPNS0_6GCCellERNS0_7HadesGCE, symObjAddr: 0x0, symBinAddr: 0x3E004, symSize: 0x14 }
  - { offsetInCU: 0x396EC, offset: 0x672C05, size: 0x8, addend: 0x0, symName: __ZN6hermes2vm7JSError13_finalizeImplEPNS0_6GCCellERNS0_7HadesGCE, symObjAddr: 0x0, symBinAddr: 0x3E004, symSize: 0x14 }
  - { offsetInCU: 0x3970C, offset: 0x672C25, size: 0x8, addend: 0x0, symName: __ZN6hermes2vm7JSError13_finalizeImplEPNS0_6GCCellERNS0_7HadesGCE, symObjAddr: 0x0, symBinAddr: 0x3E004, symSize: 0x14 }
  - { offsetInCU: 0x3974E, offset: 0x672C67, size: 0x8, addend: 0x0, symName: __ZNKSt3__114default_deleteINS_6vectorIN6hermes2vm14StackTraceInfoENS_9allocatorIS4_EEEEEclB7v160006EPS7_, symObjAddr: 0x2DD0, symBinAddr: 0x402C0, symSize: 0x38 }
  - { offsetInCU: 0x39948, offset: 0x672E61, size: 0x8, addend: 0x0, symName: __ZN6hermes2vm7JSError15_mallocSizeImplEPNS0_6GCCellE, symObjAddr: 0x14, symBinAddr: 0x3E018, symSize: 0x24 }
  - { offsetInCU: 0x39995, offset: 0x672EAE, size: 0x8, addend: 0x0, symName: __ZN6hermes2vm7JSError15_mallocSizeImplEPNS0_6GCCellE, symObjAddr: 0x14, symBinAddr: 0x3E018, symSize: 0x24 }
  - { offsetInCU: 0x3A3BB, offset: 0x6738D4, size: 0x8, addend: 0x0, symName: __ZN6hermes2vm7JSError23getErrorFromStackTargetERNS0_7RuntimeENS0_6HandleINS0_8JSObjectEEE, symObjAddr: 0xAC, symBinAddr: 0x3E0B0, symSize: 0x1BC }
  - { offsetInCU: 0x3BE89, offset: 0x6753A2, size: 0x8, addend: 0x0, symName: __ZN6hermes2vm7JSError23constructCallSitesArrayERNS0_7RuntimeENS0_6HandleIS1_EE, symObjAddr: 0x614, symBinAddr: 0x3E618, symSize: 0x1E0 }
  - { offsetInCU: 0x3CEA1, offset: 0x6763BA, size: 0x8, addend: 0x0, symName: __ZN6hermes2vm7JSError8toStringENS0_6HandleINS0_8JSObjectEEERNS0_7RuntimeE, symObjAddr: 0xF00, symBinAddr: 0x3EEB4, symSize: 0x298 }
  - { offsetInCU: 0x3DD38, offset: 0x677251, size: 0x8, addend: 0x0, symName: __ZN6hermes2vm7JSError25appendFunctionNameAtIndexERNS0_7RuntimeENS0_6HandleIS1_EEmRN4llvh15SmallVectorImplIDsEE, symObjAddr: 0x23F4, symBinAddr: 0x401A4, symSize: 0x50 }
  - { offsetInCU: 0x3DE02, offset: 0x67731B, size: 0x8, addend: 0x0, symName: __ZN6hermes2vm7JSError12getDebugInfoEPNS0_9CodeBlockEj, symObjAddr: 0x215C, symBinAddr: 0x3FF0C, symSize: 0x8C }
  - { offsetInCU: 0x3DF7D, offset: 0x677496, size: 0x8, addend: 0x0, symName: __ZN4llvh12DenseMapBaseINS_8DenseMapIPKN6hermes2vm9CodeBlockEjNS_12DenseMapInfoIS6_EENS_6detail12DenseMapPairIS6_jEEEES6_jS8_SB_E11try_emplaceIJjEEENSt3__14pairINS_16DenseMapIteratorIS6_jS8_SB_Lb0EEEbEEOS6_DpOT_, symObjAddr: 0x3178, symBinAddr: 0x404D4, symSize: 0x8C }
  - { offsetInCU: 0x3E7A1, offset: 0x677CBA, size: 0x8, addend: 0x0, symName: __ZN6hermes2vm7JSError6createERNS0_7RuntimeENS0_6HandleINS0_8JSObjectEEE, symObjAddr: 0xE14, symBinAddr: 0x3EE18, symSize: 0x50 }
  - { offsetInCU: 0x3E97F, offset: 0x677E98, size: 0x8, addend: 0x0, symName: __ZN6hermes2vm7HadesGC5makeAINS0_7JSErrorELb1ELNS0_12HasFinalizerE1ELNS0_9LongLivedE0EJRNS0_7RuntimeERNS0_6HandleINS0_8JSObjectEEENS8_INS0_11HiddenClassEEERbEEEPT_jDpOT3_, symObjAddr: 0x2E08, symBinAddr: 0x402F8, symSize: 0x14C }
  - { offsetInCU: 0x3F0A3, offset: 0x6785BC, size: 0x8, addend: 0x0, symName: __ZN6hermes2vm7JSError17createUncatchableERNS0_7RuntimeENS0_6HandleINS0_8JSObjectEEE, symObjAddr: 0xEB4, symBinAddr: 0x3EE68, symSize: 0x4C }
  - { offsetInCU: 0x405A1, offset: 0x679ABA, size: 0x8, addend: 0x0, symName: __ZN6hermes2vm7JSError10setMessageENS0_6HandleIS1_EERNS0_7RuntimeENS2_INS0_11HermesValueEEE, symObjAddr: 0x1354, symBinAddr: 0x3F14C, symSize: 0xD4 }
  - { offsetInCU: 0x41703, offset: 0x67AC1C, size: 0x8, addend: 0x0, symName: __ZN6hermes2vm7JSError16recordStackTraceENS0_6HandleIS1_EERNS0_7RuntimeEbPNS0_9CodeBlockEPKNS_4inst4InstE, symObjAddr: 0x1428, symBinAddr: 0x3F220, symSize: 0xC90 }
  - { offsetInCU: 0x4825D, offset: 0x681776, size: 0x8, addend: 0x0, symName: __ZN6hermes2vm9GCPointerINS0_16ArrayStorageBaseINS0_13HermesValue32EEEE3setERNS0_11PointerBaseEPS4_RNS0_7HadesGCE, symObjAddr: 0x2100, symBinAddr: 0x3FEB0, symSize: 0x5C }
  - { offsetInCU: 0x488C9, offset: 0x681DE2, size: 0x8, addend: 0x0, symName: __ZN6hermes2vm7JSError22getFunctionNameAtIndexERNS0_7RuntimeENS0_6HandleIS1_EEm, symObjAddr: 0x21E8, symBinAddr: 0x3FF98, symSize: 0x20C }
  - { offsetInCU: 0x49988, offset: 0x682EA1, size: 0x8, addend: 0x0, symName: __ZN6hermes2vm7JSError23popFramesUntilInclusiveERNS0_7RuntimeENS0_6HandleIS1_EENS4_INS0_8CallableEEE, symObjAddr: 0x2584, symBinAddr: 0x401F4, symSize: 0xCC }
  - { offsetInCU: 0x499E0, offset: 0x682EF9, size: 0x8, addend: 0x0, symName: __ZN6hermes2vm7JSError23popFramesUntilInclusiveERNS0_7RuntimeENS0_6HandleIS1_EENS4_INS0_8CallableEEE, symObjAddr: 0x2584, symBinAddr: 0x401F4, symSize: 0xCC }
  - { offsetInCU: 0x499F6, offset: 0x682F0F, size: 0x8, addend: 0x0, symName: __ZN6hermes2vm7JSError23popFramesUntilInclusiveERNS0_7RuntimeENS0_6HandleIS1_EENS4_INS0_8CallableEEE, symObjAddr: 0x2584, symBinAddr: 0x401F4, symSize: 0xCC }
  - { offsetInCU: 0x4B113, offset: 0x68462C, size: 0x8, addend: 0x0, symName: __ZN6hermes2vm7JSErrorC2ERNS0_7RuntimeENS0_6HandleINS0_8JSObjectEEENS4_INS0_11HiddenClassEEEb, symObjAddr: 0x2F54, symBinAddr: 0x40444, symSize: 0x5C }
  - { offsetInCU: 0x4B194, offset: 0x6846AD, size: 0x8, addend: 0x0, symName: __ZN6hermes2vm7JSErrorC2ERNS0_7RuntimeENS0_6HandleINS0_8JSObjectEEENS4_INS0_11HiddenClassEEEb, symObjAddr: 0x2F54, symBinAddr: 0x40444, symSize: 0x5C }
  - { offsetInCU: 0x4BBBF, offset: 0x6850D8, size: 0x8, addend: 0x0, symName: __ZNK4llvh12DenseMapBaseINS_8DenseMapIPKN6hermes2vm9CodeBlockEjNS_12DenseMapInfoIS6_EENS_6detail12DenseMapPairIS6_jEEEES6_jS8_SB_E15LookupBucketForIS6_EEbRKT_RPKSB_, symObjAddr: 0x3204, symBinAddr: 0x40560, symSize: 0x9C }
  - { offsetInCU: 0x4BC7D, offset: 0x685196, size: 0x8, addend: 0x0, symName: __ZNK4llvh12DenseMapBaseINS_8DenseMapIPKN6hermes2vm9CodeBlockEjNS_12DenseMapInfoIS6_EENS_6detail12DenseMapPairIS6_jEEEES6_jS8_SB_E15LookupBucketForIS6_EEbRKT_RPKSB_, symObjAddr: 0x3204, symBinAddr: 0x40560, symSize: 0x9C }
  - { offsetInCU: 0x4BC9B, offset: 0x6851B4, size: 0x8, addend: 0x0, symName: __ZNK4llvh12DenseMapBaseINS_8DenseMapIPKN6hermes2vm9CodeBlockEjNS_12DenseMapInfoIS6_EENS_6detail12DenseMapPairIS6_jEEEES6_jS8_SB_E15LookupBucketForIS6_EEbRKT_RPKSB_, symObjAddr: 0x3204, symBinAddr: 0x40560, symSize: 0x9C }
  - { offsetInCU: 0x4BD47, offset: 0x685260, size: 0x8, addend: 0x0, symName: __ZN4llvh12DenseMapBaseINS_8DenseMapIPKN6hermes2vm9CodeBlockEjNS_12DenseMapInfoIS6_EENS_6detail12DenseMapPairIS6_jEEEES6_jS8_SB_E20InsertIntoBucketImplIS6_EEPSB_RKS6_RKT_SF_, symObjAddr: 0x32A0, symBinAddr: 0x405FC, symSize: 0xA8 }
  - { offsetInCU: 0x4C1AC, offset: 0x6856C5, size: 0x8, addend: 0x0, symName: __ZN4llvh8DenseMapIPKN6hermes2vm9CodeBlockEjNS_12DenseMapInfoIS5_EENS_6detail12DenseMapPairIS5_jEEE4growEj, symObjAddr: 0x3348, symBinAddr: 0x406A4, symSize: 0xB0 }
  - { offsetInCU: 0x4C3D4, offset: 0x6858ED, size: 0x8, addend: 0x0, symName: __ZN4llvh12DenseMapBaseINS_8DenseMapIPKN6hermes2vm9CodeBlockEjNS_12DenseMapInfoIS6_EENS_6detail12DenseMapPairIS6_jEEEES6_jS8_SB_E18moveFromOldBucketsEPSB_SE_, symObjAddr: 0x33F8, symBinAddr: 0x40754, symSize: 0xA8 }
  - { offsetInCU: 0x26, offset: 0x685C16, size: 0x8, addend: 0x0, symName: __ZN6hermes2vm20JSGeneratorBuildMetaEPKNS0_6GCCellERNS0_8Metadata7BuilderE, symObjAddr: 0x0, symBinAddr: 0x407FC, symSize: 0x5C }
  - { offsetInCU: 0x44, offset: 0x685C34, size: 0x8, addend: 0x0, symName: __ZN6hermes2vm11JSGenerator2vtE, symObjAddr: 0x218, symBinAddr: 0x202620, symSize: 0x0 }
  - { offsetInCU: 0x8121, offset: 0x68DD11, size: 0x8, addend: 0x0, symName: __ZN6hermes2vm20JSGeneratorBuildMetaEPKNS0_6GCCellERNS0_8Metadata7BuilderE, symObjAddr: 0x0, symBinAddr: 0x407FC, symSize: 0x5C }
  - { offsetInCU: 0x2E4FF, offset: 0x6B40EF, size: 0x8, addend: 0x0, symName: __ZN6hermes2vm11JSGenerator6createERNS0_7RuntimeENS0_6HandleINS0_22GeneratorInnerFunctionEEENS4_INS0_8JSObjectEEE, symObjAddr: 0x5C, symBinAddr: 0x40858, symSize: 0x90 }
  - { offsetInCU: 0x2E7ED, offset: 0x6B43DD, size: 0x8, addend: 0x0, symName: __ZN6hermes2vm6GCBase5makeAINS0_11JSGeneratorELb1ELNS0_12HasFinalizerE0ELNS0_9LongLivedE0EJRNS0_7RuntimeERNS0_6HandleINS0_8JSObjectEEENS8_INS0_11HiddenClassEEEEEEPT_jDpOT3_, symObjAddr: 0x148, symBinAddr: 0x40944, symSize: 0x78 }
  - { offsetInCU: 0x2EAA8, offset: 0x6B4698, size: 0x8, addend: 0x0, symName: __ZN6hermes2vm9GCPointerINS0_22GeneratorInnerFunctionEE3setERNS0_11PointerBaseEPS2_RNS0_7HadesGCE, symObjAddr: 0xEC, symBinAddr: 0x408E8, symSize: 0x5C }
  - { offsetInCU: 0x2F14D, offset: 0x6B4D3D, size: 0x8, addend: 0x0, symName: __ZN6hermes2vm11JSGeneratorC2ERNS0_7RuntimeENS0_6HandleINS0_8JSObjectEEENS4_INS0_11HiddenClassEEE, symObjAddr: 0x1C0, symBinAddr: 0x409BC, symSize: 0x54 }
  - { offsetInCU: 0x2F1BE, offset: 0x6B4DAE, size: 0x8, addend: 0x0, symName: __ZN6hermes2vm11JSGeneratorC2ERNS0_7RuntimeENS0_6HandleINS0_8JSObjectEEENS4_INS0_11HiddenClassEEE, symObjAddr: 0x1C0, symBinAddr: 0x409BC, symSize: 0x54 }
  - { offsetInCU: 0x26, offset: 0x6B5616, size: 0x8, addend: 0x0, symName: __ZN6hermes2vm8JSObject23_getOwnIndexedRangeImplEPS1_RNS0_7RuntimeE, symObjAddr: 0x0, symBinAddr: 0x40A10, symSize: 0x8 }
  - { offsetInCU: 0x44, offset: 0x6B5634, size: 0x8, addend: 0x0, symName: __ZN6hermes2vm8JSObject2vtE, symObjAddr: 0x8FF0, symBinAddr: 0x202680, symSize: 0x0 }
  - { offsetInCU: 0x9E94, offset: 0x6BF484, size: 0x8, addend: 0x0, symName: __ZN6hermes2vm17JSObjectBuildMetaEPKNS0_6GCCellERNS0_8Metadata7BuilderE, symObjAddr: 0x38, symBinAddr: 0x40A48, symSize: 0xC0 }
  - { offsetInCU: 0x9EBA, offset: 0x6BF4AA, size: 0x8, addend: 0x0, symName: __ZZN6hermes2vm17JSObjectBuildMetaEPKNS0_6GCCellERNS0_8Metadata7BuilderEE14directPropName, symObjAddr: 0x9050, symBinAddr: 0x2026E0, symSize: 0x0 }
  - { offsetInCU: 0xABBF, offset: 0x6C01AF, size: 0x8, addend: 0x0, symName: __ZN6hermes2vm12_GLOBAL__N_112proxyOpFlagsERNS0_7RuntimeENS0_11PropOpFlagsEPKcNS0_10CallResultIbLNS0_6detail20CallResultSpecializeE1EEE, symObjAddr: 0x674, symBinAddr: 0x41084, symSize: 0xA4 }
  - { offsetInCU: 0xAC20, offset: 0x6C0210, size: 0x8, addend: 0x0, symName: __ZN6hermes2vm12_GLOBAL__N_112proxyOpFlagsERNS0_7RuntimeENS0_11PropOpFlagsEPKcNS0_10CallResultIbLNS0_6detail20CallResultSpecializeE1EEE, symObjAddr: 0x674, symBinAddr: 0x41084, symSize: 0xA4 }
  - { offsetInCU: 0xB081, offset: 0x6C0671, size: 0x8, addend: 0x0, symName: __ZN6hermes2vm13toPropertyKeyERNS0_7RuntimeENS0_6HandleINS0_11HermesValueEEE, symObjAddr: 0x1194, symBinAddr: 0x41BA4, symSize: 0xB4 }
  - { offsetInCU: 0xB9FA, offset: 0x6C0FEA, size: 0x8, addend: 0x0, symName: __ZN6hermes2vmL36raiseErrorForOverridingStaticBuiltinENS0_6HandleINS0_8JSObjectEEERNS0_7RuntimeENS1_INS0_8SymbolIDEEE, symObjAddr: 0x417C, symBinAddr: 0x44A60, symSize: 0x484 }
  - { offsetInCU: 0xCB8B, offset: 0x6C217B, size: 0x8, addend: 0x0, symName: __ZN6hermes2vm21getForInPropertyNamesERNS0_7RuntimeENS0_6HandleINS0_8JSObjectEEERjS6_, symObjAddr: 0x73B4, symBinAddr: 0x47C8C, symSize: 0xB64 }
  - { offsetInCU: 0x42E7E, offset: 0x6F846E, size: 0x8, addend: 0x0, symName: __ZN6hermes2vm8JSObject23_getOwnIndexedRangeImplEPS1_RNS0_7RuntimeE, symObjAddr: 0x0, symBinAddr: 0x40A10, symSize: 0x8 }
  - { offsetInCU: 0x42EB0, offset: 0x6F84A0, size: 0x8, addend: 0x0, symName: __ZN6hermes2vm8JSObject19_haveOwnIndexedImplEPS1_RNS0_7RuntimeEj, symObjAddr: 0x8, symBinAddr: 0x40A18, symSize: 0x8 }
  - { offsetInCU: 0x42EE7, offset: 0x6F84D7, size: 0x8, addend: 0x0, symName: __ZN6hermes2vm8JSObject31_getOwnIndexedPropertyFlagsImplEPS1_RNS0_7RuntimeEj, symObjAddr: 0x10, symBinAddr: 0x40A20, symSize: 0x8 }
  - { offsetInCU: 0x42F22, offset: 0x6F8512, size: 0x8, addend: 0x0, symName: __ZN6hermes2vm8JSObject18_getOwnIndexedImplENS0_12PseudoHandleIS1_EERNS0_7RuntimeEj, symObjAddr: 0x18, symBinAddr: 0x40A28, symSize: 0x8 }
  - { offsetInCU: 0x42F55, offset: 0x6F8545, size: 0x8, addend: 0x0, symName: __ZN6hermes2vm8JSObject18_setOwnIndexedImplENS0_6HandleIS1_EERNS0_7RuntimeEjNS2_INS0_11HermesValueEEE, symObjAddr: 0x20, symBinAddr: 0x40A30, symSize: 0x8 }
  - { offsetInCU: 0x42F91, offset: 0x6F8581, size: 0x8, addend: 0x0, symName: __ZN6hermes2vm8JSObject21_deleteOwnIndexedImplENS0_6HandleIS1_EERNS0_7RuntimeEj, symObjAddr: 0x28, symBinAddr: 0x40A38, symSize: 0x8 }
  - { offsetInCU: 0x42FC4, offset: 0x6F85B4, size: 0x8, addend: 0x0, symName: __ZN6hermes2vm8JSObject23_checkAllOwnIndexedImplEPS1_RNS0_7RuntimeENS0_12ObjectVTable22CheckAllOwnIndexedModeE, symObjAddr: 0x30, symBinAddr: 0x40A40, symSize: 0x8 }
  - { offsetInCU: 0x43327, offset: 0x6F8917, size: 0x8, addend: 0x0, symName: __ZN6hermes2vm8JSObject6createERNS0_7RuntimeENS0_6HandleIS1_EE, symObjAddr: 0xF8, symBinAddr: 0x40B08, symSize: 0x68 }
  - { offsetInCU: 0x43556, offset: 0x6F8B46, size: 0x8, addend: 0x0, symName: __ZN6hermes2vm6GCBase5makeAINS0_8JSObjectELb1ELNS0_12HasFinalizerE0ELNS0_9LongLivedE0EJRNS0_7RuntimeERNS0_6HandleIS3_EENS8_INS0_11HiddenClassEEENS0_13GCPointerBase10NoBarriersEEEEPT_jDpOT3_, symObjAddr: 0x8BCC, symBinAddr: 0x49060, symSize: 0x78 }
  - { offsetInCU: 0x43832, offset: 0x6F8E22, size: 0x8, addend: 0x0, symName: __ZN6hermes2vm8JSObject6createERNS0_7RuntimeE, symObjAddr: 0x160, symBinAddr: 0x40B70, symSize: 0xC }
  - { offsetInCU: 0x43E9E, offset: 0x6F948E, size: 0x8, addend: 0x0, symName: __ZN6hermes2vm8JSObject6createERNS0_7RuntimeEj, symObjAddr: 0x16C, symBinAddr: 0x40B7C, symSize: 0xEC }
  - { offsetInCU: 0x4453E, offset: 0x6F9B2E, size: 0x8, addend: 0x0, symName: __ZN6hermes2vm16ArrayStorageBaseINS0_13HermesValue32EE6createERNS0_7RuntimeEjj, symObjAddr: 0x7F18, symBinAddr: 0x487F0, symSize: 0x5C }
  - { offsetInCU: 0x447C0, offset: 0x6F9DB0, size: 0x8, addend: 0x0, symName: __ZN6hermes2vm8JSObject6createERNS0_7RuntimeENS0_6HandleINS0_11HiddenClassEEE, symObjAddr: 0x258, symBinAddr: 0x40C68, symSize: 0xB4 }
  - { offsetInCU: 0x44C5B, offset: 0x6FA24B, size: 0x8, addend: 0x0, symName: __ZN6hermes2vm8JSObject6createERNS0_7RuntimeENS0_6HandleIS1_EENS4_INS0_11HiddenClassEEE, symObjAddr: 0x30C, symBinAddr: 0x40D1C, symSize: 0x54 }
  - { offsetInCU: 0x44D7D, offset: 0x6FA36D, size: 0x8, addend: 0x0, symName: __ZN6hermes2vm9GCPointerINS0_8JSObjectEE3setERNS0_11PointerBaseEPS2_RNS0_7HadesGCE, symObjAddr: 0x360, symBinAddr: 0x40D70, symSize: 0x5C }
  - { offsetInCU: 0x4504F, offset: 0x6FA63F, size: 0x8, addend: 0x0, symName: __ZN6hermes2vm8JSObject20initializeLazyObjectERNS0_7RuntimeENS0_6HandleIS1_EE, symObjAddr: 0x3BC, symBinAddr: 0x40DCC, symSize: 0x24 }
  - { offsetInCU: 0x4510F, offset: 0x6FA6FF, size: 0x8, addend: 0x0, symName: __ZN6hermes2vm8JSObject11getObjectIDEPS1_RNS0_7RuntimeE, symObjAddr: 0x3E0, symBinAddr: 0x40DF0, symSize: 0x44 }
  - { offsetInCU: 0x451EF, offset: 0x6FA7DF, size: 0x8, addend: 0x0, symName: __ZN6hermes2vm8JSObject14getPrototypeOfENS0_12PseudoHandleIS1_EERNS0_7RuntimeE, symObjAddr: 0x424, symBinAddr: 0x40E34, symSize: 0x7C }
  - { offsetInCU: 0x4550D, offset: 0x6FAAFD, size: 0x8, addend: 0x0, symName: __ZN6hermes2vm8JSObject9setParentEPS1_RNS0_7RuntimeES2_NS0_11PropOpFlagsE, symObjAddr: 0x4A0, symBinAddr: 0x40EB0, symSize: 0x1D4 }
  - { offsetInCU: 0x4677C, offset: 0x6FBD6C, size: 0x8, addend: 0x0, symName: __ZN6hermes2vm8JSObject22allocateNewSlotStorageENS0_6HandleIS1_EERNS0_7RuntimeEjNS2_INS0_11HermesValueEEE, symObjAddr: 0x718, symBinAddr: 0x41128, symSize: 0x348 }
  - { offsetInCU: 0x47ED7, offset: 0x6FD4C7, size: 0x8, addend: 0x0, symName: __ZN6hermes2vm13HermesValue3217encodeHermesValueENS0_11HermesValueERNS0_7RuntimeE, symObjAddr: 0xA60, symBinAddr: 0x41470, symSize: 0x13C }
  - { offsetInCU: 0x48771, offset: 0x6FDD61, size: 0x8, addend: 0x0, symName: __ZN6hermes2vm9GCPointerINS0_16ArrayStorageBaseINS0_13HermesValue32EEEE10setNonNullERNS0_11PointerBaseEPS4_RNS0_7HadesGCE, symObjAddr: 0xBE4, symBinAddr: 0x415F4, symSize: 0x54 }
  - { offsetInCU: 0x48978, offset: 0x6FDF68, size: 0x8, addend: 0x0, symName: __ZN6hermes2vm7Runtime17makeMutableHandleINS0_16ArrayStorageBaseINS0_13HermesValue32EEEEENS0_13MutableHandleIT_EERKNS0_9GCPointerIS7_EE, symObjAddr: 0xC38, symBinAddr: 0x41648, symSize: 0x54 }
  - { offsetInCU: 0x48C5C, offset: 0x6FE24C, size: 0x8, addend: 0x0, symName: __ZN6hermes2vm16ArrayStorageBaseINS0_13HermesValue32EE6createERNS0_7RuntimeEj, symObjAddr: 0xB9C, symBinAddr: 0x415AC, symSize: 0x48 }
  - { offsetInCU: 0x48DEF, offset: 0x6FE3DF, size: 0x8, addend: 0x0, symName: __ZN6hermes2vm6GCBase13makeAVariableINS0_16ArrayStorageBaseINS0_13HermesValue32EEELNS0_12HasFinalizerE0ELNS0_9LongLivedE0EJEEEPT_jDpOT2_, symObjAddr: 0x8C94, symBinAddr: 0x49128, symSize: 0x58 }
  - { offsetInCU: 0x491D7, offset: 0x6FE7C7, size: 0x8, addend: 0x0, symName: __ZN6hermes2vm8JSObject25getNamedPropertyValue_RJSENS0_6HandleIS1_EERNS0_7RuntimeES3_NS0_23NamedPropertyDescriptorE, symObjAddr: 0xC8C, symBinAddr: 0x4169C, symSize: 0xC4 }
  - { offsetInCU: 0x49567, offset: 0x6FEB57, size: 0x8, addend: 0x0, symName: __ZN6hermes2vm8JSObject17getNamedSlotValueENS0_6HandleIS1_EERNS0_7RuntimeENS0_23NamedPropertyDescriptorE, symObjAddr: 0xD50, symBinAddr: 0x41760, symSize: 0x190 }
  - { offsetInCU: 0x49DB2, offset: 0x6FF3A2, size: 0x8, addend: 0x0, symName: __ZN6hermes2vm7Runtime10makeHandleINS0_8CallableEEENS0_6HandleIT_EERKNS0_9GCPointerIS5_EE, symObjAddr: 0xEE0, symBinAddr: 0x418F0, symSize: 0x54 }
  - { offsetInCU: 0x4A255, offset: 0x6FF845, size: 0x8, addend: 0x0, symName: __ZN6hermes2vm8JSObject24getNamedWithReceiver_RJSENS0_6HandleIS1_EERNS0_7RuntimeENS0_8SymbolIDENS2_INS0_11HermesValueEEENS0_11PropOpFlagsEPNS0_18PropertyCacheEntryE, symObjAddr: 0x2CC4, symBinAddr: 0x43654, symSize: 0x3A4 }
  - { offsetInCU: 0x4B433, offset: 0x700A23, size: 0x8, addend: 0x0, symName: __ZN6hermes2vm8JSObject36getComputedPropertyValueInternal_RJSENS0_6HandleIS1_EERNS0_7RuntimeES3_NS0_26ComputedPropertyDescriptorE, symObjAddr: 0xF34, symBinAddr: 0x41944, symSize: 0x100 }
  - { offsetInCU: 0x4B7CE, offset: 0x700DBE, size: 0x8, addend: 0x0, symName: __ZN6hermes2vm8JSObject26getComputedSlotValueUnsafeENS0_12PseudoHandleIS1_EERNS0_7RuntimeENS0_26ComputedPropertyDescriptorE, symObjAddr: 0x1034, symBinAddr: 0x41A44, symSize: 0x8C }
  - { offsetInCU: 0x4BA71, offset: 0x701061, size: 0x8, addend: 0x0, symName: __ZNK6hermes2vm13HermesValue329unboxToHVERNS0_11PointerBaseE, symObjAddr: 0x1F54, symBinAddr: 0x428E4, symSize: 0xEC }
  - { offsetInCU: 0x4BF7C, offset: 0x70156C, size: 0x8, addend: 0x0, symName: __ZN6hermes2vm8JSObject28getComputedPropertyValue_RJSENS0_6HandleIS1_EERNS0_7RuntimeES3_RNS0_13MutableHandleINS0_8SymbolIDEEENS0_26ComputedPropertyDescriptorENS2_INS0_11HermesValueEEE, symObjAddr: 0x10C0, symBinAddr: 0x41AD0, symSize: 0xD4 }
  - { offsetInCU: 0x4CA82, offset: 0x702072, size: 0x8, addend: 0x0, symName: __ZN6hermes2vm8JSObject18getOwnPropertyKeysENS0_6HandleIS1_EERNS0_7RuntimeENS0_12OwnKeysFlagsE, symObjAddr: 0x1248, symBinAddr: 0x41C58, symSize: 0xACC }
  - { offsetInCU: 0x50AD5, offset: 0x7060C5, size: 0x8, addend: 0x0, symName: __ZN4llvh8SmallSetIjLj16ENSt3__14lessIjEEE6insertERKj, symObjAddr: 0x1E14, symBinAddr: 0x427A4, symSize: 0xE0 }
  - { offsetInCU: 0x50E19, offset: 0x706409, size: 0x8, addend: 0x0, symName: __ZN4llvh23SmallVectorTemplateBaseIjLb1EE9push_backERKj, symObjAddr: 0x1EF4, symBinAddr: 0x42884, symSize: 0x60 }
  - { offsetInCU: 0x50F6B, offset: 0x70655B, size: 0x8, addend: 0x0, symName: __ZNSt3__16__treeIjNS_4lessIjEENS_9allocatorIjEEE7destroyEPNS_11__tree_nodeIjPvEE, symObjAddr: 0x7F74, symBinAddr: 0x4884C, symSize: 0x40 }
  - { offsetInCU: 0x5127C, offset: 0x70686C, size: 0x8, addend: 0x0, symName: __ZNK4llvh8SmallSetIjLj16ENSt3__14lessIjEEE5countERKj, symObjAddr: 0x1D94, symBinAddr: 0x42724, symSize: 0x80 }
  - { offsetInCU: 0x512B5, offset: 0x7068A5, size: 0x8, addend: 0x0, symName: __ZNK4llvh8SmallSetIjLj16ENSt3__14lessIjEEE5countERKj, symObjAddr: 0x1D94, symBinAddr: 0x42724, symSize: 0x80 }
  - { offsetInCU: 0x512D3, offset: 0x7068C3, size: 0x8, addend: 0x0, symName: __ZNK4llvh8SmallSetIjLj16ENSt3__14lessIjEEE5countERKj, symObjAddr: 0x1D94, symBinAddr: 0x42724, symSize: 0x80 }
  - { offsetInCU: 0x51793, offset: 0x706D83, size: 0x8, addend: 0x0, symName: __ZNSt3__16__treeIjNS_4lessIjEENS_9allocatorIjEEE25__emplace_unique_key_argsIjJRKjEEENS_4pairINS_15__tree_iteratorIjPNS_11__tree_nodeIjPvEElEEbEERKT_DpOT0_, symObjAddr: 0x898C, symBinAddr: 0x48EB8, symSize: 0xB8 }
  - { offsetInCU: 0x51CC0, offset: 0x7072B0, size: 0x8, addend: 0x0, symName: __ZN6hermes2vm8JSObject33getOwnComputedPrimitiveDescriptorENS0_6HandleIS1_EERNS0_7RuntimeENS2_INS0_11HermesValueEEENS1_11IgnoreProxyERNS0_13MutableHandleINS0_8SymbolIDEEERNS0_26ComputedPropertyDescriptorE, symObjAddr: 0x2040, symBinAddr: 0x429D0, symSize: 0x334 }
  - { offsetInCU: 0x529AA, offset: 0x707F9A, size: 0x8, addend: 0x0, symName: __ZN6hermes2vm8JSObject24getOwnComputedDescriptorENS0_6HandleIS1_EERNS0_7RuntimeENS2_INS0_11HermesValueEEERNS0_13MutableHandleINS0_8SymbolIDEEERNS0_26ComputedPropertyDescriptorE, symObjAddr: 0x2374, symBinAddr: 0x42D04, symSize: 0x84 }
  - { offsetInCU: 0x52AC5, offset: 0x7080B5, size: 0x8, addend: 0x0, symName: __ZN6hermes2vm8JSObject24getOwnComputedDescriptorENS0_6HandleIS1_EERNS0_7RuntimeENS2_INS0_11HermesValueEEERNS0_13MutableHandleINS0_8SymbolIDEEERNS0_26ComputedPropertyDescriptorERNS8_IS6_EE, symObjAddr: 0x23F8, symBinAddr: 0x42D88, symSize: 0x174 }
  - { offsetInCU: 0x5304C, offset: 0x70863C, size: 0x8, addend: 0x0, symName: __ZN6hermes2vm8JSObject24getNamedDescriptorUnsafeENS0_6HandleIS1_EERNS0_7RuntimeENS0_8SymbolIDENS0_13PropertyFlagsERNS0_23NamedPropertyDescriptorE, symObjAddr: 0x256C, symBinAddr: 0x42EFC, symSize: 0x228 }
  - { offsetInCU: 0x53A7B, offset: 0x70906B, size: 0x8, addend: 0x0, symName: __ZN6hermes2vm8JSObject30getComputedPrimitiveDescriptorENS0_6HandleIS1_EERNS0_7RuntimeENS2_INS0_11HermesValueEEERNS0_13MutableHandleIS1_EERNS8_INS0_8SymbolIDEEERNS0_26ComputedPropertyDescriptorE, symObjAddr: 0x2794, symBinAddr: 0x43124, symSize: 0x410 }
  - { offsetInCU: 0x54E18, offset: 0x70A408, size: 0x8, addend: 0x0, symName: __ZN6hermes2vm8JSObject21getComputedDescriptorENS0_6HandleIS1_EERNS0_7RuntimeENS2_INS0_11HermesValueEEERNS0_13MutableHandleIS1_EERNS8_INS0_8SymbolIDEEERNS0_26ComputedPropertyDescriptorE, symObjAddr: 0x2BA4, symBinAddr: 0x43534, symSize: 0x120 }
  - { offsetInCU: 0x556F8, offset: 0x70ACE8, size: 0x8, addend: 0x0, symName: __ZN6hermes2vm8JSObject17getNamedOrIndexedENS0_6HandleIS1_EERNS0_7RuntimeENS0_8SymbolIDENS0_11PropOpFlagsE, symObjAddr: 0x3114, symBinAddr: 0x439F8, symSize: 0xC8 }
  - { offsetInCU: 0x55AEA, offset: 0x70B0DA, size: 0x8, addend: 0x0, symName: __ZN6hermes2vm8JSObject27getComputedWithReceiver_RJSENS0_6HandleIS1_EERNS0_7RuntimeENS2_INS0_11HermesValueEEES7_, symObjAddr: 0x31DC, symBinAddr: 0x43AC0, symSize: 0x32C }
  - { offsetInCU: 0x567B8, offset: 0x70BDA8, size: 0x8, addend: 0x0, symName: __ZN6hermes2vm8JSObject8hasNamedENS0_6HandleIS1_EERNS0_7RuntimeENS0_8SymbolIDE, symObjAddr: 0x3508, symBinAddr: 0x43DEC, symSize: 0xB0 }
  - { offsetInCU: 0x56AF9, offset: 0x70C0E9, size: 0x8, addend: 0x0, symName: __ZN6hermes2vm8JSObject17hasNamedOrIndexedENS0_6HandleIS1_EERNS0_7RuntimeENS0_8SymbolIDE, symObjAddr: 0x35B8, symBinAddr: 0x43E9C, symSize: 0xD8 }
  - { offsetInCU: 0x56E0A, offset: 0x70C3FA, size: 0x8, addend: 0x0, symName: __ZN6hermes2vm8JSObject11hasComputedENS0_6HandleIS1_EERNS0_7RuntimeENS2_INS0_11HermesValueEEE, symObjAddr: 0x3690, symBinAddr: 0x43F74, symSize: 0x1D4 }
  - { offsetInCU: 0x5767A, offset: 0x70CC6A, size: 0x8, addend: 0x0, symName: __ZN6hermes2vm8JSObject24putNamedWithReceiver_RJSENS0_6HandleIS1_EERNS0_7RuntimeENS0_8SymbolIDENS2_INS0_11HermesValueEEES8_NS0_11PropOpFlagsE, symObjAddr: 0x3864, symBinAddr: 0x44148, symSize: 0x894 }
  - { offsetInCU: 0x5A389, offset: 0x70F979, size: 0x8, addend: 0x0, symName: __ZN6hermes2vm8JSObject14addOwnPropertyENS0_6HandleIS1_EERNS0_7RuntimeENS0_8SymbolIDENS0_19DefinePropertyFlagsENS2_INS0_11HermesValueEEENS0_11PropOpFlagsE, symObjAddr: 0x469C, symBinAddr: 0x44F74, symSize: 0x204 }
  - { offsetInCU: 0x5A99D, offset: 0x70FF8D, size: 0x8, addend: 0x0, symName: __ZN6hermes2vm8JSObject23setNamedSlotValueUnsafeEPS1_RNS0_7RuntimeENS0_23NamedPropertyDescriptorENS0_13HermesValue32E, symObjAddr: 0x40F8, symBinAddr: 0x449DC, symSize: 0x84 }
  - { offsetInCU: 0x5AB3D, offset: 0x71012D, size: 0x8, addend: 0x0, symName: __ZN6hermes2vm15HandleRootOwner10makeHandleENS0_8SymbolIDE, symObjAddr: 0x4600, symBinAddr: 0x44EE4, symSize: 0x48 }
  - { offsetInCU: 0x5AE8F, offset: 0x71047F, size: 0x8, addend: 0x0, symName: __ZN6hermes2vm8JSObject17getNamedSlotValueENS0_12PseudoHandleIS1_EERNS0_7RuntimeENS0_23NamedPropertyDescriptorE, symObjAddr: 0x8114, symBinAddr: 0x4888C, symSize: 0x1C8 }
  - { offsetInCU: 0x5B85A, offset: 0x710E4A, size: 0x8, addend: 0x0, symName: __ZN6hermes2vm8JSObject21getOwnNamedDescriptorENS0_6HandleIS1_EERNS0_7RuntimeENS0_8SymbolIDERNS0_23NamedPropertyDescriptorE, symObjAddr: 0x4654, symBinAddr: 0x44F2C, symSize: 0x48 }
  - { offsetInCU: 0x5BA2B, offset: 0x71101B, size: 0x8, addend: 0x0, symName: __ZN6hermes2vm8JSObject18addOwnPropertyImplENS0_6HandleIS1_EERNS0_7RuntimeENS0_8SymbolIDENS0_13PropertyFlagsENS2_INS0_11HermesValueEEE, symObjAddr: 0x5F20, symBinAddr: 0x467F8, symSize: 0x178 }
  - { offsetInCU: 0x5C3AB, offset: 0x71199B, size: 0x8, addend: 0x0, symName: __ZN6hermes2vm8JSObject17putNamedOrIndexedENS0_6HandleIS1_EERNS0_7RuntimeENS0_8SymbolIDENS2_INS0_11HermesValueEEENS0_11PropOpFlagsE, symObjAddr: 0x48A0, symBinAddr: 0x45178, symSize: 0xE0 }
  - { offsetInCU: 0x5C7CB, offset: 0x711DBB, size: 0x8, addend: 0x0, symName: __ZN6hermes2vm8JSObject27putComputedWithReceiver_RJSENS0_6HandleIS1_EERNS0_7RuntimeENS2_INS0_11HermesValueEEES7_S7_NS0_11PropOpFlagsE, symObjAddr: 0x4980, symBinAddr: 0x45258, symSize: 0x8E0 }
  - { offsetInCU: 0x5EEBD, offset: 0x7144AD, size: 0x8, addend: 0x0, symName: __ZN6hermes2vm8JSObject11deleteNamedENS0_6HandleIS1_EERNS0_7RuntimeENS0_8SymbolIDENS0_11PropOpFlagsE, symObjAddr: 0x5260, symBinAddr: 0x45B38, symSize: 0x2AC }
  - { offsetInCU: 0x5FC97, offset: 0x715287, size: 0x8, addend: 0x0, symName: __ZN6hermes2vm8JSObject14deleteComputedENS0_6HandleIS1_EERNS0_7RuntimeENS2_INS0_11HermesValueEEENS0_11PropOpFlagsE, symObjAddr: 0x550C, symBinAddr: 0x45DE4, symSize: 0x424 }
  - { offsetInCU: 0x60E38, offset: 0x716428, size: 0x8, addend: 0x0, symName: __ZN6hermes2vm8JSObject25defineOwnPropertyInternalENS0_6HandleIS1_EERNS0_7RuntimeENS0_8SymbolIDENS0_19DefinePropertyFlagsENS2_INS0_11HermesValueEEENS0_11PropOpFlagsE, symObjAddr: 0x5930, symBinAddr: 0x46208, symSize: 0x198 }
  - { offsetInCU: 0x613F9, offset: 0x7169E9, size: 0x8, addend: 0x0, symName: __ZN6hermes2vm8JSObject17updateOwnPropertyENS0_6HandleIS1_EERNS0_7RuntimeENS0_8SymbolIDENS0_15DictPropertyMap11PropertyPosENS0_23NamedPropertyDescriptorENS0_19DefinePropertyFlagsENS2_INS0_11HermesValueEEENS0_11PropOpFlagsE, symObjAddr: 0x5AC8, symBinAddr: 0x463A0, symSize: 0x44C }
  - { offsetInCU: 0x624CE, offset: 0x717ABE, size: 0x8, addend: 0x0, symName: __ZN6hermes2vm8JSObject19checkPropertyUpdateERNS0_7RuntimeENS0_13PropertyFlagsENS0_19DefinePropertyFlagsENS0_11HermesValueENS0_6HandleIS6_EENS0_11PropOpFlagsE, symObjAddr: 0x672C, symBinAddr: 0x47004, symSize: 0x318 }
  - { offsetInCU: 0x62D88, offset: 0x718378, size: 0x8, addend: 0x0, symName: __ZN6hermes2vm8JSObject20defineNewOwnPropertyENS0_6HandleIS1_EERNS0_7RuntimeENS0_8SymbolIDENS0_13PropertyFlagsENS2_INS0_11HermesValueEEE, symObjAddr: 0x5F14, symBinAddr: 0x467EC, symSize: 0xC }
  - { offsetInCU: 0x62E9E, offset: 0x71848E, size: 0x8, addend: 0x0, symName: __ZN6hermes2vm8JSObject26defineOwnComputedPrimitiveENS0_6HandleIS1_EERNS0_7RuntimeENS2_INS0_11HermesValueEEENS0_19DefinePropertyFlagsES7_NS0_11PropOpFlagsE, symObjAddr: 0x6098, symBinAddr: 0x46970, symSize: 0x694 }
  - { offsetInCU: 0x649E1, offset: 0x719FD1, size: 0x8, addend: 0x0, symName: __ZN6hermes2vm8JSObject17defineOwnComputedENS0_6HandleIS1_EERNS0_7RuntimeENS2_INS0_11HermesValueEEENS0_19DefinePropertyFlagsES7_NS0_11PropOpFlagsE, symObjAddr: 0x6A44, symBinAddr: 0x4731C, symSize: 0x94 }
  - { offsetInCU: 0x64B9F, offset: 0x71A18F, size: 0x8, addend: 0x0, symName: __ZN6hermes2vm8JSObject15getNameIfExistsERNS0_11PointerBaseE, symObjAddr: 0x6AD8, symBinAddr: 0x473B0, symSize: 0x2C4 }
  - { offsetInCU: 0x65C9B, offset: 0x71B28B, size: 0x8, addend: 0x0, symName: __ZN6hermes2vm8JSObject17preventExtensionsEPS1_, symObjAddr: 0x6D9C, symBinAddr: 0x47674, symSize: 0x10 }
  - { offsetInCU: 0x65CD0, offset: 0x71B2C0, size: 0x8, addend: 0x0, symName: __ZN6hermes2vm8JSObject17preventExtensionsENS0_6HandleIS1_EERNS0_7RuntimeENS0_11PropOpFlagsE, symObjAddr: 0x6DAC, symBinAddr: 0x47684, symSize: 0x28 }
  - { offsetInCU: 0x65D04, offset: 0x71B2F4, size: 0x8, addend: 0x0, symName: __ZN6hermes2vm8JSObject17preventExtensionsENS0_6HandleIS1_EERNS0_7RuntimeENS0_11PropOpFlagsE, symObjAddr: 0x6DAC, symBinAddr: 0x47684, symSize: 0x28 }
  - { offsetInCU: 0x65D1A, offset: 0x71B30A, size: 0x8, addend: 0x0, symName: __ZN6hermes2vm8JSObject17preventExtensionsENS0_6HandleIS1_EERNS0_7RuntimeENS0_11PropOpFlagsE, symObjAddr: 0x6DAC, symBinAddr: 0x47684, symSize: 0x28 }
  - { offsetInCU: 0x65DEA, offset: 0x71B3DA, size: 0x8, addend: 0x0, symName: __ZN6hermes2vm8JSObject4sealENS0_6HandleIS1_EERNS0_7RuntimeE, symObjAddr: 0x6DD4, symBinAddr: 0x476AC, symSize: 0x11C }
  - { offsetInCU: 0x6659D, offset: 0x71BB8D, size: 0x8, addend: 0x0, symName: __ZN6hermes2vm8JSObject6freezeENS0_6HandleIS1_EERNS0_7RuntimeE, symObjAddr: 0x6EF0, symBinAddr: 0x477C8, symSize: 0x130 }
  - { offsetInCU: 0x66DCA, offset: 0x71C3BA, size: 0x8, addend: 0x0, symName: __ZN6hermes2vm8JSObject37updatePropertyFlagsWithoutTransitionsENS0_6HandleIS1_EERNS0_7RuntimeENS0_13PropertyFlagsES6_NS_8OptValueIN4llvh8ArrayRefINS0_8SymbolIDEEEEE, symObjAddr: 0x7020, symBinAddr: 0x478F8, symSize: 0xFC }
  - { offsetInCU: 0x67477, offset: 0x71CA67, size: 0x8, addend: 0x0, symName: __ZN6hermes2vm8JSObject12isExtensibleENS0_12PseudoHandleIS1_EERNS0_7RuntimeE, symObjAddr: 0x711C, symBinAddr: 0x479F4, symSize: 0x7C }
  - { offsetInCU: 0x676D4, offset: 0x71CCC4, size: 0x8, addend: 0x0, symName: __ZN6hermes2vm8JSObject8isSealedENS0_12PseudoHandleIS1_EERNS0_7RuntimeE, symObjAddr: 0x7198, symBinAddr: 0x47A70, symSize: 0x108 }
  - { offsetInCU: 0x67D3D, offset: 0x71D32D, size: 0x8, addend: 0x0, symName: __ZN6hermes2vm8JSObject8isFrozenENS0_12PseudoHandleIS1_EERNS0_7RuntimeE, symObjAddr: 0x72A0, symBinAddr: 0x47B78, symSize: 0x114 }
  - { offsetInCU: 0x69305, offset: 0x71E8F5, size: 0x8, addend: 0x0, symName: __ZN6hermes2vm18SegmentedArrayBaseINS0_11HermesValueEE5clearERNS0_7RuntimeE, symObjAddr: 0x8308, symBinAddr: 0x48A54, symSize: 0x38 }
  - { offsetInCU: 0x69368, offset: 0x71E958, size: 0x8, addend: 0x0, symName: __ZN6hermes2vm18SegmentedArrayBaseINS0_11HermesValueEE5clearERNS0_7RuntimeE, symObjAddr: 0x8308, symBinAddr: 0x48A54, symSize: 0x38 }
  - { offsetInCU: 0x6938F, offset: 0x71E97F, size: 0x8, addend: 0x0, symName: __ZN6hermes2vm18SegmentedArrayBaseINS0_11HermesValueEE5clearERNS0_7RuntimeE, symObjAddr: 0x8308, symBinAddr: 0x48A54, symSize: 0x38 }
  - { offsetInCU: 0x69669, offset: 0x71EC59, size: 0x8, addend: 0x0, symName: __ZNK4llvh8SmallSetIdLj4ENSt3__14lessIdEEE5countERKd, symObjAddr: 0x8340, symBinAddr: 0x48A8C, symSize: 0x80 }
  - { offsetInCU: 0x696A2, offset: 0x71EC92, size: 0x8, addend: 0x0, symName: __ZNK4llvh8SmallSetIdLj4ENSt3__14lessIdEEE5countERKd, symObjAddr: 0x8340, symBinAddr: 0x48A8C, symSize: 0x80 }
  - { offsetInCU: 0x696C0, offset: 0x71ECB0, size: 0x8, addend: 0x0, symName: __ZNK4llvh8SmallSetIdLj4ENSt3__14lessIdEEE5countERKd, symObjAddr: 0x8340, symBinAddr: 0x48A8C, symSize: 0x80 }
  - { offsetInCU: 0x69803, offset: 0x71EDF3, size: 0x8, addend: 0x0, symName: __ZNK4llvh8SmallSetIjLj4ENSt3__14lessIjEEE5countERKj, symObjAddr: 0x83C0, symBinAddr: 0x48B0C, symSize: 0x80 }
  - { offsetInCU: 0x6983C, offset: 0x71EE2C, size: 0x8, addend: 0x0, symName: __ZNK4llvh8SmallSetIjLj4ENSt3__14lessIjEEE5countERKj, symObjAddr: 0x83C0, symBinAddr: 0x48B0C, symSize: 0x80 }
  - { offsetInCU: 0x6985A, offset: 0x71EE4A, size: 0x8, addend: 0x0, symName: __ZNK4llvh8SmallSetIjLj4ENSt3__14lessIjEEE5countERKj, symObjAddr: 0x83C0, symBinAddr: 0x48B0C, symSize: 0x80 }
  - { offsetInCU: 0x6999D, offset: 0x71EF8D, size: 0x8, addend: 0x0, symName: __ZN4llvh8SmallSetIjLj4ENSt3__14lessIjEEE6insertERKj, symObjAddr: 0x85A8, symBinAddr: 0x48C6C, symSize: 0xE0 }
  - { offsetInCU: 0x69CDF, offset: 0x71F2CF, size: 0x8, addend: 0x0, symName: __ZN4llvh8SmallSetIdLj4ENSt3__14lessIdEEE6insertERKd, symObjAddr: 0x84C8, symBinAddr: 0x48B8C, symSize: 0xE0 }
  - { offsetInCU: 0x6A021, offset: 0x71F611, size: 0x8, addend: 0x0, symName: __ZNSt3__16__treeIdNS_4lessIdEENS_9allocatorIdEEE7destroyEPNS_11__tree_nodeIdPvEE, symObjAddr: 0x8A98, symBinAddr: 0x48FC4, symSize: 0x40 }
  - { offsetInCU: 0x6A16C, offset: 0x71F75C, size: 0x8, addend: 0x0, symName: __ZN6hermes2vm9GCPointerINS0_18SegmentedArrayBaseINS0_11HermesValueEEEE3setERNS0_11PointerBaseEPS4_RNS0_7HadesGCE, symObjAddr: 0x8AD8, symBinAddr: 0x49004, symSize: 0x5C }
  - { offsetInCU: 0x6AD09, offset: 0x7202F9, size: 0x8, addend: 0x0, symName: __ZNSt3__16__treeIdNS_4lessIdEENS_9allocatorIdEEE25__emplace_unique_key_argsIdJRKdEEENS_4pairINS_15__tree_iteratorIdPNS_11__tree_nodeIdPvEElEEbEERKT_DpOT0_, symObjAddr: 0x86E8, symBinAddr: 0x48DAC, symSize: 0xB8 }
  - { offsetInCU: 0x6AFA1, offset: 0x720591, size: 0x8, addend: 0x0, symName: __ZN4llvh23SmallVectorTemplateBaseIdLb1EE9push_backERKd, symObjAddr: 0x8688, symBinAddr: 0x48D4C, symSize: 0x60 }
  - { offsetInCU: 0x6B2B4, offset: 0x7208A4, size: 0x8, addend: 0x0, symName: __ZNSt3__16__treeIdNS_4lessIdEENS_9allocatorIdEEE16__insert_node_atEPNS_15__tree_end_nodeIPNS_16__tree_node_baseIPvEEEERSA_SA_, symObjAddr: 0x87A0, symBinAddr: 0x48E64, symSize: 0x54 }
  - { offsetInCU: 0x6B4C7, offset: 0x720AB7, size: 0x8, addend: 0x0, symName: __ZNSt3__16__treeIjNS_4lessIjEENS_9allocatorIjEEE16__insert_node_atEPNS_15__tree_end_nodeIPNS_16__tree_node_baseIPvEEEERSA_SA_, symObjAddr: 0x8A44, symBinAddr: 0x48F70, symSize: 0x54 }
  - { offsetInCU: 0x6B954, offset: 0x720F44, size: 0x8, addend: 0x0, symName: __ZN6hermes2vm8JSObjectC2INS0_13GCPointerBase10NoBarriersEEERNS0_7RuntimeENS0_6HandleIS1_EENS7_INS0_11HiddenClassEEET_, symObjAddr: 0x8C44, symBinAddr: 0x490D8, symSize: 0x50 }
  - { offsetInCU: 0x6B9BA, offset: 0x720FAA, size: 0x8, addend: 0x0, symName: __ZN6hermes2vm8JSObjectC2INS0_13GCPointerBase10NoBarriersEEERNS0_7RuntimeENS0_6HandleIS1_EENS7_INS0_11HiddenClassEEET_, symObjAddr: 0x8C44, symBinAddr: 0x490D8, symSize: 0x50 }
  - { offsetInCU: 0x6B9D9, offset: 0x720FC9, size: 0x8, addend: 0x0, symName: __ZN6hermes2vm8JSObjectC2INS0_13GCPointerBase10NoBarriersEEERNS0_7RuntimeENS0_6HandleIS1_EENS7_INS0_11HiddenClassEEET_, symObjAddr: 0x8C44, symBinAddr: 0x490D8, symSize: 0x50 }
  - { offsetInCU: 0x26, offset: 0x72165F, size: 0x8, addend: 0x0, symName: __ZN6hermes2vm6detail5slotsEPNS0_8JSObjectE, symObjAddr: 0x0, symBinAddr: 0x49180, symSize: 0x34 }
  - { offsetInCU: 0x5A, offset: 0x721693, size: 0x8, addend: 0x0, symName: __ZN6hermes2vm7JSProxy2vtE, symObjAddr: 0x5FE0, symBinAddr: 0x202708, symSize: 0x0 }
  - { offsetInCU: 0x333E, offset: 0x724977, size: 0x8, addend: 0x0, symName: __ZN6hermes2vm6detail5slotsEPNS0_8JSObjectE, symObjAddr: 0x0, symBinAddr: 0x49180, symSize: 0x34 }
  - { offsetInCU: 0x335C, offset: 0x724995, size: 0x8, addend: 0x0, symName: __ZN6hermes2vm6detail5slotsEPNS0_8JSObjectE, symObjAddr: 0x0, symBinAddr: 0x49180, symSize: 0x34 }
  - { offsetInCU: 0x3374, offset: 0x7249AD, size: 0x8, addend: 0x0, symName: __ZN6hermes2vm6detail5slotsEPNS0_8JSObjectE, symObjAddr: 0x0, symBinAddr: 0x49180, symSize: 0x34 }
  - { offsetInCU: 0x3391, offset: 0x7249CA, size: 0x8, addend: 0x0, symName: __ZN6hermes2vm6detail5slotsEPNS0_8JSObjectE, symObjAddr: 0x0, symBinAddr: 0x49180, symSize: 0x34 }
  - { offsetInCU: 0x33AF, offset: 0x7249E8, size: 0x8, addend: 0x0, symName: __ZN6hermes2vm6detail5slotsEPNS0_8JSObjectE, symObjAddr: 0x0, symBinAddr: 0x49180, symSize: 0x34 }
  - { offsetInCU: 0x33C5, offset: 0x7249FE, size: 0x8, addend: 0x0, symName: __ZN6hermes2vm6detail5slotsEPNS0_8JSObjectE, symObjAddr: 0x0, symBinAddr: 0x49180, symSize: 0x34 }
  - { offsetInCU: 0x33DA, offset: 0x724A13, size: 0x8, addend: 0x0, symName: __ZN6hermes2vm6detail5slotsEPNS0_8JSObjectE, symObjAddr: 0x0, symBinAddr: 0x49180, symSize: 0x34 }
  - { offsetInCU: 0x33EF, offset: 0x724A28, size: 0x8, addend: 0x0, symName: __ZN6hermes2vm6detail5slotsEPNS0_8JSObjectE, symObjAddr: 0x0, symBinAddr: 0x49180, symSize: 0x34 }
  - { offsetInCU: 0x340C, offset: 0x724A45, size: 0x8, addend: 0x0, symName: __ZN6hermes2vm6detail5slotsEPNS0_8JSObjectE, symObjAddr: 0x0, symBinAddr: 0x49180, symSize: 0x34 }
  - { offsetInCU: 0x3429, offset: 0x724A62, size: 0x8, addend: 0x0, symName: __ZN6hermes2vm6detail5slotsEPNS0_8JSObjectE, symObjAddr: 0x0, symBinAddr: 0x49180, symSize: 0x34 }
  - { offsetInCU: 0x3446, offset: 0x724A7F, size: 0x8, addend: 0x0, symName: __ZN6hermes2vm6detail5slotsEPNS0_8JSObjectE, symObjAddr: 0x0, symBinAddr: 0x49180, symSize: 0x34 }
  - { offsetInCU: 0x3463, offset: 0x724A9C, size: 0x8, addend: 0x0, symName: __ZN6hermes2vm6detail5slotsEPNS0_8JSObjectE, symObjAddr: 0x0, symBinAddr: 0x49180, symSize: 0x34 }
  - { offsetInCU: 0x34C4, offset: 0x724AFD, size: 0x8, addend: 0x0, symName: __ZN6hermes2vm6detail8findTrapENS0_6HandleINS0_8JSObjectEEERNS0_7RuntimeENS0_10Predefined3StrE, symObjAddr: 0x34, symBinAddr: 0x491B4, symSize: 0x23C }
  - { offsetInCU: 0x98B9, offset: 0x72AEF2, size: 0x8, addend: 0x0, symName: __ZN6hermes2vm16JSProxyBuildMetaEPKNS0_6GCCellERNS0_8Metadata7BuilderE, symObjAddr: 0x2C4, symBinAddr: 0x493F0, symSize: 0x74 }
  - { offsetInCU: 0x9B09, offset: 0x72B142, size: 0x8, addend: 0x0, symName: __ZN6hermes2vm12_GLOBAL__N_126completePropertyDescriptorERNS0_19DefinePropertyFlagsE, symObjAddr: 0x1550, symBinAddr: 0x4A620, symSize: 0x58 }
  - { offsetInCU: 0x9B32, offset: 0x72B16B, size: 0x8, addend: 0x0, symName: __ZN6hermes2vm12_GLOBAL__N_130isCompatiblePropertyDescriptorERNS0_7RuntimeERKNS0_19DefinePropertyFlagsENS0_6HandleINS0_11HermesValueEEERKNS0_26ComputedPropertyDescriptorES9_, symObjAddr: 0x15A8, symBinAddr: 0x4A678, symSize: 0x410 }
  - { offsetInCU: 0xAAEB, offset: 0x72C124, size: 0x8, addend: 0x0, symName: __ZN6hermes2vm12_GLOBAL__N_111hasWithTrapERNS0_7RuntimeENS0_6HandleINS0_11HermesValueEEENS4_INS0_8CallableEEENS4_INS0_8JSObjectEEESA_, symObjAddr: 0x2054, symBinAddr: 0x4B124, symSize: 0x15C }
  - { offsetInCU: 0xAFE1, offset: 0x72C61A, size: 0x8, addend: 0x0, symName: __ZN6hermes2vm12_GLOBAL__N_111getWithTrapERNS0_7RuntimeENS0_6HandleINS0_11HermesValueEEENS4_INS0_8CallableEEENS4_INS0_8JSObjectEEESA_S6_, symObjAddr: 0x267C, symBinAddr: 0x4B74C, symSize: 0x1EC }
  - { offsetInCU: 0xB947, offset: 0x72CF80, size: 0x8, addend: 0x0, symName: __ZN6hermes2vm12_GLOBAL__N_111setWithTrapERNS0_7RuntimeENS0_6HandleINS0_11HermesValueEEES6_NS4_INS0_8CallableEEENS4_INS0_8JSObjectEEESA_S6_, symObjAddr: 0x2D50, symBinAddr: 0x4BE20, symSize: 0x1C4 }
  - { offsetInCU: 0xC08D, offset: 0x72D6C6, size: 0x8, addend: 0x0, symName: __ZN6hermes2vm12_GLOBAL__N_114deleteWithTrapERNS0_7RuntimeENS0_6HandleINS0_11HermesValueEEENS4_INS0_8CallableEEENS4_INS0_8JSObjectEEESA_, symObjAddr: 0x33C8, symBinAddr: 0x4C498, symSize: 0x15C }
  - { offsetInCU: 0xC604, offset: 0x72DC3D, size: 0x8, addend: 0x0, symName: __ZN6hermes2vm12_GLOBAL__N_110filterKeysENS0_6HandleINS0_8JSObjectEEENS2_INS0_7JSArrayEEERNS0_7RuntimeENS0_12OwnKeysFlagsE, symObjAddr: 0x43A4, symBinAddr: 0x4D474, symSize: 0x370 }
  - { offsetInCU: 0x360C2, offset: 0x7576FB, size: 0x8, addend: 0x0, symName: __ZN6hermes2vm7JSProxy6createERNS0_7RuntimeE, symObjAddr: 0x338, symBinAddr: 0x49464, symSize: 0x7C }
  - { offsetInCU: 0x362C4, offset: 0x7578FD, size: 0x8, addend: 0x0, symName: __ZN6hermes2vm6GCBase5makeAINS0_7JSProxyELb1ELNS0_12HasFinalizerE0ELNS0_9LongLivedE0EJRNS0_7RuntimeENS0_6HandleINS0_8JSObjectEEENS8_INS0_11HiddenClassEEEEEEPT_jDpOT3_, symObjAddr: 0x4D8C, symBinAddr: 0x4DB58, symSize: 0x78 }
  - { offsetInCU: 0x36582, offset: 0x757BBB, size: 0x8, addend: 0x0, symName: __ZN6hermes2vm7JSProxy19setTargetAndHandlerENS0_6HandleINS0_8JSObjectEEERNS0_7RuntimeES4_S4_, symObjAddr: 0x3B4, symBinAddr: 0x494E0, symSize: 0x94 }
  - { offsetInCU: 0x36D9E, offset: 0x7583D7, size: 0x8, addend: 0x0, symName: __ZN6hermes2vm7JSProxy14getPrototypeOfENS0_6HandleINS0_8JSObjectEEERNS0_7RuntimeE, symObjAddr: 0x4A4, symBinAddr: 0x49574, symSize: 0x310 }
  - { offsetInCU: 0x37FDD, offset: 0x759616, size: 0x8, addend: 0x0, symName: __ZN6hermes2vm7JSProxy14setPrototypeOfENS0_6HandleINS0_8JSObjectEEERNS0_7RuntimeES4_, symObjAddr: 0x7B4, symBinAddr: 0x49884, symSize: 0x2D8 }
  - { offsetInCU: 0x38ECB, offset: 0x75A504, size: 0x8, addend: 0x0, symName: __ZN6hermes2vm7JSProxy12isExtensibleENS0_6HandleINS0_8JSObjectEEERNS0_7RuntimeE, symObjAddr: 0xA8C, symBinAddr: 0x49B5C, symSize: 0x288 }
  - { offsetInCU: 0x39BA0, offset: 0x75B1D9, size: 0x8, addend: 0x0, symName: __ZN6hermes2vm7JSProxy17preventExtensionsENS0_6HandleINS0_8JSObjectEEERNS0_7RuntimeENS0_11PropOpFlagsE, symObjAddr: 0xD14, symBinAddr: 0x49DE4, symSize: 0x2B8 }
  - { offsetInCU: 0x3AACC, offset: 0x75C105, size: 0x8, addend: 0x0, symName: __ZN6hermes2vm7JSProxy14getOwnPropertyENS0_6HandleINS0_8JSObjectEEERNS0_7RuntimeENS2_INS0_11HermesValueEEERNS0_26ComputedPropertyDescriptorEPNS0_13MutableHandleIS7_EE, symObjAddr: 0xFCC, symBinAddr: 0x4A09C, symSize: 0x584 }
  - { offsetInCU: 0x3C76B, offset: 0x75DDA4, size: 0x8, addend: 0x0, symName: __ZN6hermes2vm7JSProxy17defineOwnPropertyENS0_6HandleINS0_8JSObjectEEERNS0_7RuntimeENS2_INS0_11HermesValueEEENS0_19DefinePropertyFlagsES8_NS0_11PropOpFlagsE, symObjAddr: 0x19B8, symBinAddr: 0x4AA88, symSize: 0x434 }
  - { offsetInCU: 0x3D9D9, offset: 0x75F012, size: 0x8, addend: 0x0, symName: __ZN6hermes2vm7JSProxy8hasNamedENS0_6HandleINS0_8JSObjectEEERNS0_7RuntimeENS0_8SymbolIDE, symObjAddr: 0x1DEC, symBinAddr: 0x4AEBC, symSize: 0x268 }
  - { offsetInCU: 0x3E688, offset: 0x75FCC1, size: 0x8, addend: 0x0, symName: __ZN6hermes2vm7JSProxy11hasComputedENS0_6HandleINS0_8JSObjectEEERNS0_7RuntimeENS2_INS0_11HermesValueEEE, symObjAddr: 0x21B0, symBinAddr: 0x4B280, symSize: 0x224 }
  - { offsetInCU: 0x3F21B, offset: 0x760854, size: 0x8, addend: 0x0, symName: __ZN6hermes2vm7JSProxy8getNamedENS0_6HandleINS0_8JSObjectEEERNS0_7RuntimeENS0_8SymbolIDENS2_INS0_11HermesValueEEE, symObjAddr: 0x23D4, symBinAddr: 0x4B4A4, symSize: 0x2A8 }
  - { offsetInCU: 0x3FEB2, offset: 0x7614EB, size: 0x8, addend: 0x0, symName: __ZN6hermes2vm7JSProxy11getComputedENS0_6HandleINS0_8JSObjectEEERNS0_7RuntimeENS2_INS0_11HermesValueEEES8_, symObjAddr: 0x2868, symBinAddr: 0x4B938, symSize: 0x244 }
  - { offsetInCU: 0x40927, offset: 0x761F60, size: 0x8, addend: 0x0, symName: __ZN6hermes2vm7JSProxy8setNamedENS0_6HandleINS0_8JSObjectEEERNS0_7RuntimeENS0_8SymbolIDENS2_INS0_11HermesValueEEES9_, symObjAddr: 0x2AAC, symBinAddr: 0x4BB7C, symSize: 0x2A4 }
  - { offsetInCU: 0x415B1, offset: 0x762BEA, size: 0x8, addend: 0x0, symName: __ZN6hermes2vm7JSProxy11setComputedENS0_6HandleINS0_8JSObjectEEERNS0_7RuntimeENS2_INS0_11HermesValueEEES8_S8_, symObjAddr: 0x2F14, symBinAddr: 0x4BFE4, symSize: 0x248 }
  - { offsetInCU: 0x4207B, offset: 0x7636B4, size: 0x8, addend: 0x0, symName: __ZN6hermes2vm7JSProxy11deleteNamedENS0_6HandleINS0_8JSObjectEEERNS0_7RuntimeENS0_8SymbolIDE, symObjAddr: 0x315C, symBinAddr: 0x4C22C, symSize: 0x26C }
  - { offsetInCU: 0x42D2A, offset: 0x764363, size: 0x8, addend: 0x0, symName: __ZN6hermes2vm7JSProxy14deleteComputedENS0_6HandleINS0_8JSObjectEEERNS0_7RuntimeENS2_INS0_11HermesValueEEE, symObjAddr: 0x3524, symBinAddr: 0x4C5F4, symSize: 0x228 }
  - { offsetInCU: 0x43893, offset: 0x764ECC, size: 0x8, addend: 0x0, symName: __ZN6hermes2vm7JSProxy15ownPropertyKeysENS0_6HandleINS0_8JSObjectEEERNS0_7RuntimeENS0_12OwnKeysFlagsE, symObjAddr: 0x374C, symBinAddr: 0x4C81C, symSize: 0xC58 }
  - { offsetInCU: 0x48AA9, offset: 0x76A0E2, size: 0x8, addend: 0x0, symName: '__ZZN6hermes2vm7JSProxy15ownPropertyKeysENS0_6HandleINS0_8JSObjectEEERNS0_7RuntimeENS0_12OwnKeysFlagsEENK3$_1clES6_yNS0_12PseudoHandleINS0_11HermesValueEEE', symObjAddr: 0x4E5C, symBinAddr: 0x4DC28, symSize: 0x144 }
  - { offsetInCU: 0x48DD4, offset: 0x76A40D, size: 0x8, addend: 0x0, symName: __ZN4llvh8SmallSetIjLj8ENSt3__14lessIjEEE6insertERKj, symObjAddr: 0x4880, symBinAddr: 0x4D7E4, symSize: 0xE0 }
  - { offsetInCU: 0x49113, offset: 0x76A74C, size: 0x8, addend: 0x0, symName: '__ZZN6hermes2vm7JSProxy15ownPropertyKeysENS0_6HandleINS0_8JSObjectEEERNS0_7RuntimeENS0_12OwnKeysFlagsEENK3$_2clENS0_11HermesValueE', symObjAddr: 0x4960, symBinAddr: 0x4D8C4, symSize: 0x1D4 }
  - { offsetInCU: 0x49AB5, offset: 0x76B0EE, size: 0x8, addend: 0x0, symName: __ZNK4llvh8SmallSetIjLj8ENSt3__14lessIjEEE5countERKj, symObjAddr: 0x4B34, symBinAddr: 0x4DA98, symSize: 0x80 }
  - { offsetInCU: 0x49AEC, offset: 0x76B125, size: 0x8, addend: 0x0, symName: __ZNK4llvh8SmallSetIjLj8ENSt3__14lessIjEEE5countERKj, symObjAddr: 0x4B34, symBinAddr: 0x4DA98, symSize: 0x80 }
  - { offsetInCU: 0x49B09, offset: 0x76B142, size: 0x8, addend: 0x0, symName: __ZNK4llvh8SmallSetIjLj8ENSt3__14lessIjEEE5countERKj, symObjAddr: 0x4B34, symBinAddr: 0x4DA98, symSize: 0x80 }
  - { offsetInCU: 0x49EFA, offset: 0x76B533, size: 0x8, addend: 0x0, symName: __ZN4llvh8SmallSetIjLj8ENSt3__14lessIjEEED1Ev, symObjAddr: 0x4BB4, symBinAddr: 0x4DB18, symSize: 0x40 }
  - { offsetInCU: 0x4AF3E, offset: 0x76C577, size: 0x8, addend: 0x0, symName: __ZN6hermes2vm7JSProxyC2ERNS0_7RuntimeENS0_6HandleINS0_8JSObjectEEENS4_INS0_11HiddenClassEEE, symObjAddr: 0x4E04, symBinAddr: 0x4DBD0, symSize: 0x58 }
  - { offsetInCU: 0x4AFAE, offset: 0x76C5E7, size: 0x8, addend: 0x0, symName: __ZN6hermes2vm7JSProxyC2ERNS0_7RuntimeENS0_6HandleINS0_8JSObjectEEENS4_INS0_11HiddenClassEEE, symObjAddr: 0x4E04, symBinAddr: 0x4DBD0, symSize: 0x58 }
  - { offsetInCU: 0x26, offset: 0x76D2A6, size: 0x8, addend: 0x0, symName: __ZN6hermes2vm8JSRegExp13_finalizeImplEPNS0_6GCCellERNS0_7HadesGCE, symObjAddr: 0x0, symBinAddr: 0x4DD6C, symSize: 0x3C }
  - { offsetInCU: 0x44, offset: 0x76D2C4, size: 0x8, addend: 0x0, symName: __ZN6hermes2vm8JSRegExp2vtE, symObjAddr: 0x5210, symBinAddr: 0x202768, symSize: 0x0 }
  - { offsetInCU: 0x833F, offset: 0x7755BF, size: 0x8, addend: 0x0, symName: __ZN6hermes2vm17JSRegExpBuildMetaEPKNS0_6GCCellERNS0_8Metadata7BuilderE, symObjAddr: 0x44, symBinAddr: 0x4DDB0, symSize: 0x64 }
  - { offsetInCU: 0x8490, offset: 0x775710, size: 0x8, addend: 0x0, symName: __ZN6hermes2vm13performSearchIDsNS_5regex16UTF16RegexTraitsEEENS0_10CallResultIN4llvh11SmallVectorINS_8OptValueINS0_16RegExpMatchRangeEEELj4EEELNS0_6detail20CallResultSpecializeE0EEERNS0_7RuntimeENS5_8ArrayRefIhEEPKT_jjNS2_9constants13MatchFlagTypeE, symObjAddr: 0xFA0, symBinAddr: 0x4EA08, symSize: 0x1D0 }
  - { offsetInCU: 0x9081, offset: 0x776301, size: 0x8, addend: 0x0, symName: __ZN6hermes2vm13performSearchIcNS_5regex16ASCIIRegexTraitsEEENS0_10CallResultIN4llvh11SmallVectorINS_8OptValueINS0_16RegExpMatchRangeEEELj4EEELNS0_6detail20CallResultSpecializeE0EEERNS0_7RuntimeENS5_8ArrayRefIhEEPKT_jjNS2_9constants13MatchFlagTypeE, symObjAddr: 0xD5C, symBinAddr: 0x4E838, symSize: 0x1D0 }
  - { offsetInCU: 0x48230, offset: 0x7B54B0, size: 0x8, addend: 0x0, symName: __ZN6hermes2vm8JSRegExp13_finalizeImplEPNS0_6GCCellERNS0_7HadesGCE, symObjAddr: 0x0, symBinAddr: 0x4DD6C, symSize: 0x3C }
  - { offsetInCU: 0x482C7, offset: 0x7B5547, size: 0x8, addend: 0x0, symName: __ZN6hermes2vm8JSRegExp15_mallocSizeImplEPNS0_6GCCellE, symObjAddr: 0x3C, symBinAddr: 0x4DDA8, symSize: 0x8 }
  - { offsetInCU: 0x4855F, offset: 0x7B57DF, size: 0x8, addend: 0x0, symName: __ZN6hermes2vm8JSRegExp6createERNS0_7RuntimeENS0_6HandleINS0_8JSObjectEEE, symObjAddr: 0xA8, symBinAddr: 0x4DE14, symSize: 0x40 }
  - { offsetInCU: 0x486FA, offset: 0x7B597A, size: 0x8, addend: 0x0, symName: __ZN6hermes2vm7HadesGC5makeAINS0_8JSRegExpELb1ELNS0_12HasFinalizerE1ELNS0_9LongLivedE0EJRNS0_7RuntimeERNS0_6HandleINS0_8JSObjectEEENS8_INS0_11HiddenClassEEEEEEPT_jDpOT3_, symObjAddr: 0x1D80, symBinAddr: 0x4F200, symSize: 0x144 }
  - { offsetInCU: 0x48E00, offset: 0x7B6080, size: 0x8, addend: 0x0, symName: __ZN6hermes2vm8JSRegExp16createMatchClassERNS0_7RuntimeENS0_6HandleINS0_11HiddenClassEEE, symObjAddr: 0xE8, symBinAddr: 0x4DE54, symSize: 0x9C }
  - { offsetInCU: 0x4911F, offset: 0x7B639F, size: 0x8, addend: 0x0, symName: __ZN6hermes2vm8JSRegExp10initializeENS0_6HandleIS1_EERNS0_7RuntimeENS2_INS0_15StringPrimitiveEEES7_N4llvh8ArrayRefIhEE, symObjAddr: 0x184, symBinAddr: 0x4DEF0, symSize: 0xA0 }
  - { offsetInCU: 0x49D88, offset: 0x7B7008, size: 0x8, addend: 0x0, symName: __ZN6hermes2vm8JSRegExp10initializeENS0_6HandleIS1_EERNS0_7RuntimeES3_NS2_INS0_15StringPrimitiveEEE, symObjAddr: 0x2D0, symBinAddr: 0x4DF90, symSize: 0x168 }
  - { offsetInCU: 0x4A56B, offset: 0x7B77EB, size: 0x8, addend: 0x0, symName: __ZN6hermes2vm8JSRegExp10initializeENS0_6HandleIS1_EERNS0_7RuntimeENS2_INS0_15StringPrimitiveEEES7_, symObjAddr: 0x520, symBinAddr: 0x4E110, symSize: 0x224 }
  - { offsetInCU: 0x4B47C, offset: 0x7B86FC, size: 0x8, addend: 0x0, symName: __ZN6hermes2vm8JSRegExp10getPatternEPS1_RNS0_11PointerBaseE, symObjAddr: 0x508, symBinAddr: 0x4E0F8, symSize: 0x18 }
  - { offsetInCU: 0x4B4A6, offset: 0x7B8726, size: 0x8, addend: 0x0, symName: __ZN6hermes2vm8JSRegExp10getPatternEPS1_RNS0_11PointerBaseE, symObjAddr: 0x508, symBinAddr: 0x4E0F8, symSize: 0x18 }
  - { offsetInCU: 0x4B4CD, offset: 0x7B874D, size: 0x8, addend: 0x0, symName: __ZN6hermes2vm8JSRegExp10getPatternEPS1_RNS0_11PointerBaseE, symObjAddr: 0x508, symBinAddr: 0x4E0F8, symSize: 0x18 }
  - { offsetInCU: 0x4C1EC, offset: 0x7B946C, size: 0x8, addend: 0x0, symName: __ZN6hermes2vm8JSRegExp29initializeGroupNameMappingObjERNS0_7RuntimeENS0_6HandleIS1_EERNSt3__15dequeIN4llvh11SmallVectorIDsLj5EEENS6_9allocatorISA_EEEERNS8_8DenseMapINS8_8ArrayRefIDsEEjNS8_12DenseMapInfoISH_EENS8_6detail12DenseMapPairISH_jEEEE, symObjAddr: 0x7D0, symBinAddr: 0x4E334, symSize: 0x284 }
  - { offsetInCU: 0x4E50E, offset: 0x7BB78E, size: 0x8, addend: 0x0, symName: __ZN4llvh12DenseMapBaseINS_8DenseMapINS_8ArrayRefIDsEEjNS_12DenseMapInfoIS3_EENS_6detail12DenseMapPairIS3_jEEEES3_jS5_S8_E16FindAndConstructEOS3_, symObjAddr: 0x4AE8, symBinAddr: 0x4F408, symSize: 0x5C }
  - { offsetInCU: 0x4E786, offset: 0x7BBA06, size: 0x8, addend: 0x0, symName: __ZN6hermes2vm8JSRegExp20getGroupNameMappingsERNS0_7RuntimeE, symObjAddr: 0xADC, symBinAddr: 0x4E5B8, symSize: 0x68 }
  - { offsetInCU: 0x4EA02, offset: 0x7BBC82, size: 0x8, addend: 0x0, symName: __ZN6hermes2vm8JSRegExp20setGroupNameMappingsERNS0_7RuntimeEPNS0_8JSObjectE, symObjAddr: 0xB44, symBinAddr: 0x4E620, symSize: 0x18 }
  - { offsetInCU: 0x4EFBF, offset: 0x7BC23F, size: 0x8, addend: 0x0, symName: __ZN6hermes2vm8JSRegExp6searchENS0_6HandleIS1_EERNS0_7RuntimeENS2_INS0_15StringPrimitiveEEEj, symObjAddr: 0xB5C, symBinAddr: 0x4E638, symSize: 0x200 }
  - { offsetInCU: 0x4FE65, offset: 0x7BD0E5, size: 0x8, addend: 0x0, symName: __ZN4llvh15optional_detail15OptionalStorageINS_11SmallVectorIN6hermes8OptValueINS3_2vm16RegExpMatchRangeEEELj4EEELb0EEaSEOS9_, symObjAddr: 0x1970, symBinAddr: 0x4EEB8, symSize: 0x54 }
  - { offsetInCU: 0x4FF69, offset: 0x7BD1E9, size: 0x8, addend: 0x0, symName: __ZN4llvh15SmallVectorImplIN6hermes8OptValueINS1_2vm16RegExpMatchRangeEEEEaSERKS6_, symObjAddr: 0x4DC8, symBinAddr: 0x4F6E8, symSize: 0xDC }
  - { offsetInCU: 0x504B6, offset: 0x7BD736, size: 0x8, addend: 0x0, symName: __ZN4llvh15optional_detail15OptionalStorageINS_11SmallVectorIN6hermes8OptValueINS3_2vm16RegExpMatchRangeEEELj4EEELb0EEC2EOS9_, symObjAddr: 0x1B4C, symBinAddr: 0x4F094, symSize: 0x54 }
  - { offsetInCU: 0x5091F, offset: 0x7BDB9F, size: 0x8, addend: 0x0, symName: __ZN4llvh23SmallVectorTemplateBaseIN6hermes8OptValueINS1_2vm16RegExpMatchRangeEEELb1EE9push_backERKS5_, symObjAddr: 0x4D58, symBinAddr: 0x4F678, symSize: 0x70 }
  - { offsetInCU: 0x50A71, offset: 0x7BDCF1, size: 0x8, addend: 0x0, symName: __ZN4llvh15SmallVectorImplIN6hermes8OptValueINS1_2vm16RegExpMatchRangeEEEEaSEOS6_, symObjAddr: 0x1A24, symBinAddr: 0x4EF6C, symSize: 0x128 }
  - { offsetInCU: 0x51766, offset: 0x7BE9E6, size: 0x8, addend: 0x0, symName: __ZN6hermes2vm8JSRegExp13escapePatternENS0_6HandleINS0_15StringPrimitiveEEERNS0_7RuntimeE, symObjAddr: 0x1234, symBinAddr: 0x4EBD8, symSize: 0x2E0 }
  - { offsetInCU: 0x523E0, offset: 0x7BF660, size: 0x8, addend: 0x0, symName: __ZN6hermes2vm12SmallXStringIDsLj32EEC2EPKDs, symObjAddr: 0x4F84, symBinAddr: 0x4F7C4, symSize: 0x68 }
  - { offsetInCU: 0x52554, offset: 0x7BF7D4, size: 0x8, addend: 0x0, symName: __ZN4llvh15SmallVectorImplIDsEaSEOS1_, symObjAddr: 0x1BA0, symBinAddr: 0x4F0E8, symSize: 0x118 }
  - { offsetInCU: 0x535EE, offset: 0x7C086E, size: 0x8, addend: 0x0, symName: __ZN4llvh15optional_detail15OptionalStorageINS_11SmallVectorIN6hermes8OptValueINS3_2vm16RegExpMatchRangeEEELj4EEELb0EEaSEOS8_, symObjAddr: 0x19C4, symBinAddr: 0x4EF0C, symSize: 0x60 }
  - { offsetInCU: 0x54176, offset: 0x7C13F6, size: 0x8, addend: 0x0, symName: __ZN6hermes2vm8JSRegExpC2ERNS0_7RuntimeENS0_6HandleINS0_8JSObjectEEENS4_INS0_11HiddenClassEEE, symObjAddr: 0x1EC4, symBinAddr: 0x4F344, symSize: 0xC4 }
  - { offsetInCU: 0x5BB5B, offset: 0x7C8DDB, size: 0x8, addend: 0x0, symName: __ZN4llvh12DenseMapBaseINS_8DenseMapINS_8ArrayRefIDsEEjNS_12DenseMapInfoIS3_EENS_6detail12DenseMapPairIS3_jEEEES3_jS5_S8_E20InsertIntoBucketImplIS3_EEPS8_RKS3_RKT_SC_, symObjAddr: 0x4B44, symBinAddr: 0x4F464, symSize: 0xA8 }
  - { offsetInCU: 0x5BEA9, offset: 0x7C9129, size: 0x8, addend: 0x0, symName: __ZN4llvh8DenseMapINS_8ArrayRefIDsEEjNS_12DenseMapInfoIS2_EENS_6detail12DenseMapPairIS2_jEEE4growEj, symObjAddr: 0x4BEC, symBinAddr: 0x4F50C, symSize: 0xC0 }
  - { offsetInCU: 0x5C07B, offset: 0x7C92FB, size: 0x8, addend: 0x0, symName: __ZN4llvh12DenseMapBaseINS_8DenseMapINS_8ArrayRefIDsEEjNS_12DenseMapInfoIS3_EENS_6detail12DenseMapPairIS3_jEEEES3_jS5_S8_E18moveFromOldBucketsEPS8_SB_, symObjAddr: 0x4CAC, symBinAddr: 0x4F5CC, symSize: 0xAC }
  - { offsetInCU: 0x26, offset: 0x7C992E, size: 0x8, addend: 0x0, symName: __ZN6hermes2vm31JSRegExpStringIteratorBuildMetaEPKNS0_6GCCellERNS0_8Metadata7BuilderE, symObjAddr: 0x0, symBinAddr: 0x4F82C, symSize: 0x74 }
  - { offsetInCU: 0x44, offset: 0x7C994C, size: 0x8, addend: 0x0, symName: __ZN6hermes2vm22JSRegExpStringIterator2vtE, symObjAddr: 0x698, symBinAddr: 0x202848, symSize: 0x0 }
  - { offsetInCU: 0x8FAF, offset: 0x7D28B7, size: 0x8, addend: 0x0, symName: __ZN6hermes2vm31JSRegExpStringIteratorBuildMetaEPKNS0_6GCCellERNS0_8Metadata7BuilderE, symObjAddr: 0x0, symBinAddr: 0x4F82C, symSize: 0x74 }
  - { offsetInCU: 0x9173, offset: 0x7D2A7B, size: 0x8, addend: 0x0, symName: __ZN6hermes2vm12setLastIndexENS0_6HandleINS0_8JSObjectEEERNS0_7RuntimeEd, symObjAddr: 0x3A0, symBinAddr: 0x4FBCC, symSize: 0xBC }
  - { offsetInCU: 0x2FA7A, offset: 0x7F9382, size: 0x8, addend: 0x0, symName: __ZN6hermes2vm22JSRegExpStringIterator6createERNS0_7RuntimeENS0_6HandleINS0_8JSObjectEEENS4_INS0_15StringPrimitiveEEEbb, symObjAddr: 0x74, symBinAddr: 0x4F8A0, symSize: 0x98 }
  - { offsetInCU: 0x2FD30, offset: 0x7F9638, size: 0x8, addend: 0x0, symName: __ZN6hermes2vm6GCBase5makeAINS0_22JSRegExpStringIteratorELb1ELNS0_12HasFinalizerE0ELNS0_9LongLivedE0EJRNS0_7RuntimeERNS0_6HandleINS0_8JSObjectEEENS8_INS0_11HiddenClassEEESB_RNS8_INS0_15StringPrimitiveEEERbSH_EEEPT_jDpOT3_, symObjAddr: 0x45C, symBinAddr: 0x4FC88, symSize: 0xA8 }
  - { offsetInCU: 0x3073A, offset: 0x7FA042, size: 0x8, addend: 0x0, symName: __ZN6hermes2vm22JSRegExpStringIterator11nextElementENS0_6HandleIS1_EERNS0_7RuntimeE, symObjAddr: 0x10C, symBinAddr: 0x4F938, symSize: 0x294 }
  - { offsetInCU: 0x31FBE, offset: 0x7FB8C6, size: 0x8, addend: 0x0, symName: __ZN6hermes2vm22JSRegExpStringIteratorC2ERNS0_7RuntimeENS0_6HandleINS0_8JSObjectEEENS4_INS0_11HiddenClassEEES6_NS4_INS0_15StringPrimitiveEEEbb, symObjAddr: 0x504, symBinAddr: 0x4FD30, symSize: 0xD0 }
  - { offsetInCU: 0x44, offset: 0x7FC928, size: 0x8, addend: 0x0, symName: __ZN6hermes2vm9JSMapImplILNS0_8CellKindE47EE2vtE, symObjAddr: 0x15C8, symBinAddr: 0x2028A8, symSize: 0x0 }
  - { offsetInCU: 0x8AED, offset: 0x8053D1, size: 0x8, addend: 0x0, symName: __ZN6hermes2vm9JSMapImplILNS0_8CellKindE48EE2vtE, symObjAddr: 0x1628, symBinAddr: 0x202908, symSize: 0x0 }
  - { offsetInCU: 0x8EED, offset: 0x8057D1, size: 0x8, addend: 0x0, symName: __ZN6hermes2vm17JSMapIteratorImplILNS0_8CellKindE50EE2vtE, symObjAddr: 0x1688, symBinAddr: 0x202968, symSize: 0x0 }
  - { offsetInCU: 0x95D1, offset: 0x805EB5, size: 0x8, addend: 0x0, symName: __ZN6hermes2vm17JSMapIteratorImplILNS0_8CellKindE49EE2vtE, symObjAddr: 0x16E8, symBinAddr: 0x2029C8, symSize: 0x0 }
  - { offsetInCU: 0x9DD7, offset: 0x8066BB, size: 0x8, addend: 0x0, symName: __ZN6hermes2vm14JSMapBuildMetaEPKNS0_6GCCellERNS0_8Metadata7BuilderE, symObjAddr: 0x1308, symBinAddr: 0x50E38, symSize: 0x2C }
  - { offsetInCU: 0x9E59, offset: 0x80673D, size: 0x8, addend: 0x0, symName: __ZN6hermes2vm14JSSetBuildMetaEPKNS0_6GCCellERNS0_8Metadata7BuilderE, symObjAddr: 0x1334, symBinAddr: 0x50E64, symSize: 0x2C }
  - { offsetInCU: 0x9EDB, offset: 0x8067BF, size: 0x8, addend: 0x0, symName: __ZN6hermes2vm22JSMapIteratorBuildMetaEPKNS0_6GCCellERNS0_8Metadata7BuilderE, symObjAddr: 0x1360, symBinAddr: 0x50E90, symSize: 0x2C }
  - { offsetInCU: 0x9F5D, offset: 0x806841, size: 0x8, addend: 0x0, symName: __ZN6hermes2vm22JSSetIteratorBuildMetaEPKNS0_6GCCellERNS0_8Metadata7BuilderE, symObjAddr: 0x138C, symBinAddr: 0x50EBC, symSize: 0x2C }
  - { offsetInCU: 0x3064E, offset: 0x82CF32, size: 0x8, addend: 0x0, symName: __ZN6hermes2vm9JSMapImplILNS0_8CellKindE47EE6createERNS0_7RuntimeENS0_6HandleINS0_8JSObjectEEE, symObjAddr: 0x18, symBinAddr: 0x4FE00, symSize: 0x64 }
  - { offsetInCU: 0x30869, offset: 0x82D14D, size: 0x8, addend: 0x0, symName: __ZN6hermes2vm6GCBase5makeAINS0_9JSMapImplILNS0_8CellKindE47EEELb1ELNS0_12HasFinalizerE0ELNS0_9LongLivedE0EJRNS0_7RuntimeERNS0_6HandleINS0_8JSObjectEEENSA_INS0_11HiddenClassEEEEEEPT_jDpOT3_, symObjAddr: 0x13E4, symBinAddr: 0x50EE8, symSize: 0x78 }
  - { offsetInCU: 0x30E56, offset: 0x82D73A, size: 0x8, addend: 0x0, symName: __ZN6hermes2vm9JSMapImplILNS0_8CellKindE47EE17initializeStorageENS0_6HandleIS3_EERNS0_7RuntimeE, symObjAddr: 0x7C, symBinAddr: 0x4FE64, symSize: 0x8C }
  - { offsetInCU: 0x31174, offset: 0x82DA58, size: 0x8, addend: 0x0, symName: __ZN6hermes2vm9GCPointerINS0_14OrderedHashMapEE3setERNS0_11PointerBaseEPS2_RNS0_7HadesGCE, symObjAddr: 0x108, symBinAddr: 0x4FEF0, symSize: 0x5C }
  - { offsetInCU: 0x316BA, offset: 0x82DF9E, size: 0x8, addend: 0x0, symName: __ZN6hermes2vm9JSMapImplILNS0_8CellKindE47EE8addValueENS0_6HandleIS3_EERNS0_7RuntimeENS4_INS0_11HermesValueEEES9_, symObjAddr: 0x180, symBinAddr: 0x4FF4C, symSize: 0x84 }
  - { offsetInCU: 0x319C3, offset: 0x82E2A7, size: 0x8, addend: 0x0, symName: __ZN6hermes2vm9JSMapImplILNS0_8CellKindE47EE6hasKeyENS0_6HandleIS3_EERNS0_7RuntimeENS4_INS0_11HermesValueEEE, symObjAddr: 0x208, symBinAddr: 0x4FFD0, symSize: 0x74 }
  - { offsetInCU: 0x31CBC, offset: 0x82E5A0, size: 0x8, addend: 0x0, symName: __ZN6hermes2vm9JSMapImplILNS0_8CellKindE47EE9deleteKeyENS0_6HandleIS3_EERNS0_7RuntimeENS4_INS0_11HermesValueEEE, symObjAddr: 0x2F0, symBinAddr: 0x50044, symSize: 0x74 }
  - { offsetInCU: 0x3222A, offset: 0x82EB0E, size: 0x8, addend: 0x0, symName: __ZN6hermes2vm9JSMapImplILNS0_8CellKindE47EE7forEachENS0_6HandleIS3_EERNS0_7RuntimeENS4_INS0_8CallableEEENS4_INS0_11HermesValueEEE, symObjAddr: 0x3A8, symBinAddr: 0x500B8, symSize: 0x140 }
  - { offsetInCU: 0x329D9, offset: 0x82F2BD, size: 0x8, addend: 0x0, symName: __ZN6hermes2vm9JSMapImplILNS0_8CellKindE47EE17MapOrSetBuildMetaEPKNS0_6GCCellERNS0_8Metadata7BuilderE, symObjAddr: 0x4E8, symBinAddr: 0x501F8, symSize: 0x50 }
  - { offsetInCU: 0x32E1C, offset: 0x82F700, size: 0x8, addend: 0x0, symName: __ZN6hermes2vm9JSMapImplILNS0_8CellKindE47EEC2ERNS0_7RuntimeENS0_6HandleINS0_8JSObjectEEENS6_INS0_11HiddenClassEEE, symObjAddr: 0x538, symBinAddr: 0x50248, symSize: 0x54 }
  - { offsetInCU: 0x32E8D, offset: 0x82F771, size: 0x8, addend: 0x0, symName: __ZN6hermes2vm9JSMapImplILNS0_8CellKindE47EEC2ERNS0_7RuntimeENS0_6HandleINS0_8JSObjectEEENS6_INS0_11HiddenClassEEE, symObjAddr: 0x538, symBinAddr: 0x50248, symSize: 0x54 }
  - { offsetInCU: 0x33447, offset: 0x82FD2B, size: 0x8, addend: 0x0, symName: __ZN6hermes2vm9JSMapImplILNS0_8CellKindE48EE6createERNS0_7RuntimeENS0_6HandleINS0_8JSObjectEEE, symObjAddr: 0x5A8, symBinAddr: 0x5029C, symSize: 0x64 }
  - { offsetInCU: 0x33662, offset: 0x82FF46, size: 0x8, addend: 0x0, symName: __ZN6hermes2vm6GCBase5makeAINS0_9JSMapImplILNS0_8CellKindE48EEELb1ELNS0_12HasFinalizerE0ELNS0_9LongLivedE0EJRNS0_7RuntimeERNS0_6HandleINS0_8JSObjectEEENSA_INS0_11HiddenClassEEEEEEPT_jDpOT3_, symObjAddr: 0x145C, symBinAddr: 0x50F60, symSize: 0x78 }
  - { offsetInCU: 0x33971, offset: 0x830255, size: 0x8, addend: 0x0, symName: __ZN6hermes2vm9JSMapImplILNS0_8CellKindE48EE17initializeStorageENS0_6HandleIS3_EERNS0_7RuntimeE, symObjAddr: 0x60C, symBinAddr: 0x50300, symSize: 0x8C }
  - { offsetInCU: 0x33C8F, offset: 0x830573, size: 0x8, addend: 0x0, symName: __ZN6hermes2vm9JSMapImplILNS0_8CellKindE48EE8addValueENS0_6HandleIS3_EERNS0_7RuntimeENS4_INS0_11HermesValueEEES9_, symObjAddr: 0x6B4, symBinAddr: 0x5038C, symSize: 0x84 }
  - { offsetInCU: 0x33F98, offset: 0x83087C, size: 0x8, addend: 0x0, symName: __ZN6hermes2vm9JSMapImplILNS0_8CellKindE48EE6hasKeyENS0_6HandleIS3_EERNS0_7RuntimeENS4_INS0_11HermesValueEEE, symObjAddr: 0x73C, symBinAddr: 0x50410, symSize: 0x74 }
  - { offsetInCU: 0x34291, offset: 0x830B75, size: 0x8, addend: 0x0, symName: __ZN6hermes2vm9JSMapImplILNS0_8CellKindE48EE8getValueENS0_6HandleIS3_EERNS0_7RuntimeENS4_INS0_11HermesValueEEE, symObjAddr: 0x7B0, symBinAddr: 0x50484, symSize: 0x74 }
  - { offsetInCU: 0x3458A, offset: 0x830E6E, size: 0x8, addend: 0x0, symName: __ZN6hermes2vm9JSMapImplILNS0_8CellKindE48EE9deleteKeyENS0_6HandleIS3_EERNS0_7RuntimeENS4_INS0_11HermesValueEEE, symObjAddr: 0x824, symBinAddr: 0x504F8, symSize: 0x74 }
  - { offsetInCU: 0x34883, offset: 0x831167, size: 0x8, addend: 0x0, symName: __ZN6hermes2vm9JSMapImplILNS0_8CellKindE48EE7forEachENS0_6HandleIS3_EERNS0_7RuntimeENS4_INS0_8CallableEEENS4_INS0_11HermesValueEEE, symObjAddr: 0x8DC, symBinAddr: 0x5056C, symSize: 0x140 }
  - { offsetInCU: 0x34FEE, offset: 0x8318D2, size: 0x8, addend: 0x0, symName: __ZN6hermes2vm9JSMapImplILNS0_8CellKindE48EE17MapOrSetBuildMetaEPKNS0_6GCCellERNS0_8Metadata7BuilderE, symObjAddr: 0xA1C, symBinAddr: 0x506AC, symSize: 0x50 }
  - { offsetInCU: 0x35098, offset: 0x83197C, size: 0x8, addend: 0x0, symName: __ZN6hermes2vm9JSMapImplILNS0_8CellKindE48EEC2ERNS0_7RuntimeENS0_6HandleINS0_8JSObjectEEENS6_INS0_11HiddenClassEEE, symObjAddr: 0xA6C, symBinAddr: 0x506FC, symSize: 0x54 }
  - { offsetInCU: 0x35109, offset: 0x8319ED, size: 0x8, addend: 0x0, symName: __ZN6hermes2vm9JSMapImplILNS0_8CellKindE48EEC2ERNS0_7RuntimeENS0_6HandleINS0_8JSObjectEEENS6_INS0_11HiddenClassEEE, symObjAddr: 0xA6C, symBinAddr: 0x506FC, symSize: 0x54 }
  - { offsetInCU: 0x356C3, offset: 0x831FA7, size: 0x8, addend: 0x0, symName: __ZN6hermes2vm17JSMapIteratorImplILNS0_8CellKindE50EE6createERNS0_7RuntimeENS0_6HandleINS0_8JSObjectEEE, symObjAddr: 0xADC, symBinAddr: 0x50750, symSize: 0x48 }
  - { offsetInCU: 0x35917, offset: 0x8321FB, size: 0x8, addend: 0x0, symName: __ZN6hermes2vm6GCBase5makeAINS0_17JSMapIteratorImplILNS0_8CellKindE50EEELb1ELNS0_12HasFinalizerE0ELNS0_9LongLivedE0EJRNS0_7RuntimeERNS0_6HandleINS0_8JSObjectEEENSA_INS0_11HiddenClassEEEEEEPT_jDpOT3_, symObjAddr: 0x14D4, symBinAddr: 0x50FD8, symSize: 0x78 }
  - { offsetInCU: 0x35BD3, offset: 0x8324B7, size: 0x8, addend: 0x0, symName: __ZN6hermes2vm9GCPointerINS0_9JSMapImplILNS0_8CellKindE48EEEE3setERNS0_11PointerBaseEPS4_RNS0_7HadesGCE, symObjAddr: 0xB68, symBinAddr: 0x50798, symSize: 0x5C }
  - { offsetInCU: 0x360C6, offset: 0x8329AA, size: 0x8, addend: 0x0, symName: __ZN6hermes2vm17JSMapIteratorImplILNS0_8CellKindE50EE11nextElementENS0_6HandleIS3_EERNS0_7RuntimeE, symObjAddr: 0xBE4, symBinAddr: 0x507F4, symSize: 0x20C }
  - { offsetInCU: 0x36E8C, offset: 0x833770, size: 0x8, addend: 0x0, symName: __ZN6hermes2vm17JSMapIteratorImplILNS0_8CellKindE50EE25MapOrSetIteratorBuildMetaEPKNS0_6GCCellERNS0_8Metadata7BuilderE, symObjAddr: 0xE4C, symBinAddr: 0x50A00, symSize: 0x68 }
  - { offsetInCU: 0x36F82, offset: 0x833866, size: 0x8, addend: 0x0, symName: __ZN6hermes2vm17JSMapIteratorImplILNS0_8CellKindE50EEC2ERNS0_7RuntimeENS0_6HandleINS0_8JSObjectEEENS6_INS0_11HiddenClassEEE, symObjAddr: 0xEB4, symBinAddr: 0x50A68, symSize: 0x5C }
  - { offsetInCU: 0x36FF7, offset: 0x8338DB, size: 0x8, addend: 0x0, symName: __ZN6hermes2vm17JSMapIteratorImplILNS0_8CellKindE50EEC2ERNS0_7RuntimeENS0_6HandleINS0_8JSObjectEEENS6_INS0_11HiddenClassEEE, symObjAddr: 0xEB4, symBinAddr: 0x50A68, symSize: 0x5C }
  - { offsetInCU: 0x376AD, offset: 0x833F91, size: 0x8, addend: 0x0, symName: __ZN6hermes2vm17JSMapIteratorImplILNS0_8CellKindE49EE6createERNS0_7RuntimeENS0_6HandleINS0_8JSObjectEEE, symObjAddr: 0xF2C, symBinAddr: 0x50AC4, symSize: 0x48 }
  - { offsetInCU: 0x37901, offset: 0x8341E5, size: 0x8, addend: 0x0, symName: __ZN6hermes2vm6GCBase5makeAINS0_17JSMapIteratorImplILNS0_8CellKindE49EEELb1ELNS0_12HasFinalizerE0ELNS0_9LongLivedE0EJRNS0_7RuntimeERNS0_6HandleINS0_8JSObjectEEENSA_INS0_11HiddenClassEEEEEEPT_jDpOT3_, symObjAddr: 0x154C, symBinAddr: 0x51050, symSize: 0x78 }
  - { offsetInCU: 0x37BBD, offset: 0x8344A1, size: 0x8, addend: 0x0, symName: __ZN6hermes2vm9GCPointerINS0_9JSMapImplILNS0_8CellKindE47EEEE3setERNS0_11PointerBaseEPS4_RNS0_7HadesGCE, symObjAddr: 0xFB8, symBinAddr: 0x50B0C, symSize: 0x5C }
  - { offsetInCU: 0x37E95, offset: 0x834779, size: 0x8, addend: 0x0, symName: __ZN6hermes2vm17JSMapIteratorImplILNS0_8CellKindE49EE11nextElementENS0_6HandleIS3_EERNS0_7RuntimeE, symObjAddr: 0x1034, symBinAddr: 0x50B68, symSize: 0x20C }
  - { offsetInCU: 0x38A91, offset: 0x835375, size: 0x8, addend: 0x0, symName: __ZN6hermes2vm17JSMapIteratorImplILNS0_8CellKindE49EE25MapOrSetIteratorBuildMetaEPKNS0_6GCCellERNS0_8Metadata7BuilderE, symObjAddr: 0x1240, symBinAddr: 0x50D74, symSize: 0x68 }
  - { offsetInCU: 0x38B3D, offset: 0x835421, size: 0x8, addend: 0x0, symName: __ZN6hermes2vm17JSMapIteratorImplILNS0_8CellKindE49EEC2ERNS0_7RuntimeENS0_6HandleINS0_8JSObjectEEENS6_INS0_11HiddenClassEEE, symObjAddr: 0x12A8, symBinAddr: 0x50DDC, symSize: 0x5C }
  - { offsetInCU: 0x38BB2, offset: 0x835496, size: 0x8, addend: 0x0, symName: __ZN6hermes2vm17JSMapIteratorImplILNS0_8CellKindE49EEC2ERNS0_7RuntimeENS0_6HandleINS0_8JSObjectEEENS6_INS0_11HiddenClassEEE, symObjAddr: 0x12A8, symBinAddr: 0x50DDC, symSize: 0x5C }
  - { offsetInCU: 0x26, offset: 0x8360F5, size: 0x8, addend: 0x0, symName: __ZN6hermes2vm15getFunctionNameEPFNS0_10CallResultINS0_11HermesValueELNS0_6detail20CallResultSpecializeE2EEEPvRNS0_7RuntimeENS0_10NativeArgsEE, symObjAddr: 0x0, symBinAddr: 0x510C8, symSize: 0x4 }
  - { offsetInCU: 0x3E, offset: 0x83610D, size: 0x8, addend: 0x0, symName: __ZN6hermes2vmL19getFunctionNameImplEPv, symObjAddr: 0x4, symBinAddr: 0x510CC, symSize: 0xCC }
  - { offsetInCU: 0x68, offset: 0x836137, size: 0x8, addend: 0x0, symName: __ZZN6hermes2vmL19getFunctionNameImplEPvE3map, symObjAddr: 0x1DFD70, symBinAddr: 0x20CD28, symSize: 0x0 }
  - { offsetInCU: 0x11C, offset: 0x8361EB, size: 0x8, addend: 0x0, symName: __ZN6hermes2vmL9funcNamesEv, symObjAddr: 0xD4, symBinAddr: 0x51198, symSize: 0xAC }
  - { offsetInCU: 0x147, offset: 0x836216, size: 0x8, addend: 0x0, symName: __ZZN6hermes2vmL9funcNamesEvE11nameLengths, symObjAddr: 0x49D, symBinAddr: 0x1B9D20, symSize: 0x0 }
  - { offsetInCU: 0x15D, offset: 0x83622C, size: 0x8, addend: 0x0, symName: __ZZN6hermes2vmL9funcNamesEvE5names, symObjAddr: 0x65F, symBinAddr: 0x1B9EE2, symSize: 0x0 }
  - { offsetInCU: 0x173, offset: 0x836242, size: 0x8, addend: 0x0, symName: __ZZN6hermes2vmL9funcNamesEvE16functionPointers, symObjAddr: 0x3228, symBinAddr: 0x202A28, symSize: 0x0 }
  - { offsetInCU: 0x38B, offset: 0x83645A, size: 0x8, addend: 0x0, symName: __ZN6hermes2vm15getFunctionNameEPFNS0_10CallResultINS0_11HermesValueELNS0_6detail20CallResultSpecializeE2EEEPvRNS0_7RuntimeENS0_10NativeArgsEE, symObjAddr: 0x0, symBinAddr: 0x510C8, symSize: 0x4 }
  - { offsetInCU: 0x3BB, offset: 0x83648A, size: 0x8, addend: 0x0, symName: __ZN6hermes2vm15getFunctionNameEPFNS0_10CallResultINS0_11HermesValueELNS0_6detail20CallResultSpecializeE2EEEPvRNS0_7RuntimeENS0_10NativeArgsEE, symObjAddr: 0x0, symBinAddr: 0x510C8, symSize: 0x4 }
  - { offsetInCU: 0x3E37, offset: 0x839F06, size: 0x8, addend: 0x0, symName: __ZNK4llvh12DenseMapBaseINS_8DenseMapIPKvPKcNS_12DenseMapInfoIS3_EENS_6detail12DenseMapPairIS3_S5_EEEES3_S5_S7_SA_E15LookupBucketForIS3_EEbRKT_RPKSA_, symObjAddr: 0x200, symBinAddr: 0x512C4, symSize: 0x9C }
  - { offsetInCU: 0x3EF5, offset: 0x839FC4, size: 0x8, addend: 0x0, symName: __ZNK4llvh12DenseMapBaseINS_8DenseMapIPKvPKcNS_12DenseMapInfoIS3_EENS_6detail12DenseMapPairIS3_S5_EEEES3_S5_S7_SA_E15LookupBucketForIS3_EEbRKT_RPKSA_, symObjAddr: 0x200, symBinAddr: 0x512C4, symSize: 0x9C }
  - { offsetInCU: 0x3F13, offset: 0x839FE2, size: 0x8, addend: 0x0, symName: __ZNK4llvh12DenseMapBaseINS_8DenseMapIPKvPKcNS_12DenseMapInfoIS3_EENS_6detail12DenseMapPairIS3_S5_EEEES3_S5_S7_SA_E15LookupBucketForIS3_EEbRKT_RPKSA_, symObjAddr: 0x200, symBinAddr: 0x512C4, symSize: 0x9C }
  - { offsetInCU: 0x411A, offset: 0x83A1E9, size: 0x8, addend: 0x0, symName: __ZN4llvh12DenseMapBaseINS_8DenseMapIPKvPKcNS_12DenseMapInfoIS3_EENS_6detail12DenseMapPairIS3_S5_EEEES3_S5_S7_SA_E16FindAndConstructERKS3_, symObjAddr: 0x1A8, symBinAddr: 0x5126C, symSize: 0x58 }
  - { offsetInCU: 0x4233, offset: 0x83A302, size: 0x8, addend: 0x0, symName: __ZN4llvh8DenseMapIPKvPKcNS_12DenseMapInfoIS2_EENS_6detail12DenseMapPairIS2_S4_EEED1Ev, symObjAddr: 0x180, symBinAddr: 0x51244, symSize: 0x28 }
  - { offsetInCU: 0x42DB, offset: 0x83A3AA, size: 0x8, addend: 0x0, symName: __ZN4llvh12DenseMapBaseINS_8DenseMapIPKvPKcNS_12DenseMapInfoIS3_EENS_6detail12DenseMapPairIS3_S5_EEEES3_S5_S7_SA_E20InsertIntoBucketImplIS3_EEPSA_RKS3_RKT_SE_, symObjAddr: 0x29C, symBinAddr: 0x51360, symSize: 0xA8 }
  - { offsetInCU: 0x4714, offset: 0x83A7E3, size: 0x8, addend: 0x0, symName: __ZN4llvh8DenseMapIPKvPKcNS_12DenseMapInfoIS2_EENS_6detail12DenseMapPairIS2_S4_EEE4growEj, symObjAddr: 0x344, symBinAddr: 0x51408, symSize: 0xB0 }
  - { offsetInCU: 0x48E6, offset: 0x83A9B5, size: 0x8, addend: 0x0, symName: __ZN4llvh12DenseMapBaseINS_8DenseMapIPKvPKcNS_12DenseMapInfoIS3_EENS_6detail12DenseMapPairIS3_S5_EEEES3_S5_S7_SA_E18moveFromOldBucketsEPSA_SD_, symObjAddr: 0x3F4, symBinAddr: 0x514B8, symSize: 0xA8 }
  - { offsetInCU: 0x26, offset: 0x83AC94, size: 0x8, addend: 0x0, symName: __ZN6hermes2vm16JSTypedArrayBase23_getOwnIndexedRangeImplEPNS0_8JSObjectERNS0_7RuntimeE, symObjAddr: 0x0, symBinAddr: 0x51560, symSize: 0xC }
  - { offsetInCU: 0x44, offset: 0x83ACB2, size: 0x8, addend: 0x0, symName: __ZN6hermes2vm12JSTypedArrayIaLNS0_8CellKindE35EE2vtE, symObjAddr: 0x47F0, symBinAddr: 0x203838, symSize: 0x0 }
  - { offsetInCU: 0xA247, offset: 0x844EB5, size: 0x8, addend: 0x0, symName: __ZN6hermes2vm12JSTypedArrayIsLNS0_8CellKindE36EE2vtE, symObjAddr: 0x4850, symBinAddr: 0x203898, symSize: 0x0 }
  - { offsetInCU: 0xA649, offset: 0x8452B7, size: 0x8, addend: 0x0, symName: __ZN6hermes2vm12JSTypedArrayIiLNS0_8CellKindE37EE2vtE, symObjAddr: 0x48B0, symBinAddr: 0x2038F8, symSize: 0x0 }
  - { offsetInCU: 0xAA4B, offset: 0x8456B9, size: 0x8, addend: 0x0, symName: __ZN6hermes2vm12JSTypedArrayIhLNS0_8CellKindE38EE2vtE, symObjAddr: 0x4910, symBinAddr: 0x203958, symSize: 0x0 }
  - { offsetInCU: 0xAE4D, offset: 0x845ABB, size: 0x8, addend: 0x0, symName: __ZN6hermes2vm12JSTypedArrayIhLNS0_8CellKindE39EE2vtE, symObjAddr: 0x4970, symBinAddr: 0x2039B8, symSize: 0x0 }
  - { offsetInCU: 0xB24F, offset: 0x845EBD, size: 0x8, addend: 0x0, symName: __ZN6hermes2vm12JSTypedArrayItLNS0_8CellKindE40EE2vtE, symObjAddr: 0x49D0, symBinAddr: 0x203A18, symSize: 0x0 }
  - { offsetInCU: 0xB651, offset: 0x8462BF, size: 0x8, addend: 0x0, symName: __ZN6hermes2vm12JSTypedArrayIjLNS0_8CellKindE41EE2vtE, symObjAddr: 0x4A30, symBinAddr: 0x203A78, symSize: 0x0 }
  - { offsetInCU: 0xBA53, offset: 0x8466C1, size: 0x8, addend: 0x0, symName: __ZN6hermes2vm12JSTypedArrayIfLNS0_8CellKindE42EE2vtE, symObjAddr: 0x4A90, symBinAddr: 0x203AD8, symSize: 0x0 }
  - { offsetInCU: 0xBE55, offset: 0x846AC3, size: 0x8, addend: 0x0, symName: __ZN6hermes2vm12JSTypedArrayIdLNS0_8CellKindE43EE2vtE, symObjAddr: 0x4AF0, symBinAddr: 0x203B38, symSize: 0x0 }
  - { offsetInCU: 0xC257, offset: 0x846EC5, size: 0x8, addend: 0x0, symName: __ZN6hermes2vm12JSTypedArrayIxLNS0_8CellKindE44EE2vtE, symObjAddr: 0x4B50, symBinAddr: 0x203B98, symSize: 0x0 }
  - { offsetInCU: 0xC659, offset: 0x8472C7, size: 0x8, addend: 0x0, symName: __ZN6hermes2vm12JSTypedArrayIyLNS0_8CellKindE45EE2vtE, symObjAddr: 0x4BB0, symBinAddr: 0x203BF8, symSize: 0x0 }
  - { offsetInCU: 0xD5AB, offset: 0x848219, size: 0x8, addend: 0x0, symName: __ZN6hermes2vm23TypedArrayBaseBuildMetaEPKNS0_6GCCellERNS0_8Metadata7BuilderE, symObjAddr: 0x3854, symBinAddr: 0x53FA0, symSize: 0x54 }
  - { offsetInCU: 0xD6A7, offset: 0x848315, size: 0x8, addend: 0x0, symName: __ZN6hermes2vm18Int8ArrayBuildMetaEPKNS0_6GCCellERNS0_8Metadata7BuilderE, symObjAddr: 0x3D0C, symBinAddr: 0x54458, symSize: 0x2C }
  - { offsetInCU: 0xD729, offset: 0x848397, size: 0x8, addend: 0x0, symName: __ZN6hermes2vm19Int16ArrayBuildMetaEPKNS0_6GCCellERNS0_8Metadata7BuilderE, symObjAddr: 0x3D38, symBinAddr: 0x54484, symSize: 0x2C }
  - { offsetInCU: 0xD7AB, offset: 0x848419, size: 0x8, addend: 0x0, symName: __ZN6hermes2vm19Int32ArrayBuildMetaEPKNS0_6GCCellERNS0_8Metadata7BuilderE, symObjAddr: 0x3D64, symBinAddr: 0x544B0, symSize: 0x2C }
  - { offsetInCU: 0xD82D, offset: 0x84849B, size: 0x8, addend: 0x0, symName: __ZN6hermes2vm19Uint8ArrayBuildMetaEPKNS0_6GCCellERNS0_8Metadata7BuilderE, symObjAddr: 0x3D90, symBinAddr: 0x544DC, symSize: 0x2C }
  - { offsetInCU: 0xD8AF, offset: 0x84851D, size: 0x8, addend: 0x0, symName: __ZN6hermes2vm26Uint8ClampedArrayBuildMetaEPKNS0_6GCCellERNS0_8Metadata7BuilderE, symObjAddr: 0x3DBC, symBinAddr: 0x54508, symSize: 0x2C }
  - { offsetInCU: 0xD931, offset: 0x84859F, size: 0x8, addend: 0x0, symName: __ZN6hermes2vm20Uint16ArrayBuildMetaEPKNS0_6GCCellERNS0_8Metadata7BuilderE, symObjAddr: 0x3DE8, symBinAddr: 0x54534, symSize: 0x2C }
  - { offsetInCU: 0xD9B3, offset: 0x848621, size: 0x8, addend: 0x0, symName: __ZN6hermes2vm20Uint32ArrayBuildMetaEPKNS0_6GCCellERNS0_8Metadata7BuilderE, symObjAddr: 0x3E14, symBinAddr: 0x54560, symSize: 0x2C }
  - { offsetInCU: 0xDA35, offset: 0x8486A3, size: 0x8, addend: 0x0, symName: __ZN6hermes2vm21Float32ArrayBuildMetaEPKNS0_6GCCellERNS0_8Metadata7BuilderE, symObjAddr: 0x3E40, symBinAddr: 0x5458C, symSize: 0x2C }
  - { offsetInCU: 0xDAB7, offset: 0x848725, size: 0x8, addend: 0x0, symName: __ZN6hermes2vm21Float64ArrayBuildMetaEPKNS0_6GCCellERNS0_8Metadata7BuilderE, symObjAddr: 0x3E6C, symBinAddr: 0x545B8, symSize: 0x2C }
  - { offsetInCU: 0xDB39, offset: 0x8487A7, size: 0x8, addend: 0x0, symName: __ZN6hermes2vm22BigInt64ArrayBuildMetaEPKNS0_6GCCellERNS0_8Metadata7BuilderE, symObjAddr: 0x3E98, symBinAddr: 0x545E4, symSize: 0x2C }
  - { offsetInCU: 0xDBBB, offset: 0x848829, size: 0x8, addend: 0x0, symName: __ZN6hermes2vm23BigUint64ArrayBuildMetaEPKNS0_6GCCellERNS0_8Metadata7BuilderE, symObjAddr: 0x3EC4, symBinAddr: 0x54610, symSize: 0x2C }
  - { offsetInCU: 0x322AD, offset: 0x86CF1B, size: 0x8, addend: 0x0, symName: __ZNK6hermes2vm16JSTypedArrayBase12getByteWidthEv, symObjAddr: 0x38A8, symBinAddr: 0x53FF4, symSize: 0x18 }
  - { offsetInCU: 0x322D1, offset: 0x86CF3F, size: 0x8, addend: 0x0, symName: __ZZNK6hermes2vm16JSTypedArrayBase12getByteWidthEvE6widths, symObjAddr: 0x47E5, symBinAddr: 0x1BCAD0, symSize: 0x0 }
  - { offsetInCU: 0x322F4, offset: 0x86CF62, size: 0x8, addend: 0x0, symName: __ZNK6hermes2vm16JSTypedArrayBase12getByteWidthEv, symObjAddr: 0x38A8, symBinAddr: 0x53FF4, symSize: 0x18 }
  - { offsetInCU: 0x32311, offset: 0x86CF7F, size: 0x8, addend: 0x0, symName: __ZNK6hermes2vm16JSTypedArrayBase12getByteWidthEv, symObjAddr: 0x38A8, symBinAddr: 0x53FF4, symSize: 0x18 }
  - { offsetInCU: 0x3233C, offset: 0x86CFAA, size: 0x8, addend: 0x0, symName: __ZN6hermes2vm16JSTypedArrayBase8allocateERNS0_7RuntimeEj, symObjAddr: 0x38C0, symBinAddr: 0x5400C, symSize: 0x2C }
  - { offsetInCU: 0x32362, offset: 0x86CFD0, size: 0x8, addend: 0x0, symName: __ZZN6hermes2vm16JSTypedArrayBase8allocateERNS0_7RuntimeEjE11allocateFns, symObjAddr: 0x4C10, symBinAddr: 0x203C58, symSize: 0x0 }
  - { offsetInCU: 0x323FA, offset: 0x86D068, size: 0x8, addend: 0x0, symName: __ZN6hermes2vm16JSTypedArrayBase15allocateSpeciesERNS0_7RuntimeENS0_6HandleIS1_EEj, symObjAddr: 0x3A0C, symBinAddr: 0x54158, symSize: 0x38 }
  - { offsetInCU: 0x3241A, offset: 0x86D088, size: 0x8, addend: 0x0, symName: __ZZN6hermes2vm16JSTypedArrayBase15allocateSpeciesERNS0_7RuntimeENS0_6HandleIS1_EEjE11allocateFns, symObjAddr: 0x4C68, symBinAddr: 0x203CB0, symSize: 0x0 }
  - { offsetInCU: 0x34655, offset: 0x86F2C3, size: 0x8, addend: 0x0, symName: __ZN6hermes2vm16JSTypedArrayBase23_getOwnIndexedRangeImplEPNS0_8JSObjectERNS0_7RuntimeE, symObjAddr: 0x0, symBinAddr: 0x51560, symSize: 0xC }
  - { offsetInCU: 0x346AA, offset: 0x86F318, size: 0x8, addend: 0x0, symName: __ZN6hermes2vm16JSTypedArrayBase19_haveOwnIndexedImplEPNS0_8JSObjectERNS0_7RuntimeEj, symObjAddr: 0xC, symBinAddr: 0x5156C, symSize: 0x10 }
  - { offsetInCU: 0x346E3, offset: 0x86F351, size: 0x8, addend: 0x0, symName: __ZN6hermes2vm16JSTypedArrayBase19_haveOwnIndexedImplEPNS0_8JSObjectERNS0_7RuntimeEj, symObjAddr: 0xC, symBinAddr: 0x5156C, symSize: 0x10 }
  - { offsetInCU: 0x346FF, offset: 0x86F36D, size: 0x8, addend: 0x0, symName: __ZN6hermes2vm16JSTypedArrayBase31_getOwnIndexedPropertyFlagsImplEPNS0_8JSObjectERNS0_7RuntimeEj, symObjAddr: 0x1C, symBinAddr: 0x5157C, symSize: 0x54 }
  - { offsetInCU: 0x34762, offset: 0x86F3D0, size: 0x8, addend: 0x0, symName: __ZN6hermes2vm16JSTypedArrayBase31_getOwnIndexedPropertyFlagsImplEPNS0_8JSObjectERNS0_7RuntimeEj, symObjAddr: 0x1C, symBinAddr: 0x5157C, symSize: 0x54 }
  - { offsetInCU: 0x349EB, offset: 0x86F659, size: 0x8, addend: 0x0, symName: __ZN6hermes2vm12JSTypedArrayIaLNS0_8CellKindE35EE18_getOwnIndexedImplENS0_12PseudoHandleINS0_8JSObjectEEERNS0_7RuntimeEj, symObjAddr: 0x70, symBinAddr: 0x515D0, symSize: 0x88 }
  - { offsetInCU: 0x34CD0, offset: 0x86F93E, size: 0x8, addend: 0x0, symName: __ZN6hermes2vm12JSTypedArrayIaLNS0_8CellKindE35EE18_setOwnIndexedImplENS0_6HandleINS0_8JSObjectEEERNS0_7RuntimeEjNS4_INS0_11HermesValueEEE, symObjAddr: 0xF8, symBinAddr: 0x51658, symSize: 0x11C }
  - { offsetInCU: 0x34EC3, offset: 0x86FB31, size: 0x8, addend: 0x0, symName: __ZN6hermes2vm12JSTypedArrayIaLNS0_8CellKindE35EE18_setOwnIndexedImplENS0_6HandleINS0_8JSObjectEEERNS0_7RuntimeEjNS4_INS0_11HermesValueEEE, symObjAddr: 0xF8, symBinAddr: 0x51658, symSize: 0x11C }
  - { offsetInCU: 0x35355, offset: 0x86FFC3, size: 0x8, addend: 0x0, symName: __ZN6hermes2vm16JSTypedArrayBase21_deleteOwnIndexedImplENS0_6HandleINS0_8JSObjectEEERNS0_7RuntimeEj, symObjAddr: 0x214, symBinAddr: 0x51774, symSize: 0x18 }
  - { offsetInCU: 0x353F9, offset: 0x870067, size: 0x8, addend: 0x0, symName: __ZN6hermes2vm16JSTypedArrayBase21_deleteOwnIndexedImplENS0_6HandleINS0_8JSObjectEEERNS0_7RuntimeEj, symObjAddr: 0x214, symBinAddr: 0x51774, symSize: 0x18 }
  - { offsetInCU: 0x3543C, offset: 0x8700AA, size: 0x8, addend: 0x0, symName: __ZN6hermes2vm16JSTypedArrayBase21_deleteOwnIndexedImplENS0_6HandleINS0_8JSObjectEEERNS0_7RuntimeEj, symObjAddr: 0x214, symBinAddr: 0x51774, symSize: 0x18 }
  - { offsetInCU: 0x35452, offset: 0x8700C0, size: 0x8, addend: 0x0, symName: __ZN6hermes2vm16JSTypedArrayBase21_deleteOwnIndexedImplENS0_6HandleINS0_8JSObjectEEERNS0_7RuntimeEj, symObjAddr: 0x214, symBinAddr: 0x51774, symSize: 0x18 }
  - { offsetInCU: 0x35468, offset: 0x8700D6, size: 0x8, addend: 0x0, symName: __ZN6hermes2vm16JSTypedArrayBase21_deleteOwnIndexedImplENS0_6HandleINS0_8JSObjectEEERNS0_7RuntimeEj, symObjAddr: 0x214, symBinAddr: 0x51774, symSize: 0x18 }
  - { offsetInCU: 0x35519, offset: 0x870187, size: 0x8, addend: 0x0, symName: __ZN6hermes2vm16JSTypedArrayBase23_checkAllOwnIndexedImplEPNS0_8JSObjectERNS0_7RuntimeENS0_12ObjectVTable22CheckAllOwnIndexedModeE, symObjAddr: 0x22C, symBinAddr: 0x5178C, symSize: 0x10 }
  - { offsetInCU: 0x35562, offset: 0x8701D0, size: 0x8, addend: 0x0, symName: __ZN6hermes2vm16JSTypedArrayBase23_checkAllOwnIndexedImplEPNS0_8JSObjectERNS0_7RuntimeENS0_12ObjectVTable22CheckAllOwnIndexedModeE, symObjAddr: 0x22C, symBinAddr: 0x5178C, symSize: 0x10 }
  - { offsetInCU: 0x35844, offset: 0x8704B2, size: 0x8, addend: 0x0, symName: __ZN6hermes2vm12JSTypedArrayIaLNS0_8CellKindE35EE6createERNS0_7RuntimeENS0_6HandleINS0_8JSObjectEEE, symObjAddr: 0x254, symBinAddr: 0x5179C, symSize: 0x64 }
  - { offsetInCU: 0x35A64, offset: 0x8706D2, size: 0x8, addend: 0x0, symName: __ZN6hermes2vm6GCBase5makeAINS0_12JSTypedArrayIaLNS0_8CellKindE35EEELb1ELNS0_12HasFinalizerE0ELNS0_9LongLivedE0EJRNS0_7RuntimeERNS0_6HandleINS0_8JSObjectEEENSA_INS0_11HiddenClassEEEEEEPT_jDpOT3_, symObjAddr: 0x4174, symBinAddr: 0x54694, symSize: 0x70 }
  - { offsetInCU: 0x35FB4, offset: 0x870C22, size: 0x8, addend: 0x0, symName: __ZN6hermes2vm12JSTypedArrayIaLNS0_8CellKindE35EE8allocateERNS0_7RuntimeEj, symObjAddr: 0x3BC, symBinAddr: 0x51800, symSize: 0x78 }
  - { offsetInCU: 0x36226, offset: 0x870E94, size: 0x8, addend: 0x0, symName: __ZN6hermes2vm16JSTypedArrayBase12createBufferERNS0_7RuntimeENS0_6HandleIS1_EEy, symObjAddr: 0x440, symBinAddr: 0x51884, symSize: 0x124 }
  - { offsetInCU: 0x3673F, offset: 0x8713AD, size: 0x8, addend: 0x0, symName: __ZN6hermes2vm12JSTypedArrayIaLNS0_8CellKindE35EE12getPrototypeERKNS0_7RuntimeE, symObjAddr: 0x434, symBinAddr: 0x51878, symSize: 0xC }
  - { offsetInCU: 0x368F2, offset: 0x871560, size: 0x8, addend: 0x0, symName: __ZN6hermes2vm16JSTypedArrayBase9setBufferERNS0_7RuntimeEPS1_PNS0_13JSArrayBufferEjjh, symObjAddr: 0x3A44, symBinAddr: 0x54190, symSize: 0x7C }
  - { offsetInCU: 0x36CE1, offset: 0x87194F, size: 0x8, addend: 0x0, symName: __ZN6hermes2vm12JSTypedArrayIaLNS0_8CellKindE35EE15allocateSpeciesENS0_6HandleINS0_16JSTypedArrayBaseEEERNS0_7RuntimeEj, symObjAddr: 0x564, symBinAddr: 0x519A8, symSize: 0xCC }
  - { offsetInCU: 0x3713B, offset: 0x871DA9, size: 0x8, addend: 0x0, symName: __ZN6hermes2vm16JSTypedArrayBase18validateTypedArrayERNS0_7RuntimeENS0_6HandleINS0_11HermesValueEEEb, symObjAddr: 0x63C, symBinAddr: 0x51A74, symSize: 0xDC }
  - { offsetInCU: 0x375A1, offset: 0x87220F, size: 0x8, addend: 0x0, symName: __ZN6hermes2vm16JSTypedArrayBaseC2ERNS0_7RuntimeENS0_6HandleINS0_8JSObjectEEENS4_INS0_11HiddenClassEEE, symObjAddr: 0x74C, symBinAddr: 0x51B50, symSize: 0x5C }
  - { offsetInCU: 0x37612, offset: 0x872280, size: 0x8, addend: 0x0, symName: __ZN6hermes2vm16JSTypedArrayBaseC2ERNS0_7RuntimeENS0_6HandleINS0_8JSObjectEEENS4_INS0_11HiddenClassEEE, symObjAddr: 0x74C, symBinAddr: 0x51B50, symSize: 0x5C }
  - { offsetInCU: 0x3801F, offset: 0x872C8D, size: 0x8, addend: 0x0, symName: __ZN6hermes2vm12JSTypedArrayIsLNS0_8CellKindE36EE18_getOwnIndexedImplENS0_12PseudoHandleINS0_8JSObjectEEERNS0_7RuntimeEj, symObjAddr: 0x7AC, symBinAddr: 0x51BAC, symSize: 0x88 }
  - { offsetInCU: 0x38304, offset: 0x872F72, size: 0x8, addend: 0x0, symName: __ZN6hermes2vm12JSTypedArrayIsLNS0_8CellKindE36EE18_setOwnIndexedImplENS0_6HandleINS0_8JSObjectEEERNS0_7RuntimeEjNS4_INS0_11HermesValueEEE, symObjAddr: 0x834, symBinAddr: 0x51C34, symSize: 0x11C }
  - { offsetInCU: 0x383A9, offset: 0x873017, size: 0x8, addend: 0x0, symName: __ZN6hermes2vm12JSTypedArrayIsLNS0_8CellKindE36EE18_setOwnIndexedImplENS0_6HandleINS0_8JSObjectEEERNS0_7RuntimeEjNS4_INS0_11HermesValueEEE, symObjAddr: 0x834, symBinAddr: 0x51C34, symSize: 0x11C }
  - { offsetInCU: 0x3895C, offset: 0x8735CA, size: 0x8, addend: 0x0, symName: __ZN6hermes2vm12JSTypedArrayIsLNS0_8CellKindE36EE6createERNS0_7RuntimeENS0_6HandleINS0_8JSObjectEEE, symObjAddr: 0x968, symBinAddr: 0x51D50, symSize: 0x64 }
  - { offsetInCU: 0x38B7C, offset: 0x8737EA, size: 0x8, addend: 0x0, symName: __ZN6hermes2vm6GCBase5makeAINS0_12JSTypedArrayIsLNS0_8CellKindE36EEELb1ELNS0_12HasFinalizerE0ELNS0_9LongLivedE0EJRNS0_7RuntimeERNS0_6HandleINS0_8JSObjectEEENSA_INS0_11HiddenClassEEEEEEPT_jDpOT3_, symObjAddr: 0x41E4, symBinAddr: 0x54704, symSize: 0x70 }
  - { offsetInCU: 0x38F23, offset: 0x873B91, size: 0x8, addend: 0x0, symName: __ZN6hermes2vm12JSTypedArrayIsLNS0_8CellKindE36EE8allocateERNS0_7RuntimeEj, symObjAddr: 0xAD0, symBinAddr: 0x51DB4, symSize: 0x78 }
  - { offsetInCU: 0x39195, offset: 0x873E03, size: 0x8, addend: 0x0, symName: __ZN6hermes2vm12JSTypedArrayIsLNS0_8CellKindE36EE12getPrototypeERKNS0_7RuntimeE, symObjAddr: 0xB48, symBinAddr: 0x51E2C, symSize: 0xC }
  - { offsetInCU: 0x391C8, offset: 0x873E36, size: 0x8, addend: 0x0, symName: __ZN6hermes2vm12JSTypedArrayIsLNS0_8CellKindE36EE15allocateSpeciesENS0_6HandleINS0_16JSTypedArrayBaseEEERNS0_7RuntimeEj, symObjAddr: 0xB54, symBinAddr: 0x51E38, symSize: 0xCC }
  - { offsetInCU: 0x396F2, offset: 0x874360, size: 0x8, addend: 0x0, symName: __ZN6hermes2vm12JSTypedArrayIiLNS0_8CellKindE37EE18_getOwnIndexedImplENS0_12PseudoHandleINS0_8JSObjectEEERNS0_7RuntimeEj, symObjAddr: 0xC64, symBinAddr: 0x51F04, symSize: 0x88 }
  - { offsetInCU: 0x399EB, offset: 0x874659, size: 0x8, addend: 0x0, symName: __ZN6hermes2vm12JSTypedArrayIiLNS0_8CellKindE37EE18_setOwnIndexedImplENS0_6HandleINS0_8JSObjectEEERNS0_7RuntimeEjNS4_INS0_11HermesValueEEE, symObjAddr: 0xCEC, symBinAddr: 0x51F8C, symSize: 0x11C }
  - { offsetInCU: 0x39A90, offset: 0x8746FE, size: 0x8, addend: 0x0, symName: __ZN6hermes2vm12JSTypedArrayIiLNS0_8CellKindE37EE18_setOwnIndexedImplENS0_6HandleINS0_8JSObjectEEERNS0_7RuntimeEjNS4_INS0_11HermesValueEEE, symObjAddr: 0xCEC, symBinAddr: 0x51F8C, symSize: 0x11C }
  - { offsetInCU: 0x3A043, offset: 0x874CB1, size: 0x8, addend: 0x0, symName: __ZN6hermes2vm12JSTypedArrayIiLNS0_8CellKindE37EE6createERNS0_7RuntimeENS0_6HandleINS0_8JSObjectEEE, symObjAddr: 0xE20, symBinAddr: 0x520A8, symSize: 0x64 }
  - { offsetInCU: 0x3A263, offset: 0x874ED1, size: 0x8, addend: 0x0, symName: __ZN6hermes2vm6GCBase5makeAINS0_12JSTypedArrayIiLNS0_8CellKindE37EEELb1ELNS0_12HasFinalizerE0ELNS0_9LongLivedE0EJRNS0_7RuntimeERNS0_6HandleINS0_8JSObjectEEENSA_INS0_11HiddenClassEEEEEEPT_jDpOT3_, symObjAddr: 0x4254, symBinAddr: 0x54774, symSize: 0x70 }
  - { offsetInCU: 0x3A60A, offset: 0x875278, size: 0x8, addend: 0x0, symName: __ZN6hermes2vm12JSTypedArrayIiLNS0_8CellKindE37EE8allocateERNS0_7RuntimeEj, symObjAddr: 0xF88, symBinAddr: 0x5210C, symSize: 0x78 }
  - { offsetInCU: 0x3A87C, offset: 0x8754EA, size: 0x8, addend: 0x0, symName: __ZN6hermes2vm12JSTypedArrayIiLNS0_8CellKindE37EE12getPrototypeERKNS0_7RuntimeE, symObjAddr: 0x1000, symBinAddr: 0x52184, symSize: 0xC }
  - { offsetInCU: 0x3A8AF, offset: 0x87551D, size: 0x8, addend: 0x0, symName: __ZN6hermes2vm12JSTypedArrayIiLNS0_8CellKindE37EE15allocateSpeciesENS0_6HandleINS0_16JSTypedArrayBaseEEERNS0_7RuntimeEj, symObjAddr: 0x100C, symBinAddr: 0x52190, symSize: 0xCC }
  - { offsetInCU: 0x3ADD9, offset: 0x875A47, size: 0x8, addend: 0x0, symName: __ZN6hermes2vm12JSTypedArrayIhLNS0_8CellKindE38EE18_getOwnIndexedImplENS0_12PseudoHandleINS0_8JSObjectEEERNS0_7RuntimeEj, symObjAddr: 0x110C, symBinAddr: 0x5225C, symSize: 0x88 }
  - { offsetInCU: 0x3B0BE, offset: 0x875D2C, size: 0x8, addend: 0x0, symName: __ZN6hermes2vm12JSTypedArrayIhLNS0_8CellKindE38EE18_setOwnIndexedImplENS0_6HandleINS0_8JSObjectEEERNS0_7RuntimeEjNS4_INS0_11HermesValueEEE, symObjAddr: 0x1194, symBinAddr: 0x522E4, symSize: 0x11C }
  - { offsetInCU: 0x3B163, offset: 0x875DD1, size: 0x8, addend: 0x0, symName: __ZN6hermes2vm12JSTypedArrayIhLNS0_8CellKindE38EE18_setOwnIndexedImplENS0_6HandleINS0_8JSObjectEEERNS0_7RuntimeEjNS4_INS0_11HermesValueEEE, symObjAddr: 0x1194, symBinAddr: 0x522E4, symSize: 0x11C }
  - { offsetInCU: 0x3B716, offset: 0x876384, size: 0x8, addend: 0x0, symName: __ZN6hermes2vm12JSTypedArrayIhLNS0_8CellKindE38EE6createERNS0_7RuntimeENS0_6HandleINS0_8JSObjectEEE, symObjAddr: 0x12C8, symBinAddr: 0x52400, symSize: 0x64 }
  - { offsetInCU: 0x3B936, offset: 0x8765A4, size: 0x8, addend: 0x0, symName: __ZN6hermes2vm6GCBase5makeAINS0_12JSTypedArrayIhLNS0_8CellKindE38EEELb1ELNS0_12HasFinalizerE0ELNS0_9LongLivedE0EJRNS0_7RuntimeERNS0_6HandleINS0_8JSObjectEEENSA_INS0_11HiddenClassEEEEEEPT_jDpOT3_, symObjAddr: 0x42C4, symBinAddr: 0x547E4, symSize: 0x70 }
  - { offsetInCU: 0x3BCDD, offset: 0x87694B, size: 0x8, addend: 0x0, symName: __ZN6hermes2vm12JSTypedArrayIhLNS0_8CellKindE38EE8allocateERNS0_7RuntimeEj, symObjAddr: 0x1430, symBinAddr: 0x52464, symSize: 0x78 }
  - { offsetInCU: 0x3BF4F, offset: 0x876BBD, size: 0x8, addend: 0x0, symName: __ZN6hermes2vm12JSTypedArrayIhLNS0_8CellKindE38EE12getPrototypeERKNS0_7RuntimeE, symObjAddr: 0x14A8, symBinAddr: 0x524DC, symSize: 0xC }
  - { offsetInCU: 0x3BF82, offset: 0x876BF0, size: 0x8, addend: 0x0, symName: __ZN6hermes2vm12JSTypedArrayIhLNS0_8CellKindE38EE15allocateSpeciesENS0_6HandleINS0_16JSTypedArrayBaseEEERNS0_7RuntimeEj, symObjAddr: 0x14B4, symBinAddr: 0x524E8, symSize: 0xCC }
  - { offsetInCU: 0x3C470, offset: 0x8770DE, size: 0x8, addend: 0x0, symName: __ZN6hermes2vm12JSTypedArrayIhLNS0_8CellKindE39EE18_getOwnIndexedImplENS0_12PseudoHandleINS0_8JSObjectEEERNS0_7RuntimeEj, symObjAddr: 0x15C4, symBinAddr: 0x525B4, symSize: 0x88 }
  - { offsetInCU: 0x3C755, offset: 0x8773C3, size: 0x8, addend: 0x0, symName: __ZN6hermes2vm12JSTypedArrayIhLNS0_8CellKindE39EE18_setOwnIndexedImplENS0_6HandleINS0_8JSObjectEEERNS0_7RuntimeEjNS4_INS0_11HermesValueEEE, symObjAddr: 0x164C, symBinAddr: 0x5263C, symSize: 0x108 }
  - { offsetInCU: 0x3C7FE, offset: 0x87746C, size: 0x8, addend: 0x0, symName: __ZN6hermes2vm12JSTypedArrayIhLNS0_8CellKindE39EE18_setOwnIndexedImplENS0_6HandleINS0_8JSObjectEEERNS0_7RuntimeEjNS4_INS0_11HermesValueEEE, symObjAddr: 0x164C, symBinAddr: 0x5263C, symSize: 0x108 }
  - { offsetInCU: 0x3CD8D, offset: 0x8779FB, size: 0x8, addend: 0x0, symName: __ZN6hermes2vm12JSTypedArrayIhLNS0_8CellKindE39EE6createERNS0_7RuntimeENS0_6HandleINS0_8JSObjectEEE, symObjAddr: 0x176C, symBinAddr: 0x52744, symSize: 0x64 }
  - { offsetInCU: 0x3CFAD, offset: 0x877C1B, size: 0x8, addend: 0x0, symName: __ZN6hermes2vm6GCBase5makeAINS0_12JSTypedArrayIhLNS0_8CellKindE39EEELb1ELNS0_12HasFinalizerE0ELNS0_9LongLivedE0EJRNS0_7RuntimeERNS0_6HandleINS0_8JSObjectEEENSA_INS0_11HiddenClassEEEEEEPT_jDpOT3_, symObjAddr: 0x4334, symBinAddr: 0x54854, symSize: 0x70 }
  - { offsetInCU: 0x3D354, offset: 0x877FC2, size: 0x8, addend: 0x0, symName: __ZN6hermes2vm12JSTypedArrayIhLNS0_8CellKindE39EE8allocateERNS0_7RuntimeEj, symObjAddr: 0x18D4, symBinAddr: 0x527A8, symSize: 0x78 }
  - { offsetInCU: 0x3D5C6, offset: 0x878234, size: 0x8, addend: 0x0, symName: __ZN6hermes2vm12JSTypedArrayIhLNS0_8CellKindE39EE12getPrototypeERKNS0_7RuntimeE, symObjAddr: 0x194C, symBinAddr: 0x52820, symSize: 0xC }
  - { offsetInCU: 0x3D5F9, offset: 0x878267, size: 0x8, addend: 0x0, symName: __ZN6hermes2vm12JSTypedArrayIhLNS0_8CellKindE39EE15allocateSpeciesENS0_6HandleINS0_16JSTypedArrayBaseEEERNS0_7RuntimeEj, symObjAddr: 0x1958, symBinAddr: 0x5282C, symSize: 0xCC }
  - { offsetInCU: 0x3DB23, offset: 0x878791, size: 0x8, addend: 0x0, symName: __ZN6hermes2vm12JSTypedArrayItLNS0_8CellKindE40EE18_getOwnIndexedImplENS0_12PseudoHandleINS0_8JSObjectEEERNS0_7RuntimeEj, symObjAddr: 0x1A38, symBinAddr: 0x528F8, symSize: 0x88 }
  - { offsetInCU: 0x3DE08, offset: 0x878A76, size: 0x8, addend: 0x0, symName: __ZN6hermes2vm12JSTypedArrayItLNS0_8CellKindE40EE18_setOwnIndexedImplENS0_6HandleINS0_8JSObjectEEERNS0_7RuntimeEjNS4_INS0_11HermesValueEEE, symObjAddr: 0x1AC0, symBinAddr: 0x52980, symSize: 0x11C }
  - { offsetInCU: 0x3DEAD, offset: 0x878B1B, size: 0x8, addend: 0x0, symName: __ZN6hermes2vm12JSTypedArrayItLNS0_8CellKindE40EE18_setOwnIndexedImplENS0_6HandleINS0_8JSObjectEEERNS0_7RuntimeEjNS4_INS0_11HermesValueEEE, symObjAddr: 0x1AC0, symBinAddr: 0x52980, symSize: 0x11C }
  - { offsetInCU: 0x3E460, offset: 0x8790CE, size: 0x8, addend: 0x0, symName: __ZN6hermes2vm12JSTypedArrayItLNS0_8CellKindE40EE6createERNS0_7RuntimeENS0_6HandleINS0_8JSObjectEEE, symObjAddr: 0x1BF4, symBinAddr: 0x52A9C, symSize: 0x64 }
  - { offsetInCU: 0x3E680, offset: 0x8792EE, size: 0x8, addend: 0x0, symName: __ZN6hermes2vm6GCBase5makeAINS0_12JSTypedArrayItLNS0_8CellKindE40EEELb1ELNS0_12HasFinalizerE0ELNS0_9LongLivedE0EJRNS0_7RuntimeERNS0_6HandleINS0_8JSObjectEEENSA_INS0_11HiddenClassEEEEEEPT_jDpOT3_, symObjAddr: 0x43A4, symBinAddr: 0x548C4, symSize: 0x70 }
  - { offsetInCU: 0x3EA27, offset: 0x879695, size: 0x8, addend: 0x0, symName: __ZN6hermes2vm12JSTypedArrayItLNS0_8CellKindE40EE8allocateERNS0_7RuntimeEj, symObjAddr: 0x1D5C, symBinAddr: 0x52B00, symSize: 0x78 }
  - { offsetInCU: 0x3EC99, offset: 0x879907, size: 0x8, addend: 0x0, symName: __ZN6hermes2vm12JSTypedArrayItLNS0_8CellKindE40EE12getPrototypeERKNS0_7RuntimeE, symObjAddr: 0x1DD4, symBinAddr: 0x52B78, symSize: 0xC }
  - { offsetInCU: 0x3ECCC, offset: 0x87993A, size: 0x8, addend: 0x0, symName: __ZN6hermes2vm12JSTypedArrayItLNS0_8CellKindE40EE15allocateSpeciesENS0_6HandleINS0_16JSTypedArrayBaseEEERNS0_7RuntimeEj, symObjAddr: 0x1DE0, symBinAddr: 0x52B84, symSize: 0xCC }
  - { offsetInCU: 0x3F1D8, offset: 0x879E46, size: 0x8, addend: 0x0, symName: __ZN6hermes2vm12JSTypedArrayIjLNS0_8CellKindE41EE18_getOwnIndexedImplENS0_12PseudoHandleINS0_8JSObjectEEERNS0_7RuntimeEj, symObjAddr: 0x1EF0, symBinAddr: 0x52C50, symSize: 0x88 }
  - { offsetInCU: 0x3F4BD, offset: 0x87A12B, size: 0x8, addend: 0x0, symName: __ZN6hermes2vm12JSTypedArrayIjLNS0_8CellKindE41EE18_setOwnIndexedImplENS0_6HandleINS0_8JSObjectEEERNS0_7RuntimeEjNS4_INS0_11HermesValueEEE, symObjAddr: 0x1F78, symBinAddr: 0x52CD8, symSize: 0x11C }
  - { offsetInCU: 0x3F562, offset: 0x87A1D0, size: 0x8, addend: 0x0, symName: __ZN6hermes2vm12JSTypedArrayIjLNS0_8CellKindE41EE18_setOwnIndexedImplENS0_6HandleINS0_8JSObjectEEERNS0_7RuntimeEjNS4_INS0_11HermesValueEEE, symObjAddr: 0x1F78, symBinAddr: 0x52CD8, symSize: 0x11C }
  - { offsetInCU: 0x3FB15, offset: 0x87A783, size: 0x8, addend: 0x0, symName: __ZN6hermes2vm12JSTypedArrayIjLNS0_8CellKindE41EE6createERNS0_7RuntimeENS0_6HandleINS0_8JSObjectEEE, symObjAddr: 0x20AC, symBinAddr: 0x52DF4, symSize: 0x64 }
  - { offsetInCU: 0x3FD35, offset: 0x87A9A3, size: 0x8, addend: 0x0, symName: __ZN6hermes2vm6GCBase5makeAINS0_12JSTypedArrayIjLNS0_8CellKindE41EEELb1ELNS0_12HasFinalizerE0ELNS0_9LongLivedE0EJRNS0_7RuntimeERNS0_6HandleINS0_8JSObjectEEENSA_INS0_11HiddenClassEEEEEEPT_jDpOT3_, symObjAddr: 0x4414, symBinAddr: 0x54934, symSize: 0x70 }
  - { offsetInCU: 0x400DC, offset: 0x87AD4A, size: 0x8, addend: 0x0, symName: __ZN6hermes2vm12JSTypedArrayIjLNS0_8CellKindE41EE8allocateERNS0_7RuntimeEj, symObjAddr: 0x2214, symBinAddr: 0x52E58, symSize: 0x78 }
  - { offsetInCU: 0x4034E, offset: 0x87AFBC, size: 0x8, addend: 0x0, symName: __ZN6hermes2vm12JSTypedArrayIjLNS0_8CellKindE41EE12getPrototypeERKNS0_7RuntimeE, symObjAddr: 0x228C, symBinAddr: 0x52ED0, symSize: 0xC }
  - { offsetInCU: 0x40381, offset: 0x87AFEF, size: 0x8, addend: 0x0, symName: __ZN6hermes2vm12JSTypedArrayIjLNS0_8CellKindE41EE15allocateSpeciesENS0_6HandleINS0_16JSTypedArrayBaseEEERNS0_7RuntimeEj, symObjAddr: 0x2298, symBinAddr: 0x52EDC, symSize: 0xCC }
  - { offsetInCU: 0x408A2, offset: 0x87B510, size: 0x8, addend: 0x0, symName: __ZN6hermes2vm12JSTypedArrayIfLNS0_8CellKindE42EE18_getOwnIndexedImplENS0_12PseudoHandleINS0_8JSObjectEEERNS0_7RuntimeEj, symObjAddr: 0x2398, symBinAddr: 0x52FA8, symSize: 0x94 }
  - { offsetInCU: 0x40B52, offset: 0x87B7C0, size: 0x8, addend: 0x0, symName: __ZN6hermes2vm12JSTypedArrayIfLNS0_8CellKindE42EE18_setOwnIndexedImplENS0_6HandleINS0_8JSObjectEEERNS0_7RuntimeEjNS4_INS0_11HermesValueEEE, symObjAddr: 0x242C, symBinAddr: 0x5303C, symSize: 0x108 }
  - { offsetInCU: 0x40BE2, offset: 0x87B850, size: 0x8, addend: 0x0, symName: __ZN6hermes2vm12JSTypedArrayIfLNS0_8CellKindE42EE18_setOwnIndexedImplENS0_6HandleINS0_8JSObjectEEERNS0_7RuntimeEjNS4_INS0_11HermesValueEEE, symObjAddr: 0x242C, symBinAddr: 0x5303C, symSize: 0x108 }
  - { offsetInCU: 0x41123, offset: 0x87BD91, size: 0x8, addend: 0x0, symName: __ZN6hermes2vm12JSTypedArrayIfLNS0_8CellKindE42EE6createERNS0_7RuntimeENS0_6HandleINS0_8JSObjectEEE, symObjAddr: 0x254C, symBinAddr: 0x53144, symSize: 0x64 }
  - { offsetInCU: 0x41343, offset: 0x87BFB1, size: 0x8, addend: 0x0, symName: __ZN6hermes2vm6GCBase5makeAINS0_12JSTypedArrayIfLNS0_8CellKindE42EEELb1ELNS0_12HasFinalizerE0ELNS0_9LongLivedE0EJRNS0_7RuntimeERNS0_6HandleINS0_8JSObjectEEENSA_INS0_11HiddenClassEEEEEEPT_jDpOT3_, symObjAddr: 0x4484, symBinAddr: 0x549A4, symSize: 0x70 }
  - { offsetInCU: 0x416EA, offset: 0x87C358, size: 0x8, addend: 0x0, symName: __ZN6hermes2vm12JSTypedArrayIfLNS0_8CellKindE42EE8allocateERNS0_7RuntimeEj, symObjAddr: 0x26B4, symBinAddr: 0x531A8, symSize: 0x78 }
  - { offsetInCU: 0x4195C, offset: 0x87C5CA, size: 0x8, addend: 0x0, symName: __ZN6hermes2vm12JSTypedArrayIfLNS0_8CellKindE42EE12getPrototypeERKNS0_7RuntimeE, symObjAddr: 0x272C, symBinAddr: 0x53220, symSize: 0xC }
  - { offsetInCU: 0x4198F, offset: 0x87C5FD, size: 0x8, addend: 0x0, symName: __ZN6hermes2vm12JSTypedArrayIfLNS0_8CellKindE42EE15allocateSpeciesENS0_6HandleINS0_16JSTypedArrayBaseEEERNS0_7RuntimeEj, symObjAddr: 0x2738, symBinAddr: 0x5322C, symSize: 0xCC }
  - { offsetInCU: 0x41E9B, offset: 0x87CB09, size: 0x8, addend: 0x0, symName: __ZN6hermes2vm12JSTypedArrayIdLNS0_8CellKindE43EE18_getOwnIndexedImplENS0_12PseudoHandleINS0_8JSObjectEEERNS0_7RuntimeEj, symObjAddr: 0x2818, symBinAddr: 0x532F8, symSize: 0x90 }
  - { offsetInCU: 0x4214C, offset: 0x87CDBA, size: 0x8, addend: 0x0, symName: __ZN6hermes2vm12JSTypedArrayIdLNS0_8CellKindE43EE18_setOwnIndexedImplENS0_6HandleINS0_8JSObjectEEERNS0_7RuntimeEjNS4_INS0_11HermesValueEEE, symObjAddr: 0x28A8, symBinAddr: 0x53388, symSize: 0x100 }
  - { offsetInCU: 0x421DC, offset: 0x87CE4A, size: 0x8, addend: 0x0, symName: __ZN6hermes2vm12JSTypedArrayIdLNS0_8CellKindE43EE18_setOwnIndexedImplENS0_6HandleINS0_8JSObjectEEERNS0_7RuntimeEjNS4_INS0_11HermesValueEEE, symObjAddr: 0x28A8, symBinAddr: 0x53388, symSize: 0x100 }
  - { offsetInCU: 0x4271D, offset: 0x87D38B, size: 0x8, addend: 0x0, symName: __ZN6hermes2vm12JSTypedArrayIdLNS0_8CellKindE43EE6createERNS0_7RuntimeENS0_6HandleINS0_8JSObjectEEE, symObjAddr: 0x29C0, symBinAddr: 0x53488, symSize: 0x64 }
  - { offsetInCU: 0x4293D, offset: 0x87D5AB, size: 0x8, addend: 0x0, symName: __ZN6hermes2vm6GCBase5makeAINS0_12JSTypedArrayIdLNS0_8CellKindE43EEELb1ELNS0_12HasFinalizerE0ELNS0_9LongLivedE0EJRNS0_7RuntimeERNS0_6HandleINS0_8JSObjectEEENSA_INS0_11HiddenClassEEEEEEPT_jDpOT3_, symObjAddr: 0x44F4, symBinAddr: 0x54A14, symSize: 0x70 }
  - { offsetInCU: 0x42CE4, offset: 0x87D952, size: 0x8, addend: 0x0, symName: __ZN6hermes2vm12JSTypedArrayIdLNS0_8CellKindE43EE8allocateERNS0_7RuntimeEj, symObjAddr: 0x2B28, symBinAddr: 0x534EC, symSize: 0x78 }
  - { offsetInCU: 0x42F56, offset: 0x87DBC4, size: 0x8, addend: 0x0, symName: __ZN6hermes2vm12JSTypedArrayIdLNS0_8CellKindE43EE12getPrototypeERKNS0_7RuntimeE, symObjAddr: 0x2BA0, symBinAddr: 0x53564, symSize: 0xC }
  - { offsetInCU: 0x42F89, offset: 0x87DBF7, size: 0x8, addend: 0x0, symName: __ZN6hermes2vm12JSTypedArrayIdLNS0_8CellKindE43EE15allocateSpeciesENS0_6HandleINS0_16JSTypedArrayBaseEEERNS0_7RuntimeEj, symObjAddr: 0x2BAC, symBinAddr: 0x53570, symSize: 0xCC }
  - { offsetInCU: 0x43477, offset: 0x87E0E5, size: 0x8, addend: 0x0, symName: __ZN6hermes2vm12JSTypedArrayIxLNS0_8CellKindE44EE18_getOwnIndexedImplENS0_12PseudoHandleINS0_8JSObjectEEERNS0_7RuntimeEj, symObjAddr: 0x2C8C, symBinAddr: 0x5363C, symSize: 0xBC }
  - { offsetInCU: 0x43709, offset: 0x87E377, size: 0x8, addend: 0x0, symName: __ZN6hermes2vm12JSTypedArrayIxLNS0_8CellKindE44EE18_setOwnIndexedImplENS0_6HandleINS0_8JSObjectEEERNS0_7RuntimeEjNS4_INS0_11HermesValueEEE, symObjAddr: 0x2D48, symBinAddr: 0x536F8, symSize: 0x104 }
  - { offsetInCU: 0x438B7, offset: 0x87E525, size: 0x8, addend: 0x0, symName: __ZN6hermes2vm12JSTypedArrayIxLNS0_8CellKindE44EE18_setOwnIndexedImplENS0_6HandleINS0_8JSObjectEEERNS0_7RuntimeEjNS4_INS0_11HermesValueEEE, symObjAddr: 0x2D48, symBinAddr: 0x536F8, symSize: 0x104 }
